
build/gnu/coral_reef.elf:     file format elf32-littlearm
build/gnu/coral_reef.elf
architecture: armv5te, flags 0x00000112:
EXEC_P, HAS_SYMS, D_PAGED
start address 0x00000000

Program Header:
    LOAD off    0x00001000 vaddr 0x00000000 paddr 0x00000000 align 2**12
         filesz 0x00005678 memsz 0x00005678 flags r-x
    LOAD off    0x00007000 vaddr 0x00400000 paddr 0x00400000 align 2**12
         filesz 0x00000010 memsz 0x00001059 flags rw-
private flags = 0x5000200: [Version5 EABI] [soft-float ABI]

Sections:
Idx Name          Size      VMA       LMA       File off  Algn
  0 RO_DATA       00005678  00000000  00000000  00001000  2**2
                  CONTENTS, ALLOC, LOAD, READONLY, CODE
  1 RW_DATA       00000010  00400000  00400000  00007000  2**2
                  CONTENTS, ALLOC, LOAD, DATA
  2 ZI_DATA       00001049  00400010  00400010  00007010  2**2
                  ALLOC
  3 .debug_info   00018e83  00000000  00000000  00007010  2**0
                  CONTENTS, READONLY, DEBUGGING, OCTETS
  4 .debug_abbrev 00003e00  00000000  00000000  0001fe93  2**0
                  CONTENTS, READONLY, DEBUGGING, OCTETS
  5 .debug_aranges 00000798  00000000  00000000  00023c98  2**3
                  CONTENTS, READONLY, DEBUGGING, OCTETS
  6 .debug_line   00006e0c  00000000  00000000  00024430  2**0
                  CONTENTS, READONLY, DEBUGGING, OCTETS
  7 .debug_str    00003319  00000000  00000000  0002b23c  2**0
                  CONTENTS, READONLY, DEBUGGING, OCTETS
  8 .comment      00000026  00000000  00000000  0002e555  2**0
                  CONTENTS, READONLY
  9 .ARM.attributes 00000029  00000000  00000000  0002e57b  2**0
                  CONTENTS, READONLY
 10 .debug_frame  00001df4  00000000  00000000  0002e5a4  2**2
                  CONTENTS, READONLY, DEBUGGING, OCTETS
 11 .debug_rnglists 00000774  00000000  00000000  00030398  2**0
                  CONTENTS, READONLY, DEBUGGING, OCTETS
 12 .debug_loclists 0000456d  00000000  00000000  00030b0c  2**0
                  CONTENTS, READONLY, DEBUGGING, OCTETS
 13 .debug_line_str 0000007e  00000000  00000000  00035079  2**0
                  CONTENTS, READONLY, DEBUGGING, OCTETS
SYMBOL TABLE:
00000000 l    d  RO_DATA	00000000 RO_DATA
00400000 l    d  RW_DATA	00000000 RW_DATA
00400010 l    d  ZI_DATA	00000000 ZI_DATA
00000000 l    d  .debug_info	00000000 .debug_info
00000000 l    d  .debug_abbrev	00000000 .debug_abbrev
00000000 l    d  .debug_aranges	00000000 .debug_aranges
00000000 l    d  .debug_line	00000000 .debug_line
00000000 l    d  .debug_str	00000000 .debug_str
00000000 l    d  .comment	00000000 .comment
00000000 l    d  .ARM.attributes	00000000 .ARM.attributes
00000000 l    d  .debug_frame	00000000 .debug_frame
00000000 l    d  .debug_rnglists	00000000 .debug_rnglists
00000000 l    d  .debug_loclists	00000000 .debug_loclists
00000000 l    d  .debug_line_str	00000000 .debug_line_str
00000000 l    df *ABS*	00000000 sark_alib.o
00000001 l       *ABS*	00000000 GNU
00000000 l       *ABS*	00000000 NULL
80000000 l       *ABS*	00000000 BIT_31
00000001 l       *ABS*	00000000 BUF_WRITE
00000012 l       *ABS*	00000000 NUM_CPUS
00000006 l       *ABS*	00000000 NUM_LINKS
00000000 l       *ABS*	00000000 ITCM_BASE
00008000 l       *ABS*	00000000 ITCM_SIZE
00008000 l       *ABS*	00000000 ITCM_TOP
00400000 l       *ABS*	00000000 DTCM_BASE
00010000 l       *ABS*	00000000 DTCM_SIZE
00410000 l       *ABS*	00000000 DTCM_TOP
70000000 l       *ABS*	00000000 SDRAM_BASE_UNBUF
60000000 l       *ABS*	00000000 SDRAM_BASE_BUF
60000000 l       *ABS*	00000000 SDRAM_BASE
08000000 l       *ABS*	00000000 SDRAM_SIZE
68000000 l       *ABS*	00000000 SDRAM_TOP
f5000000 l       *ABS*	00000000 SYSRAM_BASE_UNBUF
e5000000 l       *ABS*	00000000 SYSRAM_BASE_BUF
e5000000 l       *ABS*	00000000 SYSRAM_BASE
00008000 l       *ABS*	00000000 SYSRAM_SIZE
e5008000 l       *ABS*	00000000 SYSRAM_TOP
f6000000 l       *ABS*	00000000 ROM_BASE
00008000 l       *ABS*	00000000 ROM_SIZE
f6008000 l       *ABS*	00000000 ROM_TOP
10000000 l       *ABS*	00000000 CC_BASE_UNBUF
20000000 l       *ABS*	00000000 CC_BASE_BUF
20000000 l       *ABS*	00000000 CC_BASE
00000000 l       *ABS*	00000000 CC_TCR
00000004 l       *ABS*	00000000 CC_TXDATA
00000008 l       *ABS*	00000000 CC_TXKEY
0000000c l       *ABS*	00000000 CC_RSR
00000010 l       *ABS*	00000000 CC_RXDATA
00000014 l       *ABS*	00000000 CC_RXKEY
00000018 l       *ABS*	00000000 CC_SAR
0000001c l       *ABS*	00000000 CC_TEST
11000000 l       *ABS*	00000000 TIMER_BASE_UNBUF
21000000 l       *ABS*	00000000 TIMER_BASE_BUF
21000000 l       *ABS*	00000000 TIMER_BASE
00000020 l       *ABS*	00000000 TIMER_OFFSET
21000000 l       *ABS*	00000000 TIMER1_BASE
21000020 l       *ABS*	00000000 TIMER2_BASE
00000000 l       *ABS*	00000000 TC_LOAD
00000004 l       *ABS*	00000000 TC_COUNT
00000008 l       *ABS*	00000000 TC_CONTROL
0000000c l       *ABS*	00000000 TC_INT_CLR
00000010 l       *ABS*	00000000 TC_RAW_INT
00000014 l       *ABS*	00000000 TC_MASK_INT
00000018 l       *ABS*	00000000 TC_BG_LOAD
00000000 l       *ABS*	00000000 T1_LOAD
00000004 l       *ABS*	00000000 T1_COUNT
00000008 l       *ABS*	00000000 T1_CONTROL
0000000c l       *ABS*	00000000 T1_INT_CLR
00000010 l       *ABS*	00000000 T1_RAW_INT
00000014 l       *ABS*	00000000 T1_MASK_INT
00000018 l       *ABS*	00000000 T1_BG_LOAD
00000020 l       *ABS*	00000000 T2_LOAD
00000024 l       *ABS*	00000000 T2_COUNT
00000028 l       *ABS*	00000000 T2_CONTROL
0000002c l       *ABS*	00000000 T2_INT_CLR
00000030 l       *ABS*	00000000 T2_RAW_INT
00000034 l       *ABS*	00000000 T2_MASK_INT
00000038 l       *ABS*	00000000 T2_BG_LOAD
1f000000 l       *ABS*	00000000 VIC_BASE_UNBUF
2f000000 l       *ABS*	00000000 VIC_BASE_BUF
2f000000 l       *ABS*	00000000 VIC_BASE
00000000 l       *ABS*	00000000 VIC_IRQST
00000004 l       *ABS*	00000000 VIC_FIQST
00000008 l       *ABS*	00000000 VIC_RAW
0000000c l       *ABS*	00000000 VIC_SELECT
00000010 l       *ABS*	00000000 VIC_ENABLE
00000014 l       *ABS*	00000000 VIC_DISABLE
00000018 l       *ABS*	00000000 VIC_SOFT_SET
0000001c l       *ABS*	00000000 VIC_SOFT_CLR
00000020 l       *ABS*	00000000 VIC_PROTECT
00000030 l       *ABS*	00000000 VIC_VADDR
00000034 l       *ABS*	00000000 VIC_DEFADDR
00000100 l       *ABS*	00000000 VIC_ADDR
00000100 l       *ABS*	00000000 VIC_ADDR0
00000104 l       *ABS*	00000000 VIC_ADDR1
00000108 l       *ABS*	00000000 VIC_ADDR2
0000010c l       *ABS*	00000000 VIC_ADDR3
00000110 l       *ABS*	00000000 VIC_ADDR4
00000114 l       *ABS*	00000000 VIC_ADDR5
00000118 l       *ABS*	00000000 VIC_ADDR6
0000011c l       *ABS*	00000000 VIC_ADDR7
00000120 l       *ABS*	00000000 VIC_ADDR8
00000124 l       *ABS*	00000000 VIC_ADDR9
00000128 l       *ABS*	00000000 VIC_ADDR10
0000012c l       *ABS*	00000000 VIC_ADDR11
00000130 l       *ABS*	00000000 VIC_ADDR12
00000134 l       *ABS*	00000000 VIC_ADDR13
00000138 l       *ABS*	00000000 VIC_ADDR14
0000013c l       *ABS*	00000000 VIC_ADDR15
00000200 l       *ABS*	00000000 VIC_CNTL
00000200 l       *ABS*	00000000 VIC_CNTL0
00000204 l       *ABS*	00000000 VIC_CNTL1
00000208 l       *ABS*	00000000 VIC_CNTL2
0000020c l       *ABS*	00000000 VIC_CNTL3
00000210 l       *ABS*	00000000 VIC_CNTL4
00000214 l       *ABS*	00000000 VIC_CNTL5
00000218 l       *ABS*	00000000 VIC_CNTL6
0000021c l       *ABS*	00000000 VIC_CNTL7
00000220 l       *ABS*	00000000 VIC_CNTL8
00000224 l       *ABS*	00000000 VIC_CNTL9
00000228 l       *ABS*	00000000 VIC_CNTL10
0000022c l       *ABS*	00000000 VIC_CNTL11
00000230 l       *ABS*	00000000 VIC_CNTL12
00000234 l       *ABS*	00000000 VIC_CNTL13
00000238 l       *ABS*	00000000 VIC_CNTL14
0000023c l       *ABS*	00000000 VIC_CNTL15
00000000 l       *ABS*	00000000 WDOG_INT
00000001 l       *ABS*	00000000 SOFTWARE_INT
00000002 l       *ABS*	00000000 COMM_RX_INT
00000003 l       *ABS*	00000000 COMM_TX_INT
00000004 l       *ABS*	00000000 TIMER1_INT
00000005 l       *ABS*	00000000 TIMER2_INT
00000006 l       *ABS*	00000000 CC_RDY_INT
00000007 l       *ABS*	00000000 CC_RPE_INT
00000008 l       *ABS*	00000000 CC_RFE_INT
00000009 l       *ABS*	00000000 CC_TFL_INT
0000000a l       *ABS*	00000000 CC_TOV_INT
0000000b l       *ABS*	00000000 CC_TMT_INT
0000000c l       *ABS*	00000000 DMA_DONE_INT
0000000d l       *ABS*	00000000 DMA_ERR_INT
0000000e l       *ABS*	00000000 DMA_TO_INT
0000000f l       *ABS*	00000000 RTR_DIAG_INT
00000010 l       *ABS*	00000000 RTR_DUMP_INT
00000011 l       *ABS*	00000000 RTR_ERR_INT
00000012 l       *ABS*	00000000 CPU_INT
00000013 l       *ABS*	00000000 ETH_TX_INT
00000014 l       *ABS*	00000000 ETH_RX_INT
00000015 l       *ABS*	00000000 ETH_PHY_INT
00000016 l       *ABS*	00000000 SLOW_CLK_INT
00000017 l       *ABS*	00000000 CC_TNF_INT
00000018 l       *ABS*	00000000 CC_MC_INT
00000019 l       *ABS*	00000000 CC_P2P_INT
0000001a l       *ABS*	00000000 CC_NN_INT
0000001b l       *ABS*	00000000 CC_FR_INT
0000001c l       *ABS*	00000000 INT0_INT
0000001d l       *ABS*	00000000 INT1_INT
0000001e l       *ABS*	00000000 GPIO8_INT
0000001f l       *ABS*	00000000 GPIO9_INT
30000000 l       *ABS*	00000000 DMA_BASE_UNBUF
40000000 l       *ABS*	00000000 DMA_BASE_BUF
40000000 l       *ABS*	00000000 DMA_BASE
00000004 l       *ABS*	00000000 DMA_ADRS
00000008 l       *ABS*	00000000 DMA_ADRT
0000000c l       *ABS*	00000000 DMA_DESC
00000010 l       *ABS*	00000000 DMA_CTRL
00000014 l       *ABS*	00000000 DMA_STAT
00000018 l       *ABS*	00000000 DMA_GCTL
0000001c l       *ABS*	00000000 DMA_CRCC
00000020 l       *ABS*	00000000 DMA_CRCR
00000024 l       *ABS*	00000000 DMA_TMTV
00000028 l       *ABS*	00000000 DMA_SCTL
00000040 l       *ABS*	00000000 DMA_STAT0
00000044 l       *ABS*	00000000 DMA_STAT1
00000048 l       *ABS*	00000000 DMA_STAT2
0000004c l       *ABS*	00000000 DMA_STAT3
00000050 l       *ABS*	00000000 DMA_STAT4
00000054 l       *ABS*	00000000 DMA_STAT5
00000058 l       *ABS*	00000000 DMA_STAT6
0000005c l       *ABS*	00000000 DMA_STAT7
00000104 l       *ABS*	00000000 DMA_AD2S
00000108 l       *ABS*	00000000 DMA_AD2T
0000010c l       *ABS*	00000000 DMA_DES2
00000180 l       *ABS*	00000000 DMA_CRCT
f0000000 l       *ABS*	00000000 PL340_BASE_UNBUF
e0000000 l       *ABS*	00000000 PL340_BASE_BUF
e0000000 l       *ABS*	00000000 PL340_BASE
00000000 l       *ABS*	00000000 MC_STAT
00000004 l       *ABS*	00000000 MC_CMD
00000008 l       *ABS*	00000000 MC_DIRC
0000000c l       *ABS*	00000000 MC_MCFG
00000010 l       *ABS*	00000000 MC_REFP
00000014 l       *ABS*	00000000 MC_CASL
00000018 l       *ABS*	00000000 MC_DQSS
0000001c l       *ABS*	00000000 MC_MRD
00000020 l       *ABS*	00000000 MC_RAS
00000024 l       *ABS*	00000000 MC_RC
00000028 l       *ABS*	00000000 MC_RCD
0000002c l       *ABS*	00000000 MC_RFC
00000030 l       *ABS*	00000000 MC_RP
00000034 l       *ABS*	00000000 MC_RRD
00000038 l       *ABS*	00000000 MC_WR
0000003c l       *ABS*	00000000 MC_WTR
00000040 l       *ABS*	00000000 MC_XP
00000044 l       *ABS*	00000000 MC_XSR
00000048 l       *ABS*	00000000 MC_ESR
0000004c l       *ABS*	00000000 MC_MCFG2
00000050 l       *ABS*	00000000 MC_MCFG3
00000100 l       *ABS*	00000000 MC_QOS0
00000104 l       *ABS*	00000000 MC_QOS1
00000108 l       *ABS*	00000000 MC_QOS2
0000010c l       *ABS*	00000000 MC_QOS3
00000110 l       *ABS*	00000000 MC_QOS4
00000114 l       *ABS*	00000000 MC_QOS5
00000118 l       *ABS*	00000000 MC_QOS6
0000011c l       *ABS*	00000000 MC_QOS7
00000120 l       *ABS*	00000000 MC_QOS8
00000124 l       *ABS*	00000000 MC_QOS9
00000128 l       *ABS*	00000000 MC_QOS10
0000012c l       *ABS*	00000000 MC_QOS11
00000130 l       *ABS*	00000000 MC_QOS12
00000134 l       *ABS*	00000000 MC_QOS13
00000138 l       *ABS*	00000000 MC_QOS14
0000013c l       *ABS*	00000000 MC_QOS15
00000200 l       *ABS*	00000000 MC_CCFG0
00000204 l       *ABS*	00000000 MC_CCFG1
00000208 l       *ABS*	00000000 MC_CCFG2
0000020c l       *ABS*	00000000 MC_CCFG3
00000300 l       *ABS*	00000000 DLL_STATUS
00000304 l       *ABS*	00000000 DLL_CONFIG0
00000308 l       *ABS*	00000000 DLL_CONFIG1
f1000000 l       *ABS*	00000000 RTR_BASE_UNBUF
e1000000 l       *ABS*	00000000 RTR_BASE_BUF
e1000000 l       *ABS*	00000000 RTR_BASE
00000000 l       *ABS*	00000000 RTR_CONTROL
00000004 l       *ABS*	00000000 RTR_STATUS
00000008 l       *ABS*	00000000 RTR_EHDR
0000000c l       *ABS*	00000000 RTR_EKEY
00000010 l       *ABS*	00000000 RTR_EDAT
00000014 l       *ABS*	00000000 RTR_ESTAT
00000018 l       *ABS*	00000000 RTR_DHDR
0000001c l       *ABS*	00000000 RTR_DKEY
00000020 l       *ABS*	00000000 RTR_DDAT
00000024 l       *ABS*	00000000 RTR_DLINK
00000028 l       *ABS*	00000000 RTR_DSTAT
0000002c l       *ABS*	00000000 RTR_DGEN
00000084 l       *ABS*	00000000 RTR_FR
00000200 l       *ABS*	00000000 RTR_DGF0
00000204 l       *ABS*	00000000 RTR_DGF1
00000208 l       *ABS*	00000000 RTR_DGF2
0000020c l       *ABS*	00000000 RTR_DGF3
00000210 l       *ABS*	00000000 RTR_DGF4
00000214 l       *ABS*	00000000 RTR_DGF5
00000218 l       *ABS*	00000000 RTR_DGF6
0000021c l       *ABS*	00000000 RTR_DGF7
00000220 l       *ABS*	00000000 RTR_DGF8
00000224 l       *ABS*	00000000 RTR_DGF9
00000228 l       *ABS*	00000000 RTR_DGF10
0000022c l       *ABS*	00000000 RTR_DGF11
00000230 l       *ABS*	00000000 RTR_DGF12
00000234 l       *ABS*	00000000 RTR_DGF13
00000238 l       *ABS*	00000000 RTR_DGF14
0000023c l       *ABS*	00000000 RTR_DGF15
00000300 l       *ABS*	00000000 RTR_DGC0
00000304 l       *ABS*	00000000 RTR_DGC1
00000308 l       *ABS*	00000000 RTR_DGC2
0000030c l       *ABS*	00000000 RTR_DGC3
00000310 l       *ABS*	00000000 RTR_DGC4
00000314 l       *ABS*	00000000 RTR_DGC5
00000318 l       *ABS*	00000000 RTR_DGC6
0000031c l       *ABS*	00000000 RTR_DGC7
00000320 l       *ABS*	00000000 RTR_DGC8
00000324 l       *ABS*	00000000 RTR_DGC9
00000328 l       *ABS*	00000000 RTR_DGC10
0000032c l       *ABS*	00000000 RTR_DGC11
00000330 l       *ABS*	00000000 RTR_DGC12
00000334 l       *ABS*	00000000 RTR_DGC13
00000338 l       *ABS*	00000000 RTR_DGC14
0000033c l       *ABS*	00000000 RTR_DGC15
00000f00 l       *ABS*	00000000 RTR_TST1
00000f04 l       *ABS*	00000000 RTR_TST2
00002000 l       *ABS*	00000000 P2P_TABLE_SIZE
00000400 l       *ABS*	00000000 MC_TABLE_SIZE
00000018 l       *ABS*	00000000 MC_RAM_WIDTH
00ffffff l       *ABS*	00000000 MC_RAM_MASK
00000008 l       *ABS*	00000000 P2P_EPW
00000003 l       *ABS*	00000000 P2P_LOG_EPW
00000007 l       *ABS*	00000000 P2P_EMASK
00000003 l       *ABS*	00000000 P2P_BPE
00000007 l       *ABS*	00000000 P2P_BMASK
00db6db6 l       *ABS*	00000000 P2P_INIT
e1004000 l       *ABS*	00000000 RTR_MCRAM_BASE
e1005000 l       *ABS*	00000000 RTR_MCRAM_TOP
e1008000 l       *ABS*	00000000 RTR_MCKEY_BASE
e1009000 l       *ABS*	00000000 RTR_MCKEY_TOP
e100c000 l       *ABS*	00000000 RTR_MCMASK_BASE
e100d000 l       *ABS*	00000000 RTR_MCMASK_TOP
e1010000 l       *ABS*	00000000 RTR_P2P_BASE
e1018000 l       *ABS*	00000000 RTR_P2P_TOP
00000020 l       *ABS*	00000000 MC_CAM_WIDTH
f2000000 l       *ABS*	00000000 SYSCTL_BASE_UNBUF
e2000000 l       *ABS*	00000000 SYSCTL_BASE_BUF
e2000000 l       *ABS*	00000000 SYSCTL_BASE
5ec00000 l       *ABS*	00000000 SC_CODE
59111012 l       *ABS*	00000000 CHIP_ID_CODE
00000000 l       *ABS*	00000000 SC_CHIP_ID
00000004 l       *ABS*	00000000 SC_CPU_DIS
00000008 l       *ABS*	00000000 SC_SET_IRQ
0000000c l       *ABS*	00000000 SC_CLR_IRQ
00000010 l       *ABS*	00000000 SC_SET_OK
00000010 l       *ABS*	00000000 SC_CPU_OK
00000014 l       *ABS*	00000000 SC_CLR_OK
00000018 l       *ABS*	00000000 SC_SOFT_RST_L
0000001c l       *ABS*	00000000 SC_HARD_RST_L
00000020 l       *ABS*	00000000 SC_SUBS_RST_L
00000024 l       *ABS*	00000000 SC_SOFT_RST_P
00000028 l       *ABS*	00000000 SC_HARD_RST_P
0000002c l       *ABS*	00000000 SC_SUBS_RST_P
00000030 l       *ABS*	00000000 SC_RST_CODE
00000034 l       *ABS*	00000000 SC_MON_ID
00000038 l       *ABS*	00000000 SC_MISC_CTRL
0000003c l       *ABS*	00000000 GPIO_RES
00000040 l       *ABS*	00000000 GPIO_PORT
00000044 l       *ABS*	00000000 GPIO_DIR
00000048 l       *ABS*	00000000 GPIO_SET
0000004c l       *ABS*	00000000 GPIO_CLR
00000048 l       *ABS*	00000000 GPIO_READ
00000050 l       *ABS*	00000000 SC_PLL1
00000054 l       *ABS*	00000000 SC_PLL2
00000058 l       *ABS*	00000000 SC_FLAG
00000058 l       *ABS*	00000000 SC_SETFLAG
0000005c l       *ABS*	00000000 SC_CLRFLAG
00000060 l       *ABS*	00000000 SC_CLKMUX
00000064 l       *ABS*	00000000 SC_SLEEP
00000068 l       *ABS*	00000000 SC_TS0
0000006c l       *ABS*	00000000 SC_TS1
00000070 l       *ABS*	00000000 SC_TS2
00000080 l       *ABS*	00000000 SC_ARB0
00000100 l       *ABS*	00000000 SC_TAS0
00000180 l       *ABS*	00000000 SC_TAC0
00000200 l       *ABS*	00000000 SC_LINK_DIS
00000000 l       *ABS*	00000000 RST_POR
00000001 l       *ABS*	00000000 RST_WDT
00000002 l       *ABS*	00000000 RST_USER
00000003 l       *ABS*	00000000 RST_SW
00000004 l       *ABS*	00000000 RST_WDI
f3000000 l       *ABS*	00000000 WDOG_BASE_UNBUF
e3000000 l       *ABS*	00000000 WDOG_BASE_BUF
e3000000 l       *ABS*	00000000 WDOG_BASE
00000000 l       *ABS*	00000000 WD_LOAD
00000004 l       *ABS*	00000000 WD_COUNT
00000008 l       *ABS*	00000000 WD_CTRL
0000000c l       *ABS*	00000000 WD_INTCLR
00000010 l       *ABS*	00000000 WD_RAWINT
00000014 l       *ABS*	00000000 WD_MSKINT
00000c00 l       *ABS*	00000000 WD_LOCK
1acce551 l       *ABS*	00000000 WD_CODE
00000001 l       *ABS*	00000000 WD_INT_B
00000002 l       *ABS*	00000000 WD_RST_B
f4000000 l       *ABS*	00000000 ETH_BASE_UNBUF
e4000000 l       *ABS*	00000000 ETH_BASE_BUF
e4000000 l       *ABS*	00000000 ETH_BASE
e4000000 l       *ABS*	00000000 ETH_TX_BASE
00000600 l       *ABS*	00000000 ETH_TX_SIZE
e4000600 l       *ABS*	00000000 ETH_TX_TOP
e4004000 l       *ABS*	00000000 ETH_RX_BASE
00000c00 l       *ABS*	00000000 ETH_RX_SIZE
e4004c00 l       *ABS*	00000000 ETH_RX_TOP
e4008000 l       *ABS*	00000000 ETH_RX_DESC_RAM
e400c000 l       *ABS*	00000000 ETH_REGS
00000000 l       *ABS*	00000000 ETH_CONTROL
00000004 l       *ABS*	00000000 ETH_STATUS
00000008 l       *ABS*	00000000 ETH_TX_LEN
0000000c l       *ABS*	00000000 ETH_TX_CMD
00000010 l       *ABS*	00000000 ETH_RX_CMD
00000014 l       *ABS*	00000000 ETH_MAC_LO
00000018 l       *ABS*	00000000 ETH_MAC_HI
0000001c l       *ABS*	00000000 ETH_PHY_CTRL
00000020 l       *ABS*	00000000 ETH_INT_CLR
00000024 l       *ABS*	00000000 ETH_RX_BUF_RP
0000002c l       *ABS*	00000000 ETH_RX_DESC_RP
00000001 l       *ABS*	00000000 ETH_TX_CLR
00000010 l       *ABS*	00000000 ETH_RX_CLR
00000001 l       *ABS*	00000000 PHY_CTRL_NRST
00000002 l       *ABS*	00000000 PHY_CTRL_DIN
00000004 l       *ABS*	00000000 PHY_CTRL_DOUT
00000008 l       *ABS*	00000000 PHY_CTRL_OE
00000010 l       *ABS*	00000000 PHY_CTRL_CLK
00000000 l       *ABS*	00000000 PKT_MC
00400000 l       *ABS*	00000000 PKT_P2P
00800000 l       *ABS*	00000000 PKT_NN
00a00000 l       *ABS*	00000000 PKT_NND
00c00000 l       *ABS*	00000000 PKT_FR
00020000 l       *ABS*	00000000 PKT_PL
00020000 l       *ABS*	00000000 PKT_MC_PL
00420000 l       *ABS*	00000000 PKT_P2P_PL
00820000 l       *ABS*	00000000 PKT_NN_PL
00c20000 l       *ABS*	00000000 PKT_FR_PL
0000000a l       *ABS*	00000000 CLK_XTAL_MHZ
0007011a l       *ABS*	00000000 PLL_260
0007011e l       *ABS*	00000000 PLL_300
00070121 l       *ABS*	00000000 PLL_330
00070128 l       *ABS*	00000000 PLL_400
00000050 l       *ABS*	00000000 PLL_LOCK_TIME
809488a5 l       *ABS*	00000000 PLL_CLK_SEL
00000020 l       *ABS*	00000000 SERIAL_NCS
00000010 l       *ABS*	00000000 SERIAL_CLK
00000008 l       *ABS*	00000000 SERIAL_SI
00000004 l       *ABS*	00000000 SERIAL_SO
00000038 l       *ABS*	00000000 SERIAL_OE
80000000 l       *ABS*	00000000 TOP_BIT
80000000 l       *ABS*	00000000 SDRAM_TQ
40000000 l       *ABS*	00000000 SDRAM_DPD
20000000 l       *ABS*	00000000 SDRAM_HERE
08000000 l       *ABS*	00000000 JTAG_NTRST
04000000 l       *ABS*	00000000 JTAG_TMS
02000000 l       *ABS*	00000000 JTAG_TDI
01000000 l       *ABS*	00000000 JTAG_TCK
00100000 l       *ABS*	00000000 JTAG_RTCK
00080000 l       *ABS*	00000000 JTAG_TDO
00008000 l       *ABS*	00000000 JTAG_INT
00000001 l       *ABS*	00000000 LED_0
00000010 l       *ABS*	00000000 MODE_USER
00000011 l       *ABS*	00000000 MODE_FIQ
00000012 l       *ABS*	00000000 MODE_IRQ
00000013 l       *ABS*	00000000 MODE_SVC
00000017 l       *ABS*	00000000 MODE_ABT
0000001b l       *ABS*	00000000 MODE_UND
0000001f l       *ABS*	00000000 MODE_SYS
00000020 l       *ABS*	00000000 THUMB_BIT
00000080 l       *ABS*	00000000 IMASK_IRQ
00000040 l       *ABS*	00000000 IMASK_FIQ
000000c0 l       *ABS*	00000000 IMASK_ALL
00000001 l       *ABS*	00000000 SARK_EVENT
00000180 l       *ABS*	00000000 SVC_STACK
00000100 l       *ABS*	00000000 IRQ_STACK
00000100 l       *ABS*	00000000 FIQ_STACK
00000004 l       *ABS*	00000000 NUM_SDP_MSGS
0000000f l       *ABS*	00000000 SARK_SLOT
00000010 l       *ABS*	00000000 INIT_EVENTS
deaddead l       *ABS*	00000000 DEAD_WORD
00000001 l       *ABS*	00000000 APLX_ACOPY
00000002 l       *ABS*	00000000 APLX_RCOPY
00000003 l       *ABS*	00000000 APLX_FILL
00000004 l       *ABS*	00000000 APLX_EXEC
000000ff l       *ABS*	00000000 APLX_END
00000010 l       *ABS*	00000000 APLX_ENTRY_SIZE
00000040 l       *ABS*	00000000 APLX_BUF_SIZE
00007fc0 l       *ABS*	00000000 APLX_BUFFER
000000ff l       *ABS*	00000000 TAG_NONE
00000000 l       *ABS*	00000000 TAG_HOST
00000001 l       *ABS*	00000000 RTR_ALLOC_FIRST
00000400 l       *ABS*	00000000 RTR_ALLOC_LAST
000003ff l       *ABS*	00000000 RTR_ALLOC_MAX
00000001 l       *ABS*	00000000 ALLOC_LOCK
00000002 l       *ABS*	00000000 ALLOC_ID
00000004 l       *ABS*	00000000 ALLOC_TAG_RETRY
00000000 l       *ABS*	00000000 LOCK_MSG
00000001 l       *ABS*	00000000 LOCK_MBOX
00000002 l       *ABS*	00000000 LOCK_ETHER
00000003 l       *ABS*	00000000 LOCK_GPIO
00000004 l       *ABS*	00000000 LOCK_API_ROOT
00000005 l       *ABS*	00000000 LOCK_SEMA
00000006 l       *ABS*	00000000 LOCK_HEAP
00000007 l       *ABS*	00000000 LOCK_RTR
00000005 l       *ABS*	00000000 A_LOCK_SEMA
00000000 l       *ABS*	00000000 APP_FLAG_WAIT
00000000 l       *ABS*	00000000 RTE_NONE
00000001 l       *ABS*	00000000 RTE_RESET
00000002 l       *ABS*	00000000 RTE_UNDEF
00000003 l       *ABS*	00000000 RTE_SVC
00000004 l       *ABS*	00000000 RTE_PABT
00000005 l       *ABS*	00000000 RTE_DABT
00000006 l       *ABS*	00000000 RTE_IRQ
00000007 l       *ABS*	00000000 RTE_FIQ
00000008 l       *ABS*	00000000 RTE_VIC
00000009 l       *ABS*	00000000 RTE_ABORT
0000000a l       *ABS*	00000000 RTE_MALLOC
0000000b l       *ABS*	00000000 RTE_DIV0
0000000c l       *ABS*	00000000 RTE_EVENT
0000000d l       *ABS*	00000000 RTE_SWERR
0000000e l       *ABS*	00000000 RTE_IOBUF
0000000f l       *ABS*	00000000 RTE_ENABLE
00000010 l       *ABS*	00000000 RTE_NULL
00000011 l       *ABS*	00000000 RTE_PKT
00000012 l       *ABS*	00000000 RTE_TIMER
00000013 l       *ABS*	00000000 RTE_API
00000014 l       *ABS*	00000000 RTE_VER
00000001 l       *ABS*	00000000 A_RTE_RESET
00000002 l       *ABS*	00000000 A_RTE_UNDEF
00000003 l       *ABS*	00000000 A_RTE_SVC
00000004 l       *ABS*	00000000 A_RTE_PABT
00000005 l       *ABS*	00000000 A_RTE_DABT
00000006 l       *ABS*	00000000 A_RTE_IRQ
00000007 l       *ABS*	00000000 A_RTE_FIQ
00000008 l       *ABS*	00000000 A_RTE_VIC
00000000 l       *ABS*	00000000 CPU_STATE_DEAD
00000001 l       *ABS*	00000000 CPU_STATE_PWRDN
00000002 l       *ABS*	00000000 CPU_STATE_RTE
00000003 l       *ABS*	00000000 CPU_STATE_WDOG
00000004 l       *ABS*	00000000 CPU_STATE_INIT
00000005 l       *ABS*	00000000 CPU_STATE_WAIT
00000006 l       *ABS*	00000000 CPU_STATE_SARK
00000007 l       *ABS*	00000000 CPU_STATE_RUN
00000008 l       *ABS*	00000000 CPU_STATE_SYNC0
00000009 l       *ABS*	00000000 CPU_STATE_SYNC1
0000000a l       *ABS*	00000000 CPU_STATE_PAUSE
0000000b l       *ABS*	00000000 CPU_STATE_EXIT
0000000c l       *ABS*	00000000 CPU_STATE_12
0000000d l       *ABS*	00000000 CPU_STATE_13
0000000e l       *ABS*	00000000 CPU_STATE_14
0000000f l       *ABS*	00000000 CPU_STATE_IDLE
00000002 l       *ABS*	00000000 A_STATE_RTE
00000000 l       *ABS*	00000000 EVENT_TIMER
00000001 l       *ABS*	00000000 EVENT_RXPKT
00000002 l       *ABS*	00000000 EVENT_SDP
00000003 l       *ABS*	00000000 EVENT_USER
00000004 l       *ABS*	00000000 EVENT_SIG
00000005 l       *ABS*	00000000 EVENT_DMA
00000005 l       *ABS*	00000000 EVENT_MAX
00000006 l       *ABS*	00000000 EVENT_COUNT
00000000 l       *ABS*	00000000 EVENT_RUN
00000001 l       *ABS*	00000000 EVENT_PAUSE
00000002 l       *ABS*	00000000 EVENT_STOP
00000000 l       *ABS*	00000000 SLOT_0
00000001 l       *ABS*	00000000 SLOT_1
00000002 l       *ABS*	00000000 SLOT_2
00000003 l       *ABS*	00000000 SLOT_3
00000004 l       *ABS*	00000000 SLOT_4
00000005 l       *ABS*	00000000 SLOT_5
00000006 l       *ABS*	00000000 SLOT_6
00000007 l       *ABS*	00000000 SLOT_7
00000008 l       *ABS*	00000000 SLOT_8
00000009 l       *ABS*	00000000 SLOT_9
0000000a l       *ABS*	00000000 SLOT_10
0000000b l       *ABS*	00000000 SLOT_11
0000000c l       *ABS*	00000000 SLOT_12
0000000d l       *ABS*	00000000 SLOT_13
0000000e l       *ABS*	00000000 SLOT_14
0000000f l       *ABS*	00000000 SLOT_15
00000010 l       *ABS*	00000000 SLOT_FIQ
0000000f l       *ABS*	00000000 SLOT_MAX
00000000 l       *ABS*	00000000 PRIO_0
00000001 l       *ABS*	00000000 PRIO_1
00000002 l       *ABS*	00000000 PRIO_2
00000003 l       *ABS*	00000000 PRIO_3
00000003 l       *ABS*	00000000 PRIO_MAX
00000000 l       *ABS*	00000000 SW_OPT
00000001 l       *ABS*	00000000 SW_NEVER
00000002 l       *ABS*	00000000 SW_RTE
00000000 l       *ABS*	00000000 SYNC_NOWAIT
00000001 l       *ABS*	00000000 SYNC_WAIT
00000000 l       *ABS*	00000000 SHM_IDLE
00000001 l       *ABS*	00000000 SHM_MSG
00000002 l       *ABS*	00000000 SHM_NOP
00000003 l       *ABS*	00000000 SHM_SIGNAL
00000004 l       *ABS*	00000000 SHM_CMD
00000000 l       *ABS*	00000000 SIG_INIT
00000001 l       *ABS*	00000000 SIG_PWRDN
00000002 l       *ABS*	00000000 SIG_STOP
00000003 l       *ABS*	00000000 SIG_START
00000004 l       *ABS*	00000000 SIG_SYNC0
00000005 l       *ABS*	00000000 SIG_SYNC1
00000006 l       *ABS*	00000000 SIG_PAUSE
00000007 l       *ABS*	00000000 SIG_CONT
00000008 l       *ABS*	00000000 SIG_EXIT
00000009 l       *ABS*	00000000 SIG_TIMER
0000000a l       *ABS*	00000000 SIG_USR0
0000000b l       *ABS*	00000000 SIG_USR1
0000000c l       *ABS*	00000000 SIG_USR2
0000000d l       *ABS*	00000000 SIG_USR3
00000000 l       *ABS*	00000000 CMD_VER
00000001 l       *ABS*	00000000 CMD_RUN
00000002 l       *ABS*	00000000 CMD_READ
00000003 l       *ABS*	00000000 CMD_WRITE
00000004 l       *ABS*	00000000 CMD_APLX
00000005 l       *ABS*	00000000 CMD_FILL
0000000f l       *ABS*	00000000 CMD_COUNT
00000010 l       *ABS*	00000000 CMD_REMAP
00000011 l       *ABS*	00000000 CMD_LINK_READ
00000012 l       *ABS*	00000000 CMD_LINK_WRITE
00000013 l       *ABS*	00000000 CMD_AR
00000014 l       *ABS*	00000000 CMD_NNP
00000015 l       *ABS*	00000000 CMD_APP_COPY_RUN
00000016 l       *ABS*	00000000 CMD_SIG
00000017 l       *ABS*	00000000 CMD_FFD
00000018 l       *ABS*	00000000 CMD_AS
00000019 l       *ABS*	00000000 CMD_LED
0000001a l       *ABS*	00000000 CMD_IPTAG
0000001b l       *ABS*	00000000 CMD_SROM
0000001c l       *ABS*	00000000 CMD_ALLOC
0000001d l       *ABS*	00000000 CMD_RTR
0000001e l       *ABS*	00000000 CMD_RSVD
0000001f l       *ABS*	00000000 CMD_INFO
00000020 l       *ABS*	00000000 CMD_SYNC
00000040 l       *ABS*	00000000 CMD_TUBE
00000080 l       *ABS*	00000000 RC_OK
00000081 l       *ABS*	00000000 RC_LEN
00000082 l       *ABS*	00000000 RC_SUM
00000083 l       *ABS*	00000000 RC_CMD
00000084 l       *ABS*	00000000 RC_ARG
00000085 l       *ABS*	00000000 RC_PORT
00000086 l       *ABS*	00000000 RC_TIMEOUT
00000087 l       *ABS*	00000000 RC_ROUTE
00000088 l       *ABS*	00000000 RC_CPU
00000089 l       *ABS*	00000000 RC_DEAD
0000008a l       *ABS*	00000000 RC_BUF
0000008b l       *ABS*	00000000 RC_P2P_NOREPLY
0000008c l       *ABS*	00000000 RC_P2P_REJECT
0000008d l       *ABS*	00000000 RC_P2P_BUSY
0000008e l       *ABS*	00000000 RC_P2P_TIMEOUT
0000008f l       *ABS*	00000000 RC_PKT_TX
00000000 l       *ABS*	00000000 TYPE_BYTE
00000001 l       *ABS*	00000000 TYPE_HALF
00000002 l       *ABS*	00000000 TYPE_WORD
00000008 l       *ABS*	00000000 NUM_SDP_PORTS
00000005 l       *ABS*	00000000 PORT_SHIFT
000000e0 l       *ABS*	00000000 PORT_MASK
0000001f l       *ABS*	00000000 CPU_MASK
000000ff l       *ABS*	00000000 PORT_ETH
00000100 l       *ABS*	00000000 SDP_BUF_SIZE
00000080 l       *ABS*	00000000 VCPU_SIZE
0000002c l       *ABS*	00000000 VCPU_RT_CODE
0000002e l       *ABS*	00000000 VCPU_CPU_STATE
0000002f l       *ABS*	00000000 VCPU_APP_ID
0000001c l       *ABS*	00000000 SARK_MSG_INT
0000001d l       *ABS*	00000000 SARK_SIG_INT
00000000 l       *ABS*	00000000 SARK_VIRT_CPU
00000008 l       *ABS*	00000000 SARK_RANDOM
00000030 l       *ABS*	00000000 SARK_CPU_CLK
00000020 l       *ABS*	00000000 SV_SSIZE
00000060 l       *ABS*	00000000 SV_USIZE
00000080 l       *ABS*	00000000 SV_ISIZE
00000020 l       *ABS*	00000000 SV_VSIZE
00000040 l       *ABS*	00000000 SV_RSIZE
00001000 l       *ABS*	00000000 SV_SIZE
e5007fe0 l       *ABS*	00000000 SV_SROM
e5007f80 l       *ABS*	00000000 SV_UBASE
e5007f00 l       *ABS*	00000000 SV_IBASE
e5007f00 l       *ABS*	00000000 SV_SV
00000100 l       *ABS*	00000000 SYS_BOOT
e5007000 l       *ABS*	00000000 SYS_USER_TOP
e5000100 l       *ABS*	00000000 SYS_USER_BASE
e5007ee0 l       *ABS*	00000000 SV_VECTORS
e5007ea0 l       *ABS*	00000000 SV_RANDOM
e5007000 l       *ABS*	00000000 SV_VCPU
e5007900 l       *ABS*	00000000 SV_SPARE
000005a0 l       *ABS*	00000000 SPARE_SIZE
e5007fe0 l       *ABS*	00000000 SROM_FLAG_BASE
e5007f80 l       *ABS*	00000000 STATUS_MAP_BASE
e5007ee0 l       *ABS*	00000000 RST_BLOCK_BASE
00008000 l       *ABS*	00000000 SRF_PRESENT
000000f0 l       *ABS*	00000000 SRF_HW_VER
00000008 l       *ABS*	00000000 SRF_PHY_INIT
00000004 l       *ABS*	00000000 SRF_PHY_RST
00000002 l       *ABS*	00000000 SRF_PHY_WAIT
00000001 l       *ABS*	00000000 SRF_ETH
00000000 l       *ABS*	00000000 SRF_NONE
00000020 l       RO_DATA	00000000 reset_vec
00000004 l       RO_DATA	00000000 undef
00000024 l       RO_DATA	00000000 undef_vec
00000028 l       RO_DATA	00000000 svc_vec
0000002c l       RO_DATA	00000000 pabt_vec
00000030 l       RO_DATA	00000000 dabt_vec
0000003c l       RO_DATA	00000000 fiq_vec
00000078 l       RO_DATA	00000000 reset_entry
000000d8 l       RO_DATA	00000000 undef_error
000000e0 l       RO_DATA	00000000 svc_error
000000e8 l       RO_DATA	00000000 pabt_error
000000f0 l       RO_DATA	00000000 dabt_error
00000034 l       RO_DATA	00000000 aplx_proc
00000038 l       RO_DATA	00000000 irq_vec
000000f8 l       RO_DATA	00000000 irq_error
00000100 l       RO_DATA	00000000 fiq_error
00000040 l       RO_DATA	00000000 svc_stack
00000042 l       RO_DATA	00000000 irq_stack
00000044 l       RO_DATA	00000000 fiq_stack
00000046 l       RO_DATA	00000000 stack_size
00000048 l       RO_DATA	00000000 code_top
0000004c l       RO_DATA	00000000 heap_base
00000050 l       RO_DATA	00000000 stack_top
00000054 l       RO_DATA	00000000 stack_fill
00000058 l       RO_DATA	00000000 num_msgs
00000059 l       RO_DATA	00000000 sark_slot
0000005a l       RO_DATA	00000000 num_events
0000005b l       RO_DATA	00000000 api
0000005c l       RO_DATA	00000000 app_id
0000005d l       RO_DATA	00000000 app_flags
0000005e l       RO_DATA	00000000 __PAD
00000060 l       RO_DATA	00000000 event_vec
000000d0 l       RO_DATA	00000000 reset_error
00000114 l       RO_DATA	00000000 exc_error
00000138 l       RO_DATA	00000000 cc_error
000001ec l       RO_DATA	00000000 lg1
0000023c l       RO_DATA	00000000 ws1
0000029c l       RO_DATA	00000000 wc2
00000284 l       RO_DATA	00000000 wc1
0000037c l       RO_DATA	00000000 aplx_buffer
00000380 l       RO_DATA	00000000 aplx_loader
0000036c l       RO_DATA	00000000 aplx_l0
00000398 l       RO_DATA	00000000 aplx_copy
00000394 l       RO_DATA	00000000 aplx_rcopy
000003a6 l       RO_DATA	00000000 aplx_fill
000003b6 l       RO_DATA	00000000 aplx_exec
000003ac l       RO_DATA	00000000 aplx_l1
00000000 l    df *ABS*	00000000 sark_base.c
00000000 l    df *ABS*	00000000 sark_event.c
00000000 l    df *ABS*	00000000 sark_timer.c
00400a08 l     O ZI_DATA	0000001c cancelled
00000000 l    df *ABS*	00000000 sark_hw.c
00000000 l    df *ABS*	00000000 sark_isr.c
00000000 l    df *ABS*	00000000 sark_alloc.c
00000000 l    df *ABS*	00000000 sark_io.c
000040c0 l     F RO_DATA	00000040 io_buf_init
00400a2c l     O ZI_DATA	00000004 buf_ptr
00400a24 l     O ZI_DATA	00000004 io_buf
00400a30 l     O ZI_DATA	00000004 sp_ptr
00400a28 l     O ZI_DATA	00000004 io_msg
000041e8 l     F RO_DATA	000000be io_put_fixed
00005647 l     O RO_DATA	00000011 hex
00000000 l    df *ABS*	00000000 sark_pkt.c
00000000 l    df *ABS*	00000000 sark_div0.c
00000000 l    df *ABS*	00000000 main.c
000003bc l     F RO_DATA	00000028 spin1_set_timer_tick
000003e4 l     F RO_DATA	00000054 spin1_send_mc_packet
00000438 l     F RO_DATA	0000008c timer_callback
000004c4 l     F RO_DATA	0000005c mc_packet_callback
00000520 l     F RO_DATA	0000002c sdp_callback
00000000 l    df *ABS*	00000000 neuron_manager.c
00400018 l       ZI_DATA	00000004 g_neuron_list
0040001c l       ZI_DATA	00000004 g_neuron_count
00400020 l       ZI_DATA	00000004 g_app_id
00000000 l    df *ABS*	00000000 synapse_manager.c
00400024 l       ZI_DATA	00000004 g_synapse_count
00400028 l       ZI_DATA	00000004 g_active_trace_count
0040002c l       ZI_DATA	00000004 g_last_delivery_visits
00400030 l       ZI_DATA	00000004 g_last_decay_visits
00400034 l       ZI_DATA	00000004 g_last_modulation_visits
00400038 l       ZI_DATA	00000004 g_post_index
0040003c l       ZI_DATA	00000004 g_pre_index
00400040 l       ZI_DATA	00000004 g_active_trace_head
00000b48 l     F RO_DATA	0000006c _find_post
00000bb4 l     F RO_DATA	0000006c _find_pre
00000c20 l     F RO_DATA	000000a0 _find_or_create_post
00000cc0 l     F RO_DATA	000000a0 _find_or_create_pre
00000d60 l     F RO_DATA	00000050 _clip_weight
00000db0 l     F RO_DATA	00000098 _drop_empty_post_entry
00000e48 l     F RO_DATA	00000098 _drop_empty_pre_entry
00000ee0 l     F RO_DATA	000000b4 _unlink_from_post
00000f94 l     F RO_DATA	000000b4 _unlink_from_pre
00001048 l     F RO_DATA	000000e0 _unlink_from_active
00001128 l     F RO_DATA	00000078 _activate_trace
000011a0 l     F RO_DATA	0000008c _free_synapse
0000122c l     F RO_DATA	00000088 _find_synapse
00000000 l    df *ABS*	00000000 state_manager.c
00400044 l       ZI_DATA	000000a0 g_context_slots
004000e4 l       ZI_DATA	00000800 g_pending_horizons
004008e4 l       ZI_DATA	00000044 g_summary
00001a5c l     F RO_DATA	0000010c _clear_slots
00001b68 l     F RO_DATA	000000f0 _clear_summary
00001c58 l     F RO_DATA	000000a0 _clear_pending
00001cf8 l     F RO_DATA	000000ac _find_slot
00001da4 l     F RO_DATA	00000154 _select_slot_for_write
000023dc l     F RO_DATA	000000e0 _apply_reward_to_feature_prediction
00000000 l    df *ABS*	00000000 host_interface.c
0000275c l     F RO_DATA	00000024 spin1_msg_free
00002780 l     F RO_DATA	00000018 spin1_msg_get
00002798 l     F RO_DATA	00000030 spin1_send_sdp_msg
000027c8 l     F RO_DATA	00000068 _read_s32
00002830 l     F RO_DATA	0000007c _write_u32
000028ac l     F RO_DATA	00000030 _write_s32
000028dc l     F RO_DATA	000000e8 _handle_birth
000029c4 l     F RO_DATA	000000ac _handle_death
00002a70 l     F RO_DATA	000000c0 _handle_dopamine
00002b30 l     F RO_DATA	00000084 _handle_read_spikes
00002bb4 l     F RO_DATA	000000c0 _handle_create_syn
00002c74 l     F RO_DATA	000000a4 _handle_remove_syn
00002d18 l     F RO_DATA	00000070 _handle_reset
00002d88 l     F RO_DATA	00000058 _handle_read_state
00000000 l    df *ABS*	00000000 router.c
00400928 l       ZI_DATA	00000004 g_route_list
0040092c l       ZI_DATA	00000004 g_route_count
00400930 l       ZI_DATA	00000004 g_app_id
00003238 l     F RO_DATA	0000006c _find_route
00000000 l    df *ABS*	00000000 spin1_api.c
00004540 l     F RO_DATA	0000008c configure_timer1
000045cc l     F RO_DATA	00000050 resume
0040104c l     O ZI_DATA	00000004 resume_sync
00401050 l     O ZI_DATA	00000004 paused
0000461c l     F RO_DATA	0000006c clean_up
00401028 l     O ZI_DATA	00000004 old_vector
00401024 l     O ZI_DATA	00000004 old_select
00401020 l     O ZI_DATA	00000004 old_enable
00400ac0 l     O ZI_DATA	00000320 task_queue
0040102c l     O ZI_DATA	00000004 timer_phase
000046b0 l     F RO_DATA	000003e0 start
0040101c l     O ZI_DATA	00000004 user_int_select
0040000c l     O RW_DATA	00000004 fiq_event
00401054 l     O ZI_DATA	00000004 run
00401018 l     O ZI_DATA	00000004 highest_priority
00400008 l     O RW_DATA	00000004 mc_pkt_prio
00400004 l     O RW_DATA	00000004 fr_pkt_prio
00005658 l     O RO_DATA	00000020 VIC_EVENTS
00000000 l    df *ABS*	00000000 spin1_isr.c
00000000 l    df *ABS*	00000000 _thumb1_case_sqi.o
00000000 l    df *ABS*	00000000 _thumb1_case_shi.o
00000000 l    df *ABS*	00000000 _divsi3.o
00005290 l       RO_DATA	00000000 .divsi3_skip_div0_test
00000000 l    df *ABS*	00000000 memcpy-stub.c
00000000 l    df *ABS*	00000000 coral_reef_build.c
00401030 g     O ZI_DATA	00000004 time_to_next_drift_update
00002108 g     F RO_DATA	000000e8 cra_state_read_context
00004b60 g     F RO_DATA	0000000a spin1_start
000001d8 g     F RO_DATA	00000000 sark_lock_get
00004cdc g     F RO_DATA	00000030 sark_pre_main
00001f18 g     F RO_DATA	0000003c cra_state_reset
0000064c g     F RO_DATA	00000044 neuron_mgr_init
0000363c g     F RO_DATA	00000034 sark_shmsg_get
00004dc4 g     F RO_DATA	00000074 cc_fr_ready_isr
000001a8 g     F RO_DATA	00000000 spin1_int_enable
00000040 g       *ABS*	00000000 RO_FROM
00000800 g       *ABS*	00000000 STACK_SIZE
00000352 g     F RO_DATA	00000000 sark_bx
00003ebc g     F RO_DATA	000000a4 sark_xfree
000017b0 g     F RO_DATA	00000128 synapse_reset_all
00004a90 g     F RO_DATA	000000bc spin1_callback_on
00002df8 g     F RO_DATA	000000f8 sdp_rx_callback
00000880 g     F RO_DATA	0000006c neuron_find
000018fc g     F RO_DATA	00000024 synapse_active_trace_count
00002214 g     F RO_DATA	00000040 cra_state_set_readout
0000025c g     F RO_DATA	00000000 sark_msg_cpy
00003ba4 g     F RO_DATA	0000004c event_alloc
000035cc g     F RO_DATA	0000001e sark_block_init
0000500c g     F RO_DATA	00000140 timer1_isr
00003d90 g     F RO_DATA	00000028 sark_fiq_han
00000010 g       *ABS*	00000000 APLX_ENTRY
0000361c g     F RO_DATA	00000020 sark_msg_free
0000518c g     F RO_DATA	0000006c soft_int_isr
0000401c g     F RO_DATA	000000a4 rtr_free
000032e8 g     F RO_DATA	00000154 router_add_neuron
000005c8 g     F RO_DATA	00000084 c_main
0000343c g     F RO_DATA	000000b8 router_remove_neuron
0000399c g     F RO_DATA	0000016c sark_int
00001944 g     F RO_DATA	00000024 synapse_last_decay_visit_count
000002f0 g     F RO_DATA	00000000 sark_int_han
00000abc g     F RO_DATA	00000024 neuron_list_head
00003b08 g     F RO_DATA	00000058 event_wait
000053d0 g     F RO_DATA	00000114 memcpy
00003986 g     F RO_DATA	00000014 sark_wait
000001c8 g     F RO_DATA	00000000 spin1_mode_restore
00003978 g     F RO_DATA	0000000e sark_cmd_fill
00004010 g     F RO_DATA	0000000c rtr_alloc
00003c04 g     F RO_DATA	00000050 sark_vic_init
00004f94 g     F RO_DATA	00000078 dma_done_fiqsr
0000016c g     F RO_DATA	00000000 cpu_shutdown
00401040 g     O ZI_DATA	00000004 timer_tick_clocks
00400014 g     O ZI_DATA	00000004 g_dopamine_level
000001c8 g     F RO_DATA	00000000 cpu_int_restore
00400a34 g     O ZI_DATA	0000004c diagnostics
00410000 g       *ABS*	00000000 STACK_TOP
0040105c g       ZI_DATA	00000000 HEAP_BASE
00003db8 g     F RO_DATA	000000ec sark_xalloc
00000ae0 g     F RO_DATA	00000068 neuron_reset_all
00400000 g     O RW_DATA	00000004 g_app_id
000032a4 g     F RO_DATA	00000044 router_init
0000093c g     F RO_DATA	0000015c neuron_update_all
00000354 g     F RO_DATA	00000000 __gnu_thumb1_case_uqi
00000570 g     F RO_DATA	00000058 emit_spike
000012b4 g     F RO_DATA	00000138 synapse_create
00400010 g     O ZI_DATA	00000004 g_timestep
00003670 g     F RO_DATA	00000024 sark_shmsg_free
00000324 g     F RO_DATA	00000000 schedule
00004e70 g     F RO_DATA	00000094 cc_tx_empty_isr
0000012c g     F RO_DATA	00000000 rt_error
000025cc g     F RO_DATA	00000120 cra_state_mature_pending_horizons
00003cc0 g     F RO_DATA	00000058 rtr_mc_clear
0040103c g     O ZI_DATA	00000004 drift
00004d8c g     F RO_DATA	00000038 cc_rx_ready_fiqsr
00000a98 g     F RO_DATA	00000024 neuron_count
00002710 g     F RO_DATA	0000004c cra_state_get_summary
000035a8 g     F RO_DATA	00000010 sark_cpu_state
00003bf0 g     F RO_DATA	00000014 timer_cancel_init
00400de0 g     O ZI_DATA	00000028 user_event_queue
00004d0c g     F RO_DATA	0000000a sark_post_main
000056a8 g       *ABS*	00000000 RW_FROM
00000690 g     F RO_DATA	0000013c neuron_birth
00005288 g     F RO_DATA	00000000 .hidden __aeabi_idiv
00002ef0 g     F RO_DATA	00000258 host_if_pack_state_summary
00000000 g       RO_DATA	00000000 cpu_reset
000002c0 g     F RO_DATA	00000000 sark_div10
000022ec g     F RO_DATA	00000044 cra_state_record_reward
00000108 g       RO_DATA	00000000 vic_error
00400000 g       *ABS*	00000000 DTCM_BASE
00005274 g     F RO_DATA	00000014 .hidden __gnu_thumb1_case_shi
000021f0 g     F RO_DATA	00000024 cra_state_active_slot_count
00003c94 g     F RO_DATA	0000002c v2p_mask
000054e8 g     O RO_DATA	0000000b build_name
00000350  w    F RO_DATA	00000000 sark_config
0000524c g     F RO_DATA	00000014 sark_fiqsr
00003b60 g     F RO_DATA	0000002c event_pause
00003f60 g     F RO_DATA	00000014 sark_free
000054e4 g     O RO_DATA	00000004 build_date
000001fc g     F RO_DATA	00000000 sark_lock_free
00003ea4 g     F RO_DATA	00000018 sark_alloc
00400000 g       *ABS*	00000000 RW_BASE
00004b6c g     F RO_DATA	000000f4 spin1_send_packet
00000010 g       ZI_DATA	00000000 RW_LENGTH
0000143c g     F RO_DATA	000000d8 synapse_deliver_spike
0000356c g     F RO_DATA	00000024 router_route_count
000051f8 g     F RO_DATA	00000054 soft_int_fiqsr
00000190 g     F RO_DATA	00000000 cpu_init_mode
00001920 g     F RO_DATA	00000024 synapse_last_delivery_visit_count
0000026c g     F RO_DATA	00000000 sark_word_cpy
00000040 g       *ABS*	00000000 APLX_SIZE
000024bc g     F RO_DATA	00000110 cra_state_schedule_pending_horizon
000019f4 g     F RO_DATA	00000068 synapse_get_eligibility_trace
0000017c g     F RO_DATA	00000000 cpu_sleep
00401058 g     O ZI_DATA	00000001 leadAp
000008ec g     F RO_DATA	00000050 neuron_add_input
00002298 g     F RO_DATA	00000054 cra_state_record_decision
00400934 g     O ZI_DATA	0000003c sark
000037e0 g     F RO_DATA	00000090 sark_msg_send
000001d0 g     F RO_DATA	00000000 spin1_wfi
00002de0 g     F RO_DATA	00000018 host_if_init
00003870 g     F RO_DATA	00000050 sark_cmd_ver
00401034 g     O ZI_DATA	00000004 drift_accum
000001d0 g     F RO_DATA	00000000 cpu_wfi
00003b8c g     F RO_DATA	00000018 event_stop
0000198c g     F RO_DATA	00000068 synapse_get_weight
000001b8 g     F RO_DATA	00000000 cpu_int_disable
00003c54 g     F RO_DATA	00000040 sark_vic_set
00000210 g     F RO_DATA	00000000 sark_mem_cpy
00003f74 g     F RO_DATA	0000001e sark_heap_init
00004e38 g     F RO_DATA	00000038 cc_fr_ready_fiqsr
00400970 g     O ZI_DATA	00000098 event
000054e4 g       RO_DATA	00000000 __init_array_end
0000391e g     F RO_DATA	0000005a sark_cmd_write
00004d18 g     F RO_DATA	00000074 cc_rx_ready_isr
00005288 g     F RO_DATA	00000128 .hidden __divsi3
000036b0  w    F RO_DATA	00000130 sark_init
00001514 g     F RO_DATA	0000010c synapse_decay_traces_all
00003590  w    F RO_DATA	0000000c rte_handler
00000364 g     F RO_DATA	00000000 sark_aplx
000042a8 g     F RO_DATA	0000028c io_printf
00400ed0 g     O ZI_DATA	00000148 dma_queue
00000238 g     F RO_DATA	00000000 sark_word_set
000007cc g     F RO_DATA	000000b4 neuron_death
00004f04 g     F RO_DATA	00000090 dma_done_isr
00401048 g     O ZI_DATA	00000004 ticks
00001620 g     F RO_DATA	000000ac synapse_modulate_all
00001968 g     F RO_DATA	00000024 synapse_last_modulation_visit_count
00003148 g     F RO_DATA	000000f0 sdp_send_reply
00000320 g     F RO_DATA	00000000 null_int_han
00004c60 g     F RO_DATA	0000007c schedule_sysmode
00003f94 g     F RO_DATA	0000007c rtr_alloc_id
000016cc g     F RO_DATA	000000e4 synapse_remove_incident
0000514c g     F RO_DATA	00000040 timer1_fiqsr
000034f4 g     F RO_DATA	00000078 router_reset_all
000013ec g     F RO_DATA	00000050 synapse_remove
00401038 g     O ZI_DATA	00000004 drift_sign
00000224 g     F RO_DATA	00000000 sark_str_cpy
00004688 g     F RO_DATA	00000028 resume_wait
00003d18 g     F RO_DATA	00000078 rtr_mc_set
00002330 g     F RO_DATA	000000ac cra_state_apply_reward_to_readout
00400010 g       *ABS*	00000000 ZI_BASE
00000000 g       *ABS*	00000000 RO_BASE
00005260 g     F RO_DATA	00000012 .hidden __gnu_thumb1_case_sqi
000001a8 g     F RO_DATA	00000000 cpu_int_enable
000035b8 g     F RO_DATA	00000014 sark_app_lead
0000359c g     F RO_DATA	0000000c sark_core_id
000026ec g     F RO_DATA	00000024 cra_state_active_pending_count
00401044 g     O ZI_DATA	00000004 timer_tick
00000000 g       *ABS*	00000000 ITCM_BASE
000018d8 g     F RO_DATA	00000024 synapse_count
0000054c g     F RO_DATA	00000024 get_app_id
000054e4 g       RO_DATA	00000000 __init_array_start
00004534 g     F RO_DATA	0000000c __aeabi_idiv0
00400a80 g     O ZI_DATA	00000040 callback
00004b4c g     F RO_DATA	00000014 spin1_set_timer_tick_and_phase
00003694 g     F RO_DATA	0000001c sark_call_cpp_constructors
00001ef8 g     F RO_DATA	00000020 cra_state_init
00004100 g     F RO_DATA	000000e8 io_put_char
00002254 g     F RO_DATA	00000044 cra_state_predict_readout
000053b0 g     F RO_DATA	00000020 .hidden __aeabi_idivmod
000001b8 g     F RO_DATA	00000000 spin1_int_disable
00001f54 g     F RO_DATA	000001b4 cra_state_write_context
000038c0 g     F RO_DATA	0000005e sark_cmd_read
0000104c g       *ABS*	00000000 ZI_LENGTH
00005678 g       RW_DATA	00000000 RO_LENGTH
000035ec g     F RO_DATA	00000030 sark_msg_get
00400e08 g     O ZI_DATA	000000c8 tx_packet_queue



Disassembly of section RO_DATA:

00000000 <cpu_reset>:
       0:	e59ff018 	ldr	pc, [pc, #24]	@ 20 <reset_vec>

00000004 <undef>:
       4:	e59ff018 	ldr	pc, [pc, #24]	@ 24 <undef_vec>
       8:	e59ff018 	ldr	pc, [pc, #24]	@ 28 <svc_vec>
       c:	e59ff018 	ldr	pc, [pc, #24]	@ 2c <pabt_vec>
      10:	e59ff018 	ldr	pc, [pc, #24]	@ 30 <dabt_vec>
      14:	ebfffffa 	bl	4 <undef>
      18:	e51ffff0 	ldr	pc, [pc, #-4080]	@ fffff030 <ROM_TOP+0x9ff7030>
      1c:	e59ff018 	ldr	pc, [pc, #24]	@ 3c <fiq_vec>

00000020 <reset_vec>:
      20:	00000078 	.word	0x00000078

00000024 <undef_vec>:
      24:	000000d8 	.word	0x000000d8

00000028 <svc_vec>:
      28:	000000e0 	.word	0x000000e0

0000002c <pabt_vec>:
      2c:	000000e8 	.word	0x000000e8

00000030 <dabt_vec>:
      30:	000000f0 	.word	0x000000f0

00000034 <aplx_proc>:
      34:	00000365 	.word	0x00000365

00000038 <irq_vec>:
      38:	000000f8 	.word	0x000000f8

0000003c <fiq_vec>:
      3c:	00000100 	.word	0x00000100

00000040 <svc_stack>:
      40:	0060      	.short	0x0060

00000042 <irq_stack>:
      42:	0040      	.short	0x0040

00000044 <fiq_stack>:
      44:	0040      	.short	0x0040

00000046 <stack_size>:
      46:	0800      	.short	0x0800

00000048 <code_top>:
      48:	00005678 	.word	0x00005678

0000004c <heap_base>:
      4c:	0040105c 	.word	0x0040105c

00000050 <stack_top>:
      50:	00410000 	.word	0x00410000

00000054 <stack_fill>:
      54:	deaddead 	.word	0xdeaddead

00000058 <num_msgs>:
      58:	04          	.byte	0x04

00000059 <sark_slot>:
      59:	0f          	.byte	0x0f

0000005a <num_events>:
      5a:	10          	.byte	0x10

0000005b <api>:
	...

0000005c <app_id>:
	...

0000005d <app_flags>:
	...

0000005e <__PAD>:
	...

00000060 <event_vec>:
	...

00000078 <reset_entry>:
      78:	e24f1060 	sub	r1, pc, #96	@ 0x60
      7c:	e1c103bc 	strh	r0, [r1, #60]	@ 0x3c
      80:	e28f0048 	add	r0, pc, #72	@ 0x48
      84:	e5810000 	str	r0, [r1]
      88:	e59f00f4 	ldr	r0, [pc, #244]	@ 184 <DMA_CRCT+0x4>
      8c:	ee010f10 	mcr	15, 0, r0, cr1, cr0, {0}
      90:	e321f0d3 	msr	CPSR_c, #211	@ 0xd3
      94:	e3a0d902 	mov	sp, #32768	@ 0x8000
      98:	fa0000ac 	blx	350 <sark_config>
      9c:	e51fd054 	ldr	sp, [pc, #-84]	@ 50 <stack_top>
      a0:	e15f26b2 	ldrh	r2, [pc, #-98]	@ 46 <stack_size>
      a4:	e51f1058 	ldr	r1, [pc, #-88]	@ 54 <stack_fill>
      a8:	e04d0002 	sub	r0, sp, r2
      ac:	eb000061 	bl	238 <sark_word_set>
      b0:	e1a0000d 	mov	r0, sp
      b4:	fa000d7d 	blx	36b0 <sark_init>
      b8:	e121f000 	msr	CPSR_c, r0
      bc:	fb000e30 	blx	3986 <sark_wait>
      c0:	fa001305 	blx	4cdc <sark_pre_main>
      c4:	eb00013f 	bl	5c8 <c_main>
      c8:	fa00130f 	blx	4d0c <sark_post_main>
      cc:	eb00002a 	bl	17c <cpu_sleep>

000000d0 <reset_error>:
      d0:	e3a00001 	mov	r0, #1
      d4:	ea000014 	b	12c <rt_error>

000000d8 <undef_error>:
      d8:	e3a0b002 	mov	fp, #2
      dc:	ea00000c 	b	114 <exc_error>

000000e0 <svc_error>:
      e0:	e3a0b003 	mov	fp, #3
      e4:	ea00000a 	b	114 <exc_error>

000000e8 <pabt_error>:
      e8:	e3a0b004 	mov	fp, #4
      ec:	ea000008 	b	114 <exc_error>

000000f0 <dabt_error>:
      f0:	e3a0b005 	mov	fp, #5
      f4:	ea000006 	b	114 <exc_error>

000000f8 <irq_error>:
      f8:	e3a0b006 	mov	fp, #6
      fc:	ea000004 	b	114 <exc_error>

00000100 <fiq_error>:
     100:	e3a0b007 	mov	fp, #7
     104:	ea000002 	b	114 <exc_error>

00000108 <vic_error>:
     108:	e3a0b008 	mov	fp, #8
     10c:	e3a0042f 	mov	r0, #788529152	@ 0x2f000000
     110:	e5900030 	ldr	r0, [r0, #48]	@ 0x30

00000114 <exc_error>:
     114:	e1a0a00e 	mov	sl, lr
     118:	e14f8000 	mrs	r8, SPSR
     11c:	e38890c0 	orr	r9, r8, #192	@ 0xc0
     120:	e3c99020 	bic	r9, r9, #32
     124:	e12ff009 	msr	CPSR_fsxc, r9
     128:	ea000002 	b	138 <cc_error>

0000012c <rt_error>:
     12c:	e1a0b000 	mov	fp, r0
     130:	e10f8000 	mrs	r8, CPSR
     134:	e1a0a00e 	mov	sl, lr

00000138 <cc_error>:
     138:	e59fc048 	ldr	ip, [pc, #72]	@ 188 <DMA_CRCT+0x8>
     13c:	e59cc000 	ldr	ip, [ip]
     140:	e3a09080 	mov	r9, #128	@ 0x80
     144:	e59fe040 	ldr	lr, [pc, #64]	@ 18c <DMA_CRCT+0xc>
     148:	e02ee99c 	mla	lr, ip, r9, lr
     14c:	e1a0900d 	mov	r9, sp
     150:	e88e07ff 	stm	lr, {r0, r1, r2, r3, r4, r5, r6, r7, r8, r9, sl}
     154:	e5ceb02c 	strb	fp, [lr, #44]	@ 0x2c
     158:	e3a08002 	mov	r8, #2
     15c:	e5ce802e 	strb	r8, [lr, #46]	@ 0x2e
     160:	e1a0000b 	mov	r0, fp
     164:	e321f0d3 	msr	CPSR_c, #211	@ 0xd3
     168:	fa000d08 	blx	3590 <rte_handler>

0000016c <cpu_shutdown>:
     16c:	e321f0d3 	msr	CPSR_c, #211	@ 0xd3
     170:	e3a0042f 	mov	r0, #788529152	@ 0x2f000000
     174:	e3e01000 	mvn	r1, #0
     178:	e5801014 	str	r1, [r0, #20]

0000017c <cpu_sleep>:
     17c:	ee070f90 	mcr	15, 0, r0, cr7, cr0, {4}
     180:	eafffffd 	b	17c <cpu_sleep>
     184:	00001f7e 	.word	0x00001f7e
     188:	00400934 	.word	0x00400934
     18c:	e5007000 	.word	0xe5007000

00000190 <cpu_init_mode>:
     190:	e10f3000 	mrs	r3, CPSR
     194:	e121f001 	msr	CPSR_c, r1
     198:	e1a0d000 	mov	sp, r0
     19c:	e12ff003 	msr	CPSR_fsxc, r3
     1a0:	e0400102 	sub	r0, r0, r2, lsl #2
     1a4:	e12fff1e 	bx	lr

000001a8 <cpu_int_enable>:
     1a8:	e10f0000 	mrs	r0, CPSR
     1ac:	e3c010c0 	bic	r1, r0, #192	@ 0xc0
     1b0:	e121f001 	msr	CPSR_c, r1
     1b4:	e12fff1e 	bx	lr

000001b8 <cpu_int_disable>:
     1b8:	e10f0000 	mrs	r0, CPSR
     1bc:	e38010c0 	orr	r1, r0, #192	@ 0xc0
     1c0:	e121f001 	msr	CPSR_c, r1
     1c4:	e12fff1e 	bx	lr

000001c8 <cpu_int_restore>:
     1c8:	e12ff000 	msr	CPSR_fsxc, r0
     1cc:	e12fff1e 	bx	lr

000001d0 <cpu_wfi>:
     1d0:	ee070f90 	mcr	15, 0, r0, cr7, cr0, {4}
     1d4:	e12fff1e 	bx	lr

000001d8 <sark_lock_get>:
     1d8:	e3a0c4e2 	mov	ip, #-503316480	@ 0xe2000000
     1dc:	e08cc100 	add	ip, ip, r0, lsl #2
     1e0:	e10f0000 	mrs	r0, CPSR
     1e4:	e38010c0 	orr	r1, r0, #192	@ 0xc0
     1e8:	e121f001 	msr	CPSR_c, r1

000001ec <lg1>:
     1ec:	e59c1100 	ldr	r1, [ip, #256]	@ 0x100
     1f0:	e3110102 	tst	r1, #-2147483648	@ 0x80000000
     1f4:	1afffffc 	bne	1ec <lg1>
     1f8:	e12fff1e 	bx	lr

000001fc <sark_lock_free>:
     1fc:	e3a0c4e2 	mov	ip, #-503316480	@ 0xe2000000
     200:	e08c1101 	add	r1, ip, r1, lsl #2
     204:	e5911180 	ldr	r1, [r1, #384]	@ 0x180
     208:	e121f000 	msr	CPSR_c, r0
     20c:	e12fff1e 	bx	lr

00000210 <sark_mem_cpy>:
     210:	e2522001 	subs	r2, r2, #1
     214:	24d13001 	ldrbcs	r3, [r1], #1
     218:	24c03001 	strbcs	r3, [r0], #1
     21c:	2afffffb 	bcs	210 <sark_mem_cpy>
     220:	e12fff1e 	bx	lr

00000224 <sark_str_cpy>:
     224:	e4d12001 	ldrb	r2, [r1], #1
     228:	e3520000 	cmp	r2, #0
     22c:	e4c02001 	strb	r2, [r0], #1
     230:	1afffffb 	bne	224 <sark_str_cpy>
     234:	e12fff1e 	bx	lr

00000238 <sark_word_set>:
     238:	e1a03001 	mov	r3, r1

0000023c <ws1>:
     23c:	e2522010 	subs	r2, r2, #16
     240:	28a0000a 	stmiacs	r0!, {r1, r3}
     244:	28a0000a 	stmiacs	r0!, {r1, r3}
     248:	2afffffb 	bcs	23c <ws1>
     24c:	e1b02e82 	lsls	r2, r2, #29
     250:	28a0000a 	stmiacs	r0!, {r1, r3}
     254:	48a00002 	stmiami	r0!, {r1}
     258:	e12fff1e 	bx	lr

0000025c <sark_msg_cpy>:
     25c:	e2800004 	add	r0, r0, #4
     260:	e2811004 	add	r1, r1, #4
     264:	e1d120b0 	ldrh	r2, [r1]
     268:	e2822004 	add	r2, r2, #4

0000026c <sark_word_cpy>:
     26c:	e3120003 	tst	r2, #3
     270:	13c22003 	bicne	r2, r2, #3
     274:	12822004 	addne	r2, r2, #4
     278:	e92d4010 	push	{r4, lr}
     27c:	e2522020 	subs	r2, r2, #32
     280:	3a000005 	bcc	29c <wc2>

00000284 <wc1>:
     284:	e8b15018 	ldm	r1!, {r3, r4, ip, lr}
     288:	e8a05018 	stmia	r0!, {r3, r4, ip, lr}
     28c:	e8b15018 	ldm	r1!, {r3, r4, ip, lr}
     290:	e8a05018 	stmia	r0!, {r3, r4, ip, lr}
     294:	e2522020 	subs	r2, r2, #32
     298:	2afffff9 	bcs	284 <wc1>

0000029c <wc2>:
     29c:	e1b0ce02 	lsls	ip, r2, #28
     2a0:	28b15018 	ldmcs	r1!, {r3, r4, ip, lr}
     2a4:	28a05018 	stmiacs	r0!, {r3, r4, ip, lr}
     2a8:	48b10018 	ldmmi	r1!, {r3, r4}
     2ac:	48a00018 	stmiami	r0!, {r3, r4}
     2b0:	e1b0cf02 	lsls	ip, r2, #30
     2b4:	24913004 	ldrcs	r3, [r1], #4
     2b8:	24803004 	strcs	r3, [r0], #4
     2bc:	e8bd8010 	pop	{r4, pc}

000002c0 <sark_div10>:
     2c0:	e241200a 	sub	r2, r1, #10
     2c4:	e0411121 	sub	r1, r1, r1, lsr #2
     2c8:	e0811221 	add	r1, r1, r1, lsr #4
     2cc:	e0811421 	add	r1, r1, r1, lsr #8
     2d0:	e0811821 	add	r1, r1, r1, lsr #16
     2d4:	e1a011a1 	lsr	r1, r1, #3
     2d8:	e0813101 	add	r3, r1, r1, lsl #2
     2dc:	e0522083 	subs	r2, r2, r3, lsl #1
     2e0:	52811001 	addpl	r1, r1, #1
     2e4:	4282200a 	addmi	r2, r2, #10
     2e8:	e8800006 	stm	r0, {r1, r2}
     2ec:	e12fff1e 	bx	lr

000002f0 <sark_int_han>:
     2f0:	e92d500f 	push	{r0, r1, r2, r3, ip, lr}
     2f4:	e24e0004 	sub	r0, lr, #4
     2f8:	e14fc000 	mrs	ip, SPSR
     2fc:	e321f01f 	msr	CPSR_c, #31
     300:	e92d5000 	push	{ip, lr}
     304:	fa000da4 	blx	399c <sark_int>
     308:	e8bd5000 	pop	{ip, lr}
     30c:	e321f092 	msr	CPSR_c, #146	@ 0x92
     310:	e16ff00c 	msr	SPSR_fsxc, ip
     314:	e3a0042f 	mov	r0, #788529152	@ 0x2f000000
     318:	e5800030 	str	r0, [r0, #48]	@ 0x30
     31c:	e8bd500f 	pop	{r0, r1, r2, r3, ip, lr}

00000320 <null_int_han>:
     320:	e25ef004 	subs	pc, lr, #4

00000324 <schedule>:
     324:	e92d5000 	push	{ip, lr}
     328:	e10fc000 	mrs	ip, CPSR
     32c:	e3cce01f 	bic	lr, ip, #31
     330:	e38ee01f 	orr	lr, lr, #31
     334:	e121f00e 	msr	CPSR_c, lr
     338:	e92d5000 	push	{ip, lr}
     33c:	fa001247 	blx	4c60 <schedule_sysmode>
     340:	e8bd5000 	pop	{ip, lr}
     344:	e121f00c 	msr	CPSR_c, ip
     348:	e8bd5000 	pop	{ip, lr}
     34c:	e12fff1e 	bx	lr

00000350 <sark_config>:
     350:	4770      	bx	lr

00000352 <sark_bx>:
     352:	4700      	bx	r0

00000354 <__gnu_thumb1_case_uqi>:
     354:	468c      	mov	ip, r1
     356:	4671      	mov	r1, lr
     358:	3901      	subs	r1, #1
     35a:	5c09      	ldrb	r1, [r1, r0]
     35c:	0049      	lsls	r1, r1, #1
     35e:	448e      	add	lr, r1
     360:	4661      	mov	r1, ip
     362:	4770      	bx	lr

00000364 <sark_aplx>:
     364:	b5f2      	push	{r1, r4, r5, r6, r7, lr}
     366:	4905      	ldr	r1, [pc, #20]	@ (37c <aplx_buffer>)
     368:	a605      	add	r6, pc, #20	@ (adr r6, 380 <aplx_loader>)
     36a:	2740      	movs	r7, #64	@ 0x40

0000036c <aplx_l0>:
     36c:	ce3c      	ldmia	r6!, {r2, r3, r4, r5}
     36e:	c13c      	stmia	r1!, {r2, r3, r4, r5}
     370:	3f10      	subs	r7, #16
     372:	d1fb      	bne.n	36c <aplx_l0>
     374:	1c04      	adds	r4, r0, #0
     376:	393f      	subs	r1, #63	@ 0x3f
     378:	4708      	bx	r1
	...

0000037c <aplx_buffer>:
     37c:	00007fc0 	.word	0x00007fc0

00000380 <aplx_loader>:
     380:	cc0f      	ldmia	r4!, {r0, r1, r2, r3}
     382:	2801      	cmp	r0, #1
     384:	d008      	beq.n	398 <aplx_copy>
     386:	2802      	cmp	r0, #2
     388:	d004      	beq.n	394 <aplx_rcopy>
     38a:	2803      	cmp	r0, #3
     38c:	d00b      	beq.n	3a6 <aplx_fill>
     38e:	2804      	cmp	r0, #4
     390:	d011      	beq.n	3b6 <aplx_exec>
     392:	bdf2      	pop	{r1, r4, r5, r6, r7, pc}

00000394 <aplx_rcopy>:
     394:	1912      	adds	r2, r2, r4
     396:	3a10      	subs	r2, #16

00000398 <aplx_copy>:
     398:	cae1      	ldmia	r2!, {r0, r5, r6, r7}
     39a:	c1e1      	stmia	r1!, {r0, r5, r6, r7}
     39c:	cae1      	ldmia	r2!, {r0, r5, r6, r7}
     39e:	c1e1      	stmia	r1!, {r0, r5, r6, r7}
     3a0:	3b20      	subs	r3, #32
     3a2:	d8f9      	bhi.n	398 <aplx_copy>
     3a4:	e7ec      	b.n	380 <aplx_loader>

000003a6 <aplx_fill>:
     3a6:	1c1d      	adds	r5, r3, #0
     3a8:	1c1e      	adds	r6, r3, #0
     3aa:	1c1f      	adds	r7, r3, #0

000003ac <aplx_l1>:
     3ac:	c1e8      	stmia	r1!, {r3, r5, r6, r7}
     3ae:	c1e8      	stmia	r1!, {r3, r5, r6, r7}
     3b0:	3a20      	subs	r2, #32
     3b2:	d8fb      	bhi.n	3ac <aplx_l1>
     3b4:	e7e4      	b.n	380 <aplx_loader>

000003b6 <aplx_exec>:
     3b6:	9800      	ldr	r0, [sp, #0]
     3b8:	4788      	blx	r1
     3ba:	e7e1      	b.n	380 <aplx_loader>

000003bc <spin1_set_timer_tick>:
     3bc:	e92d4800 	push	{fp, lr}
     3c0:	e28db004 	add	fp, sp, #4
     3c4:	e24dd008 	sub	sp, sp, #8
     3c8:	e50b0008 	str	r0, [fp, #-8]
     3cc:	e3a01000 	mov	r1, #0
     3d0:	e51b0008 	ldr	r0, [fp, #-8]
     3d4:	fa0011dc 	blx	4b4c <spin1_set_timer_tick_and_phase>
     3d8:	e1a00000 	nop			@ (mov r0, r0)
     3dc:	e24bd004 	sub	sp, fp, #4
     3e0:	e8bd8800 	pop	{fp, pc}

000003e4 <spin1_send_mc_packet>:
     3e4:	e92d4800 	push	{fp, lr}
     3e8:	e28db004 	add	fp, sp, #4
     3ec:	e24dd018 	sub	sp, sp, #24
     3f0:	e50b0010 	str	r0, [fp, #-16]
     3f4:	e50b1014 	str	r1, [fp, #-20]	@ 0xffffffec
     3f8:	e50b2018 	str	r2, [fp, #-24]	@ 0xffffffe8
     3fc:	e51b3018 	ldr	r3, [fp, #-24]	@ 0xffffffe8
     400:	e3530000 	cmp	r3, #0
     404:	0a000001 	beq	410 <MC_TABLE_SIZE+0x10>
     408:	e3a03802 	mov	r3, #131072	@ 0x20000
     40c:	ea000000 	b	414 <MC_TABLE_SIZE+0x14>
     410:	e3a03000 	mov	r3, #0
     414:	e50b3008 	str	r3, [fp, #-8]
     418:	e51b2008 	ldr	r2, [fp, #-8]
     41c:	e51b1014 	ldr	r1, [fp, #-20]	@ 0xffffffec
     420:	e51b0010 	ldr	r0, [fp, #-16]
     424:	fa0011d0 	blx	4b6c <spin1_send_packet>
     428:	e1a03000 	mov	r3, r0
     42c:	e1a00003 	mov	r0, r3
     430:	e24bd004 	sub	sp, fp, #4
     434:	e8bd8800 	pop	{fp, pc}

00000438 <timer_callback>:
     438:	e92d4800 	push	{fp, lr}
     43c:	e28db004 	add	fp, sp, #4
     440:	e24dd008 	sub	sp, sp, #8
     444:	e50b0008 	str	r0, [fp, #-8]
     448:	e50b100c 	str	r1, [fp, #-12]
     44c:	e59f2064 	ldr	r2, [pc, #100]	@ 4b8 <timer_callback+0x80>
     450:	e51b3008 	ldr	r3, [fp, #-8]
     454:	e5823000 	str	r3, [r2]
     458:	e59f3058 	ldr	r3, [pc, #88]	@ 4b8 <timer_callback+0x80>
     45c:	e5933000 	ldr	r3, [r3]
     460:	e1a00003 	mov	r0, r3
     464:	eb000134 	bl	93c <neuron_update_all>
     468:	e59f304c 	ldr	r3, [pc, #76]	@ 4bc <timer_callback+0x84>
     46c:	e5933000 	ldr	r3, [r3]
     470:	e3530000 	cmp	r3, #0
     474:	0a00000a 	beq	4a4 <timer_callback+0x6c>
     478:	e59f303c 	ldr	r3, [pc, #60]	@ 4bc <timer_callback+0x84>
     47c:	e5933000 	ldr	r3, [r3]
     480:	e1a00003 	mov	r0, r3
     484:	eb000465 	bl	1620 <synapse_modulate_all>
     488:	e59f302c 	ldr	r3, [pc, #44]	@ 4bc <timer_callback+0x84>
     48c:	e5933000 	ldr	r3, [r3]
     490:	e1a00003 	mov	r0, r3
     494:	eb000794 	bl	22ec <cra_state_record_reward>
     498:	e59f301c 	ldr	r3, [pc, #28]	@ 4bc <timer_callback+0x84>
     49c:	e3a02000 	mov	r2, #0
     4a0:	e5832000 	str	r2, [r3]
     4a4:	e59f0014 	ldr	r0, [pc, #20]	@ 4c0 <timer_callback+0x88>
     4a8:	eb000419 	bl	1514 <synapse_decay_traces_all>
     4ac:	e1a00000 	nop			@ (mov r0, r0)
     4b0:	e24bd004 	sub	sp, fp, #4
     4b4:	e8bd8800 	pop	{fp, pc}
     4b8:	00400010 	.word	0x00400010
     4bc:	00400014 	.word	0x00400014
     4c0:	00007f5c 	.word	0x00007f5c

000004c4 <mc_packet_callback>:
     4c4:	e92d4800 	push	{fp, lr}
     4c8:	e28db004 	add	fp, sp, #4
     4cc:	e24dd010 	sub	sp, sp, #16
     4d0:	e50b0010 	str	r0, [fp, #-16]
     4d4:	e50b1014 	str	r1, [fp, #-20]	@ 0xffffffec
     4d8:	e51b3010 	ldr	r3, [fp, #-16]
     4dc:	e1a03c23 	lsr	r3, r3, #24
     4e0:	e50b3008 	str	r3, [fp, #-8]
     4e4:	e59f3030 	ldr	r3, [pc, #48]	@ 51c <mc_packet_callback+0x58>
     4e8:	e5933000 	ldr	r3, [r3]
     4ec:	e51b2008 	ldr	r2, [fp, #-8]
     4f0:	e1520003 	cmp	r2, r3
     4f4:	1a000005 	bne	510 <mc_packet_callback+0x4c>
     4f8:	e51b3010 	ldr	r3, [fp, #-16]
     4fc:	e3c334ff 	bic	r3, r3, #-16777216	@ 0xff000000
     500:	e50b300c 	str	r3, [fp, #-12]
     504:	e51b000c 	ldr	r0, [fp, #-12]
     508:	eb0003cb 	bl	143c <synapse_deliver_spike>
     50c:	ea000000 	b	514 <mc_packet_callback+0x50>
     510:	e1a00000 	nop			@ (mov r0, r0)
     514:	e24bd004 	sub	sp, fp, #4
     518:	e8bd8800 	pop	{fp, pc}
     51c:	00400000 	.word	0x00400000

00000520 <sdp_callback>:
     520:	e92d4800 	push	{fp, lr}
     524:	e28db004 	add	fp, sp, #4
     528:	e24dd008 	sub	sp, sp, #8
     52c:	e50b0008 	str	r0, [fp, #-8]
     530:	e50b100c 	str	r1, [fp, #-12]
     534:	e51b100c 	ldr	r1, [fp, #-12]
     538:	e51b0008 	ldr	r0, [fp, #-8]
     53c:	eb000a2d 	bl	2df8 <sdp_rx_callback>
     540:	e1a00000 	nop			@ (mov r0, r0)
     544:	e24bd004 	sub	sp, fp, #4
     548:	e8bd8800 	pop	{fp, pc}

0000054c <get_app_id>:
     54c:	e52db004 	push	{fp}		@ (str fp, [sp, #-4]!)
     550:	e28db000 	add	fp, sp, #0
     554:	e59f3010 	ldr	r3, [pc, #16]	@ 56c <get_app_id+0x20>
     558:	e5933000 	ldr	r3, [r3]
     55c:	e1a00003 	mov	r0, r3
     560:	e28bd000 	add	sp, fp, #0
     564:	e49db004 	pop	{fp}		@ (ldr fp, [sp], #4)
     568:	e12fff1e 	bx	lr
     56c:	00400000 	.word	0x00400000

00000570 <emit_spike>:
     570:	e92d4800 	push	{fp, lr}
     574:	e28db004 	add	fp, sp, #4
     578:	e24dd010 	sub	sp, sp, #16
     57c:	e50b0010 	str	r0, [fp, #-16]
     580:	e59f3038 	ldr	r3, [pc, #56]	@ 5c0 <SPARE_SIZE+0x20>
     584:	e5933000 	ldr	r3, [r3]
     588:	e1a02c03 	lsl	r2, r3, #24
     58c:	e51b3010 	ldr	r3, [fp, #-16]
     590:	e3c334ff 	bic	r3, r3, #-16777216	@ 0xff000000
     594:	e1823003 	orr	r3, r2, r3
     598:	e50b3008 	str	r3, [fp, #-8]
     59c:	e59f3020 	ldr	r3, [pc, #32]	@ 5c4 <SPARE_SIZE+0x24>
     5a0:	e5933000 	ldr	r3, [r3]
     5a4:	e3a02001 	mov	r2, #1
     5a8:	e1a01003 	mov	r1, r3
     5ac:	e51b0008 	ldr	r0, [fp, #-8]
     5b0:	ebffff8b 	bl	3e4 <spin1_send_mc_packet>
     5b4:	e1a00000 	nop			@ (mov r0, r0)
     5b8:	e24bd004 	sub	sp, fp, #4
     5bc:	e8bd8800 	pop	{fp, pc}
     5c0:	00400000 	.word	0x00400000
     5c4:	00400010 	.word	0x00400010

000005c8 <c_main>:
     5c8:	e92d4800 	push	{fp, lr}
     5cc:	e28db004 	add	fp, sp, #4
     5d0:	e3a00007 	mov	r0, #7
     5d4:	fa000bf3 	blx	35a8 <sark_cpu_state>
     5d8:	eb00001b 	bl	64c <neuron_mgr_init>
     5dc:	eb000645 	bl	1ef8 <cra_state_init>
     5e0:	eb000b2f 	bl	32a4 <router_init>
     5e4:	eb0009fd 	bl	2de0 <host_if_init>
     5e8:	e3a00ffa 	mov	r0, #1000	@ 0x3e8
     5ec:	ebffff72 	bl	3bc <spin1_set_timer_tick>
     5f0:	e3a02001 	mov	r2, #1
     5f4:	e59f1044 	ldr	r1, [pc, #68]	@ 640 <ETH_TX_SIZE+0x40>
     5f8:	e3a00002 	mov	r0, #2
     5fc:	fa001123 	blx	4a90 <spin1_callback_on>
     600:	e3a02000 	mov	r2, #0
     604:	e59f1038 	ldr	r1, [pc, #56]	@ 644 <ETH_TX_SIZE+0x44>
     608:	e3a00000 	mov	r0, #0
     60c:	fa00111f 	blx	4a90 <spin1_callback_on>
     610:	e3a02000 	mov	r2, #0
     614:	e59f1028 	ldr	r1, [pc, #40]	@ 644 <ETH_TX_SIZE+0x44>
     618:	e3a00005 	mov	r0, #5
     61c:	fa00111b 	blx	4a90 <spin1_callback_on>
     620:	e3a02000 	mov	r2, #0
     624:	e59f101c 	ldr	r1, [pc, #28]	@ 648 <ETH_TX_SIZE+0x48>
     628:	e3a00003 	mov	r0, #3
     62c:	fa001117 	blx	4a90 <spin1_callback_on>
     630:	e3a00000 	mov	r0, #0
     634:	fa001149 	blx	4b60 <spin1_start>
     638:	e1a00000 	nop			@ (mov r0, r0)
     63c:	e8bd8800 	pop	{fp, pc}
     640:	00000438 	.word	0x00000438
     644:	000004c4 	.word	0x000004c4
     648:	00000520 	.word	0x00000520

0000064c <neuron_mgr_init>:
     64c:	e92d4800 	push	{fp, lr}
     650:	e28db004 	add	fp, sp, #4
     654:	e59f3028 	ldr	r3, [pc, #40]	@ 684 <neuron_mgr_init+0x38>
     658:	e3a02000 	mov	r2, #0
     65c:	e5832000 	str	r2, [r3]
     660:	e59f3020 	ldr	r3, [pc, #32]	@ 688 <neuron_mgr_init+0x3c>
     664:	e3a02000 	mov	r2, #0
     668:	e5832000 	str	r2, [r3]
     66c:	ebffffb6 	bl	54c <get_app_id>
     670:	e1a03000 	mov	r3, r0
     674:	e59f2010 	ldr	r2, [pc, #16]	@ 68c <neuron_mgr_init+0x40>
     678:	e5823000 	str	r3, [r2]
     67c:	e1a00000 	nop			@ (mov r0, r0)
     680:	e8bd8800 	pop	{fp, pc}
     684:	00400018 	.word	0x00400018
     688:	0040001c 	.word	0x0040001c
     68c:	00400020 	.word	0x00400020

00000690 <neuron_birth>:
     690:	e92d4800 	push	{fp, lr}
     694:	e28db004 	add	fp, sp, #4
     698:	e24dd010 	sub	sp, sp, #16
     69c:	e50b0010 	str	r0, [fp, #-16]
     6a0:	e59f3110 	ldr	r3, [pc, #272]	@ 7b8 <neuron_birth+0x128>
     6a4:	e5933000 	ldr	r3, [r3]
     6a8:	e3530b01 	cmp	r3, #1024	@ 0x400
     6ac:	3a000001 	bcc	6b8 <neuron_birth+0x28>
     6b0:	e3a03000 	mov	r3, #0
     6b4:	ea00003c 	b	7ac <neuron_birth+0x11c>
     6b8:	e3a01034 	mov	r1, #52	@ 0x34
     6bc:	e3a00001 	mov	r0, #1
     6c0:	fa000df7 	blx	3ea4 <sark_alloc>
     6c4:	e1a03000 	mov	r3, r0
     6c8:	e50b3008 	str	r3, [fp, #-8]
     6cc:	e51b3008 	ldr	r3, [fp, #-8]
     6d0:	e3530000 	cmp	r3, #0
     6d4:	1a000001 	bne	6e0 <neuron_birth+0x50>
     6d8:	e3a03000 	mov	r3, #0
     6dc:	ea000032 	b	7ac <neuron_birth+0x11c>
     6e0:	e51b3008 	ldr	r3, [fp, #-8]
     6e4:	e51b2010 	ldr	r2, [fp, #-16]
     6e8:	e5832000 	str	r2, [r3]
     6ec:	e51b3008 	ldr	r3, [fp, #-8]
     6f0:	e59f20c4 	ldr	r2, [pc, #196]	@ 7bc <neuron_birth+0x12c>
     6f4:	e5832004 	str	r2, [r3, #4]
     6f8:	e51b3008 	ldr	r3, [fp, #-8]
     6fc:	e59f20bc 	ldr	r2, [pc, #188]	@ 7c0 <neuron_birth+0x130>
     700:	e5832008 	str	r2, [r3, #8]
     704:	e51b3008 	ldr	r3, [fp, #-8]
     708:	e59f20b4 	ldr	r2, [pc, #180]	@ 7c4 <neuron_birth+0x134>
     70c:	e583200c 	str	r2, [r3, #12]
     710:	e51b3008 	ldr	r3, [fp, #-8]
     714:	e59f20a0 	ldr	r2, [pc, #160]	@ 7bc <neuron_birth+0x12c>
     718:	e5832010 	str	r2, [r3, #16]
     71c:	e51b3008 	ldr	r3, [fp, #-8]
     720:	e3a02000 	mov	r2, #0
     724:	e5832014 	str	r2, [r3, #20]
     728:	e51b3008 	ldr	r3, [fp, #-8]
     72c:	e3a0280a 	mov	r2, #655360	@ 0xa0000
     730:	e5832018 	str	r2, [r3, #24]
     734:	e51b3008 	ldr	r3, [fp, #-8]
     738:	e3a02002 	mov	r2, #2
     73c:	e583201c 	str	r2, [r3, #28]
     740:	e51b3008 	ldr	r3, [fp, #-8]
     744:	e3a02000 	mov	r2, #0
     748:	e5832020 	str	r2, [r3, #32]
     74c:	e51b3008 	ldr	r3, [fp, #-8]
     750:	e3a02000 	mov	r2, #0
     754:	e5832024 	str	r2, [r3, #36]	@ 0x24
     758:	e51b3008 	ldr	r3, [fp, #-8]
     75c:	e3a02000 	mov	r2, #0
     760:	e5832028 	str	r2, [r3, #40]	@ 0x28
     764:	e51b3008 	ldr	r3, [fp, #-8]
     768:	e3a02000 	mov	r2, #0
     76c:	e583202c 	str	r2, [r3, #44]	@ 0x2c
     770:	e59f3050 	ldr	r3, [pc, #80]	@ 7c8 <neuron_birth+0x138>
     774:	e5932000 	ldr	r2, [r3]
     778:	e51b3008 	ldr	r3, [fp, #-8]
     77c:	e5832030 	str	r2, [r3, #48]	@ 0x30
     780:	e59f2040 	ldr	r2, [pc, #64]	@ 7c8 <neuron_birth+0x138>
     784:	e51b3008 	ldr	r3, [fp, #-8]
     788:	e5823000 	str	r3, [r2]
     78c:	e59f3024 	ldr	r3, [pc, #36]	@ 7b8 <neuron_birth+0x128>
     790:	e5933000 	ldr	r3, [r3]
     794:	e2833001 	add	r3, r3, #1
     798:	e59f2018 	ldr	r2, [pc, #24]	@ 7b8 <neuron_birth+0x128>
     79c:	e5823000 	str	r3, [r2]
     7a0:	e51b0010 	ldr	r0, [fp, #-16]
     7a4:	eb000acf 	bl	32e8 <router_add_neuron>
     7a8:	e51b3008 	ldr	r3, [fp, #-8]
     7ac:	e1a00003 	mov	r0, r3
     7b0:	e24bd004 	sub	sp, fp, #4
     7b4:	e8bd8800 	pop	{fp, pc}
     7b8:	0040001c 	.word	0x0040001c
     7bc:	ffdf8000 	.word	0xffdf8000
     7c0:	ffe48000 	.word	0xffe48000
     7c4:	ffdd0000 	.word	0xffdd0000
     7c8:	00400018 	.word	0x00400018

000007cc <neuron_death>:
     7cc:	e92d4800 	push	{fp, lr}
     7d0:	e28db004 	add	fp, sp, #4
     7d4:	e24dd010 	sub	sp, sp, #16
     7d8:	e50b0010 	str	r0, [fp, #-16]
     7dc:	e59f3094 	ldr	r3, [pc, #148]	@ 878 <STACK_SIZE+0x78>
     7e0:	e50b3008 	str	r3, [fp, #-8]
     7e4:	ea00001b 	b	858 <STACK_SIZE+0x58>
     7e8:	e51b3008 	ldr	r3, [fp, #-8]
     7ec:	e5933000 	ldr	r3, [r3]
     7f0:	e50b300c 	str	r3, [fp, #-12]
     7f4:	e51b300c 	ldr	r3, [fp, #-12]
     7f8:	e5933000 	ldr	r3, [r3]
     7fc:	e51b2010 	ldr	r2, [fp, #-16]
     800:	e1520003 	cmp	r2, r3
     804:	1a000010 	bne	84c <STACK_SIZE+0x4c>
     808:	e51b300c 	ldr	r3, [fp, #-12]
     80c:	e5932030 	ldr	r2, [r3, #48]	@ 0x30
     810:	e51b3008 	ldr	r3, [fp, #-8]
     814:	e5832000 	str	r2, [r3]
     818:	e51b0010 	ldr	r0, [fp, #-16]
     81c:	eb0003aa 	bl	16cc <synapse_remove_incident>
     820:	e51b0010 	ldr	r0, [fp, #-16]
     824:	eb000b04 	bl	343c <router_remove_neuron>
     828:	e51b000c 	ldr	r0, [fp, #-12]
     82c:	fa000dcb 	blx	3f60 <sark_free>
     830:	e59f3044 	ldr	r3, [pc, #68]	@ 87c <STACK_SIZE+0x7c>
     834:	e5933000 	ldr	r3, [r3]
     838:	e2433001 	sub	r3, r3, #1
     83c:	e59f2038 	ldr	r2, [pc, #56]	@ 87c <STACK_SIZE+0x7c>
     840:	e5823000 	str	r3, [r2]
     844:	e3a03000 	mov	r3, #0
     848:	ea000007 	b	86c <STACK_SIZE+0x6c>
     84c:	e51b300c 	ldr	r3, [fp, #-12]
     850:	e2833030 	add	r3, r3, #48	@ 0x30
     854:	e50b3008 	str	r3, [fp, #-8]
     858:	e51b3008 	ldr	r3, [fp, #-8]
     85c:	e5933000 	ldr	r3, [r3]
     860:	e3530000 	cmp	r3, #0
     864:	1affffdf 	bne	7e8 <neuron_death+0x1c>
     868:	e3e03000 	mvn	r3, #0
     86c:	e1a00003 	mov	r0, r3
     870:	e24bd004 	sub	sp, fp, #4
     874:	e8bd8800 	pop	{fp, pc}
     878:	00400018 	.word	0x00400018
     87c:	0040001c 	.word	0x0040001c

00000880 <neuron_find>:
     880:	e52db004 	push	{fp}		@ (str fp, [sp, #-4]!)
     884:	e28db000 	add	fp, sp, #0
     888:	e24dd014 	sub	sp, sp, #20
     88c:	e50b0010 	str	r0, [fp, #-16]
     890:	e59f3050 	ldr	r3, [pc, #80]	@ 8e8 <neuron_find+0x68>
     894:	e5933000 	ldr	r3, [r3]
     898:	e50b3008 	str	r3, [fp, #-8]
     89c:	ea000009 	b	8c8 <neuron_find+0x48>
     8a0:	e51b3008 	ldr	r3, [fp, #-8]
     8a4:	e5933000 	ldr	r3, [r3]
     8a8:	e51b2010 	ldr	r2, [fp, #-16]
     8ac:	e1520003 	cmp	r2, r3
     8b0:	1a000001 	bne	8bc <neuron_find+0x3c>
     8b4:	e51b3008 	ldr	r3, [fp, #-8]
     8b8:	ea000006 	b	8d8 <neuron_find+0x58>
     8bc:	e51b3008 	ldr	r3, [fp, #-8]
     8c0:	e5933030 	ldr	r3, [r3, #48]	@ 0x30
     8c4:	e50b3008 	str	r3, [fp, #-8]
     8c8:	e51b3008 	ldr	r3, [fp, #-8]
     8cc:	e3530000 	cmp	r3, #0
     8d0:	1afffff2 	bne	8a0 <neuron_find+0x20>
     8d4:	e3a03000 	mov	r3, #0
     8d8:	e1a00003 	mov	r0, r3
     8dc:	e28bd000 	add	sp, fp, #0
     8e0:	e49db004 	pop	{fp}		@ (ldr fp, [sp], #4)
     8e4:	e12fff1e 	bx	lr
     8e8:	00400018 	.word	0x00400018

000008ec <neuron_add_input>:
     8ec:	e92d4800 	push	{fp, lr}
     8f0:	e28db004 	add	fp, sp, #4
     8f4:	e24dd010 	sub	sp, sp, #16
     8f8:	e50b0010 	str	r0, [fp, #-16]
     8fc:	e50b1014 	str	r1, [fp, #-20]	@ 0xffffffec
     900:	e51b0010 	ldr	r0, [fp, #-16]
     904:	ebffffdd 	bl	880 <neuron_find>
     908:	e50b0008 	str	r0, [fp, #-8]
     90c:	e51b3008 	ldr	r3, [fp, #-8]
     910:	e3530000 	cmp	r3, #0
     914:	0a000005 	beq	930 <neuron_add_input+0x44>
     918:	e51b3008 	ldr	r3, [fp, #-8]
     91c:	e5932024 	ldr	r2, [r3, #36]	@ 0x24
     920:	e51b3014 	ldr	r3, [fp, #-20]	@ 0xffffffec
     924:	e0822003 	add	r2, r2, r3
     928:	e51b3008 	ldr	r3, [fp, #-8]
     92c:	e5832024 	str	r2, [r3, #36]	@ 0x24
     930:	e1a00000 	nop			@ (mov r0, r0)
     934:	e24bd004 	sub	sp, fp, #4
     938:	e8bd8800 	pop	{fp, pc}

0000093c <neuron_update_all>:
     93c:	e92d4800 	push	{fp, lr}
     940:	e28db004 	add	fp, sp, #4
     944:	e24dd010 	sub	sp, sp, #16
     948:	e50b0010 	str	r0, [fp, #-16]
     94c:	e59f3140 	ldr	r3, [pc, #320]	@ a94 <neuron_update_all+0x158>
     950:	e5933000 	ldr	r3, [r3]
     954:	e50b3008 	str	r3, [fp, #-8]
     958:	ea000046 	b	a78 <neuron_update_all+0x13c>
     95c:	e51b3008 	ldr	r3, [fp, #-8]
     960:	e5933020 	ldr	r3, [r3, #32]
     964:	e3530000 	cmp	r3, #0
     968:	0a000009 	beq	994 <neuron_update_all+0x58>
     96c:	e51b3008 	ldr	r3, [fp, #-8]
     970:	e5933020 	ldr	r3, [r3, #32]
     974:	e2432001 	sub	r2, r3, #1
     978:	e51b3008 	ldr	r3, [fp, #-8]
     97c:	e5832020 	str	r2, [r3, #32]
     980:	e51b3008 	ldr	r3, [fp, #-8]
     984:	e593200c 	ldr	r2, [r3, #12]
     988:	e51b3008 	ldr	r3, [fp, #-8]
     98c:	e5832004 	str	r2, [r3, #4]
     990:	ea000032 	b	a60 <neuron_update_all+0x124>
     994:	e51b3008 	ldr	r3, [fp, #-8]
     998:	e5932010 	ldr	r2, [r3, #16]
     99c:	e51b3008 	ldr	r3, [fp, #-8]
     9a0:	e5933004 	ldr	r3, [r3, #4]
     9a4:	e0423003 	sub	r3, r2, r3
     9a8:	e1a02783 	lsl	r2, r3, #15
     9ac:	e51b3008 	ldr	r3, [fp, #-8]
     9b0:	e5933018 	ldr	r3, [r3, #24]
     9b4:	e1a01003 	mov	r1, r3
     9b8:	e1a00002 	mov	r0, r2
     9bc:	eb001231 	bl	5288 <__divsi3>
     9c0:	e1a03000 	mov	r3, r0
     9c4:	e50b300c 	str	r3, [fp, #-12]
     9c8:	e51b3008 	ldr	r3, [fp, #-8]
     9cc:	e5932004 	ldr	r2, [r3, #4]
     9d0:	e51b3008 	ldr	r3, [fp, #-8]
     9d4:	e5931014 	ldr	r1, [r3, #20]
     9d8:	e51b300c 	ldr	r3, [fp, #-12]
     9dc:	e0811003 	add	r1, r1, r3
     9e0:	e51b3008 	ldr	r3, [fp, #-8]
     9e4:	e5933024 	ldr	r3, [r3, #36]	@ 0x24
     9e8:	e0813003 	add	r3, r1, r3
     9ec:	e0822003 	add	r2, r2, r3
     9f0:	e51b3008 	ldr	r3, [fp, #-8]
     9f4:	e5832004 	str	r2, [r3, #4]
     9f8:	e51b3008 	ldr	r3, [fp, #-8]
     9fc:	e5932004 	ldr	r2, [r3, #4]
     a00:	e51b3008 	ldr	r3, [fp, #-8]
     a04:	e5933008 	ldr	r3, [r3, #8]
     a08:	e1520003 	cmp	r2, r3
     a0c:	ba000013 	blt	a60 <neuron_update_all+0x124>
     a10:	e51b3008 	ldr	r3, [fp, #-8]
     a14:	e593200c 	ldr	r2, [r3, #12]
     a18:	e51b3008 	ldr	r3, [fp, #-8]
     a1c:	e5832004 	str	r2, [r3, #4]
     a20:	e51b3008 	ldr	r3, [fp, #-8]
     a24:	e593201c 	ldr	r2, [r3, #28]
     a28:	e51b3008 	ldr	r3, [fp, #-8]
     a2c:	e5832020 	str	r2, [r3, #32]
     a30:	e51b3008 	ldr	r3, [fp, #-8]
     a34:	e5933028 	ldr	r3, [r3, #40]	@ 0x28
     a38:	e2832001 	add	r2, r3, #1
     a3c:	e51b3008 	ldr	r3, [fp, #-8]
     a40:	e5832028 	str	r2, [r3, #40]	@ 0x28
     a44:	e51b3008 	ldr	r3, [fp, #-8]
     a48:	e51b2010 	ldr	r2, [fp, #-16]
     a4c:	e583202c 	str	r2, [r3, #44]	@ 0x2c
     a50:	e51b3008 	ldr	r3, [fp, #-8]
     a54:	e5933000 	ldr	r3, [r3]
     a58:	e1a00003 	mov	r0, r3
     a5c:	ebfffec3 	bl	570 <emit_spike>
     a60:	e51b3008 	ldr	r3, [fp, #-8]
     a64:	e3a02000 	mov	r2, #0
     a68:	e5832024 	str	r2, [r3, #36]	@ 0x24
     a6c:	e51b3008 	ldr	r3, [fp, #-8]
     a70:	e5933030 	ldr	r3, [r3, #48]	@ 0x30
     a74:	e50b3008 	str	r3, [fp, #-8]
     a78:	e51b3008 	ldr	r3, [fp, #-8]
     a7c:	e3530000 	cmp	r3, #0
     a80:	1affffb5 	bne	95c <neuron_update_all+0x20>
     a84:	e1a00000 	nop			@ (mov r0, r0)
     a88:	e1a00000 	nop			@ (mov r0, r0)
     a8c:	e24bd004 	sub	sp, fp, #4
     a90:	e8bd8800 	pop	{fp, pc}
     a94:	00400018 	.word	0x00400018

00000a98 <neuron_count>:
     a98:	e52db004 	push	{fp}		@ (str fp, [sp, #-4]!)
     a9c:	e28db000 	add	fp, sp, #0
     aa0:	e59f3010 	ldr	r3, [pc, #16]	@ ab8 <neuron_count+0x20>
     aa4:	e5933000 	ldr	r3, [r3]
     aa8:	e1a00003 	mov	r0, r3
     aac:	e28bd000 	add	sp, fp, #0
     ab0:	e49db004 	pop	{fp}		@ (ldr fp, [sp], #4)
     ab4:	e12fff1e 	bx	lr
     ab8:	0040001c 	.word	0x0040001c

00000abc <neuron_list_head>:
     abc:	e52db004 	push	{fp}		@ (str fp, [sp, #-4]!)
     ac0:	e28db000 	add	fp, sp, #0
     ac4:	e59f3010 	ldr	r3, [pc, #16]	@ adc <neuron_list_head+0x20>
     ac8:	e5933000 	ldr	r3, [r3]
     acc:	e1a00003 	mov	r0, r3
     ad0:	e28bd000 	add	sp, fp, #0
     ad4:	e49db004 	pop	{fp}		@ (ldr fp, [sp], #4)
     ad8:	e12fff1e 	bx	lr
     adc:	00400018 	.word	0x00400018

00000ae0 <neuron_reset_all>:
     ae0:	e92d4800 	push	{fp, lr}
     ae4:	e28db004 	add	fp, sp, #4
     ae8:	e24dd008 	sub	sp, sp, #8
     aec:	eb000a80 	bl	34f4 <router_reset_all>
     af0:	ea000008 	b	b18 <neuron_reset_all+0x38>
     af4:	e59f3044 	ldr	r3, [pc, #68]	@ b40 <neuron_reset_all+0x60>
     af8:	e5933000 	ldr	r3, [r3]
     afc:	e50b3008 	str	r3, [fp, #-8]
     b00:	e51b3008 	ldr	r3, [fp, #-8]
     b04:	e5933030 	ldr	r3, [r3, #48]	@ 0x30
     b08:	e59f2030 	ldr	r2, [pc, #48]	@ b40 <neuron_reset_all+0x60>
     b0c:	e5823000 	str	r3, [r2]
     b10:	e51b0008 	ldr	r0, [fp, #-8]
     b14:	fa000d11 	blx	3f60 <sark_free>
     b18:	e59f3020 	ldr	r3, [pc, #32]	@ b40 <neuron_reset_all+0x60>
     b1c:	e5933000 	ldr	r3, [r3]
     b20:	e3530000 	cmp	r3, #0
     b24:	1afffff2 	bne	af4 <neuron_reset_all+0x14>
     b28:	e59f3014 	ldr	r3, [pc, #20]	@ b44 <neuron_reset_all+0x64>
     b2c:	e3a02000 	mov	r2, #0
     b30:	e5832000 	str	r2, [r3]
     b34:	e1a00000 	nop			@ (mov r0, r0)
     b38:	e24bd004 	sub	sp, fp, #4
     b3c:	e8bd8800 	pop	{fp, pc}
     b40:	00400018 	.word	0x00400018
     b44:	0040001c 	.word	0x0040001c

00000b48 <_find_post>:
     b48:	e52db004 	push	{fp}		@ (str fp, [sp, #-4]!)
     b4c:	e28db000 	add	fp, sp, #0
     b50:	e24dd014 	sub	sp, sp, #20
     b54:	e50b0010 	str	r0, [fp, #-16]
     b58:	e59f3050 	ldr	r3, [pc, #80]	@ bb0 <_find_post+0x68>
     b5c:	e5933000 	ldr	r3, [r3]
     b60:	e50b3008 	str	r3, [fp, #-8]
     b64:	ea000009 	b	b90 <_find_post+0x48>
     b68:	e51b3008 	ldr	r3, [fp, #-8]
     b6c:	e5933000 	ldr	r3, [r3]
     b70:	e51b2010 	ldr	r2, [fp, #-16]
     b74:	e1520003 	cmp	r2, r3
     b78:	1a000001 	bne	b84 <_find_post+0x3c>
     b7c:	e51b3008 	ldr	r3, [fp, #-8]
     b80:	ea000006 	b	ba0 <_find_post+0x58>
     b84:	e51b3008 	ldr	r3, [fp, #-8]
     b88:	e5933008 	ldr	r3, [r3, #8]
     b8c:	e50b3008 	str	r3, [fp, #-8]
     b90:	e51b3008 	ldr	r3, [fp, #-8]
     b94:	e3530000 	cmp	r3, #0
     b98:	1afffff2 	bne	b68 <_find_post+0x20>
     b9c:	e3a03000 	mov	r3, #0
     ba0:	e1a00003 	mov	r0, r3
     ba4:	e28bd000 	add	sp, fp, #0
     ba8:	e49db004 	pop	{fp}		@ (ldr fp, [sp], #4)
     bac:	e12fff1e 	bx	lr
     bb0:	00400038 	.word	0x00400038

00000bb4 <_find_pre>:
     bb4:	e52db004 	push	{fp}		@ (str fp, [sp, #-4]!)
     bb8:	e28db000 	add	fp, sp, #0
     bbc:	e24dd014 	sub	sp, sp, #20
     bc0:	e50b0010 	str	r0, [fp, #-16]
     bc4:	e59f3050 	ldr	r3, [pc, #80]	@ c1c <ETH_RX_SIZE+0x1c>
     bc8:	e5933000 	ldr	r3, [r3]
     bcc:	e50b3008 	str	r3, [fp, #-8]
     bd0:	ea000009 	b	bfc <_find_pre+0x48>
     bd4:	e51b3008 	ldr	r3, [fp, #-8]
     bd8:	e5933000 	ldr	r3, [r3]
     bdc:	e51b2010 	ldr	r2, [fp, #-16]
     be0:	e1520003 	cmp	r2, r3
     be4:	1a000001 	bne	bf0 <_find_pre+0x3c>
     be8:	e51b3008 	ldr	r3, [fp, #-8]
     bec:	ea000006 	b	c0c <ETH_RX_SIZE+0xc>
     bf0:	e51b3008 	ldr	r3, [fp, #-8]
     bf4:	e5933008 	ldr	r3, [r3, #8]
     bf8:	e50b3008 	str	r3, [fp, #-8]
     bfc:	e51b3008 	ldr	r3, [fp, #-8]
     c00:	e3530000 	cmp	r3, #0
     c04:	1afffff2 	bne	bd4 <_find_pre+0x20>
     c08:	e3a03000 	mov	r3, #0
     c0c:	e1a00003 	mov	r0, r3
     c10:	e28bd000 	add	sp, fp, #0
     c14:	e49db004 	pop	{fp}		@ (ldr fp, [sp], #4)
     c18:	e12fff1e 	bx	lr
     c1c:	0040003c 	.word	0x0040003c

00000c20 <_find_or_create_post>:
     c20:	e92d4800 	push	{fp, lr}
     c24:	e28db004 	add	fp, sp, #4
     c28:	e24dd010 	sub	sp, sp, #16
     c2c:	e50b0010 	str	r0, [fp, #-16]
     c30:	e51b0010 	ldr	r0, [fp, #-16]
     c34:	ebffffc3 	bl	b48 <_find_post>
     c38:	e50b0008 	str	r0, [fp, #-8]
     c3c:	e51b3008 	ldr	r3, [fp, #-8]
     c40:	e3530000 	cmp	r3, #0
     c44:	0a000001 	beq	c50 <_find_or_create_post+0x30>
     c48:	e51b3008 	ldr	r3, [fp, #-8]
     c4c:	ea000017 	b	cb0 <_find_or_create_post+0x90>
     c50:	e3a0100c 	mov	r1, #12
     c54:	e3a00001 	mov	r0, #1
     c58:	fa000c91 	blx	3ea4 <sark_alloc>
     c5c:	e1a03000 	mov	r3, r0
     c60:	e50b3008 	str	r3, [fp, #-8]
     c64:	e51b3008 	ldr	r3, [fp, #-8]
     c68:	e3530000 	cmp	r3, #0
     c6c:	1a000001 	bne	c78 <_find_or_create_post+0x58>
     c70:	e3a03000 	mov	r3, #0
     c74:	ea00000d 	b	cb0 <_find_or_create_post+0x90>
     c78:	e51b3008 	ldr	r3, [fp, #-8]
     c7c:	e51b2010 	ldr	r2, [fp, #-16]
     c80:	e5832000 	str	r2, [r3]
     c84:	e51b3008 	ldr	r3, [fp, #-8]
     c88:	e3a02000 	mov	r2, #0
     c8c:	e5832004 	str	r2, [r3, #4]
     c90:	e59f3024 	ldr	r3, [pc, #36]	@ cbc <_find_or_create_post+0x9c>
     c94:	e5932000 	ldr	r2, [r3]
     c98:	e51b3008 	ldr	r3, [fp, #-8]
     c9c:	e5832008 	str	r2, [r3, #8]
     ca0:	e59f2014 	ldr	r2, [pc, #20]	@ cbc <_find_or_create_post+0x9c>
     ca4:	e51b3008 	ldr	r3, [fp, #-8]
     ca8:	e5823000 	str	r3, [r2]
     cac:	e51b3008 	ldr	r3, [fp, #-8]
     cb0:	e1a00003 	mov	r0, r3
     cb4:	e24bd004 	sub	sp, fp, #4
     cb8:	e8bd8800 	pop	{fp, pc}
     cbc:	00400038 	.word	0x00400038

00000cc0 <_find_or_create_pre>:
     cc0:	e92d4800 	push	{fp, lr}
     cc4:	e28db004 	add	fp, sp, #4
     cc8:	e24dd010 	sub	sp, sp, #16
     ccc:	e50b0010 	str	r0, [fp, #-16]
     cd0:	e51b0010 	ldr	r0, [fp, #-16]
     cd4:	ebffffb6 	bl	bb4 <_find_pre>
     cd8:	e50b0008 	str	r0, [fp, #-8]
     cdc:	e51b3008 	ldr	r3, [fp, #-8]
     ce0:	e3530000 	cmp	r3, #0
     ce4:	0a000001 	beq	cf0 <_find_or_create_pre+0x30>
     ce8:	e51b3008 	ldr	r3, [fp, #-8]
     cec:	ea000017 	b	d50 <_find_or_create_pre+0x90>
     cf0:	e3a0100c 	mov	r1, #12
     cf4:	e3a00001 	mov	r0, #1
     cf8:	fa000c69 	blx	3ea4 <sark_alloc>
     cfc:	e1a03000 	mov	r3, r0
     d00:	e50b3008 	str	r3, [fp, #-8]
     d04:	e51b3008 	ldr	r3, [fp, #-8]
     d08:	e3530000 	cmp	r3, #0
     d0c:	1a000001 	bne	d18 <_find_or_create_pre+0x58>
     d10:	e3a03000 	mov	r3, #0
     d14:	ea00000d 	b	d50 <_find_or_create_pre+0x90>
     d18:	e51b3008 	ldr	r3, [fp, #-8]
     d1c:	e51b2010 	ldr	r2, [fp, #-16]
     d20:	e5832000 	str	r2, [r3]
     d24:	e51b3008 	ldr	r3, [fp, #-8]
     d28:	e3a02000 	mov	r2, #0
     d2c:	e5832004 	str	r2, [r3, #4]
     d30:	e59f3024 	ldr	r3, [pc, #36]	@ d5c <_find_or_create_pre+0x9c>
     d34:	e5932000 	ldr	r2, [r3]
     d38:	e51b3008 	ldr	r3, [fp, #-8]
     d3c:	e5832008 	str	r2, [r3, #8]
     d40:	e59f2014 	ldr	r2, [pc, #20]	@ d5c <_find_or_create_pre+0x9c>
     d44:	e51b3008 	ldr	r3, [fp, #-8]
     d48:	e5823000 	str	r3, [r2]
     d4c:	e51b3008 	ldr	r3, [fp, #-8]
     d50:	e1a00003 	mov	r0, r3
     d54:	e24bd004 	sub	sp, fp, #4
     d58:	e8bd8800 	pop	{fp, pc}
     d5c:	0040003c 	.word	0x0040003c

00000d60 <_clip_weight>:
     d60:	e52db004 	push	{fp}		@ (str fp, [sp, #-4]!)
     d64:	e28db000 	add	fp, sp, #0
     d68:	e24dd00c 	sub	sp, sp, #12
     d6c:	e50b0008 	str	r0, [fp, #-8]
     d70:	e51b3008 	ldr	r3, [fp, #-8]
     d74:	e3530902 	cmp	r3, #32768	@ 0x8000
     d78:	da000001 	ble	d84 <_clip_weight+0x24>
     d7c:	e3a03902 	mov	r3, #32768	@ 0x8000
     d80:	ea000005 	b	d9c <_clip_weight+0x3c>
     d84:	e51b3008 	ldr	r3, [fp, #-8]
     d88:	e3730902 	cmn	r3, #32768	@ 0x8000
     d8c:	aa000001 	bge	d98 <_clip_weight+0x38>
     d90:	e59f3014 	ldr	r3, [pc, #20]	@ dac <_clip_weight+0x4c>
     d94:	ea000000 	b	d9c <_clip_weight+0x3c>
     d98:	e51b3008 	ldr	r3, [fp, #-8]
     d9c:	e1a00003 	mov	r0, r3
     da0:	e28bd000 	add	sp, fp, #0
     da4:	e49db004 	pop	{fp}		@ (ldr fp, [sp], #4)
     da8:	e12fff1e 	bx	lr
     dac:	ffff8000 	.word	0xffff8000

00000db0 <_drop_empty_post_entry>:
     db0:	e92d4800 	push	{fp, lr}
     db4:	e28db004 	add	fp, sp, #4
     db8:	e24dd010 	sub	sp, sp, #16
     dbc:	e50b0010 	str	r0, [fp, #-16]
     dc0:	e59f307c 	ldr	r3, [pc, #124]	@ e44 <_drop_empty_post_entry+0x94>
     dc4:	e50b3008 	str	r3, [fp, #-8]
     dc8:	ea000015 	b	e24 <_drop_empty_post_entry+0x74>
     dcc:	e51b3008 	ldr	r3, [fp, #-8]
     dd0:	e5933000 	ldr	r3, [r3]
     dd4:	e50b300c 	str	r3, [fp, #-12]
     dd8:	e51b300c 	ldr	r3, [fp, #-12]
     ddc:	e5933000 	ldr	r3, [r3]
     de0:	e51b2010 	ldr	r2, [fp, #-16]
     de4:	e1520003 	cmp	r2, r3
     de8:	1a00000a 	bne	e18 <_drop_empty_post_entry+0x68>
     dec:	e51b300c 	ldr	r3, [fp, #-12]
     df0:	e5933004 	ldr	r3, [r3, #4]
     df4:	e3530000 	cmp	r3, #0
     df8:	1a00000e 	bne	e38 <_drop_empty_post_entry+0x88>
     dfc:	e51b300c 	ldr	r3, [fp, #-12]
     e00:	e5932008 	ldr	r2, [r3, #8]
     e04:	e51b3008 	ldr	r3, [fp, #-8]
     e08:	e5832000 	str	r2, [r3]
     e0c:	e51b000c 	ldr	r0, [fp, #-12]
     e10:	fa000c52 	blx	3f60 <sark_free>
     e14:	ea000007 	b	e38 <_drop_empty_post_entry+0x88>
     e18:	e51b300c 	ldr	r3, [fp, #-12]
     e1c:	e2833008 	add	r3, r3, #8
     e20:	e50b3008 	str	r3, [fp, #-8]
     e24:	e51b3008 	ldr	r3, [fp, #-8]
     e28:	e5933000 	ldr	r3, [r3]
     e2c:	e3530000 	cmp	r3, #0
     e30:	1affffe5 	bne	dcc <_drop_empty_post_entry+0x1c>
     e34:	ea000000 	b	e3c <_drop_empty_post_entry+0x8c>
     e38:	e1a00000 	nop			@ (mov r0, r0)
     e3c:	e24bd004 	sub	sp, fp, #4
     e40:	e8bd8800 	pop	{fp, pc}
     e44:	00400038 	.word	0x00400038

00000e48 <_drop_empty_pre_entry>:
     e48:	e92d4800 	push	{fp, lr}
     e4c:	e28db004 	add	fp, sp, #4
     e50:	e24dd010 	sub	sp, sp, #16
     e54:	e50b0010 	str	r0, [fp, #-16]
     e58:	e59f307c 	ldr	r3, [pc, #124]	@ edc <_drop_empty_pre_entry+0x94>
     e5c:	e50b3008 	str	r3, [fp, #-8]
     e60:	ea000015 	b	ebc <_drop_empty_pre_entry+0x74>
     e64:	e51b3008 	ldr	r3, [fp, #-8]
     e68:	e5933000 	ldr	r3, [r3]
     e6c:	e50b300c 	str	r3, [fp, #-12]
     e70:	e51b300c 	ldr	r3, [fp, #-12]
     e74:	e5933000 	ldr	r3, [r3]
     e78:	e51b2010 	ldr	r2, [fp, #-16]
     e7c:	e1520003 	cmp	r2, r3
     e80:	1a00000a 	bne	eb0 <_drop_empty_pre_entry+0x68>
     e84:	e51b300c 	ldr	r3, [fp, #-12]
     e88:	e5933004 	ldr	r3, [r3, #4]
     e8c:	e3530000 	cmp	r3, #0
     e90:	1a00000e 	bne	ed0 <_drop_empty_pre_entry+0x88>
     e94:	e51b300c 	ldr	r3, [fp, #-12]
     e98:	e5932008 	ldr	r2, [r3, #8]
     e9c:	e51b3008 	ldr	r3, [fp, #-8]
     ea0:	e5832000 	str	r2, [r3]
     ea4:	e51b000c 	ldr	r0, [fp, #-12]
     ea8:	fa000c2c 	blx	3f60 <sark_free>
     eac:	ea000007 	b	ed0 <_drop_empty_pre_entry+0x88>
     eb0:	e51b300c 	ldr	r3, [fp, #-12]
     eb4:	e2833008 	add	r3, r3, #8
     eb8:	e50b3008 	str	r3, [fp, #-8]
     ebc:	e51b3008 	ldr	r3, [fp, #-8]
     ec0:	e5933000 	ldr	r3, [r3]
     ec4:	e3530000 	cmp	r3, #0
     ec8:	1affffe5 	bne	e64 <_drop_empty_pre_entry+0x1c>
     ecc:	ea000000 	b	ed4 <_drop_empty_pre_entry+0x8c>
     ed0:	e1a00000 	nop			@ (mov r0, r0)
     ed4:	e24bd004 	sub	sp, fp, #4
     ed8:	e8bd8800 	pop	{fp, pc}
     edc:	0040003c 	.word	0x0040003c

00000ee0 <_unlink_from_post>:
     ee0:	e92d4800 	push	{fp, lr}
     ee4:	e28db004 	add	fp, sp, #4
     ee8:	e24dd010 	sub	sp, sp, #16
     eec:	e50b0010 	str	r0, [fp, #-16]
     ef0:	e51b3010 	ldr	r3, [fp, #-16]
     ef4:	e5933004 	ldr	r3, [r3, #4]
     ef8:	e1a00003 	mov	r0, r3
     efc:	ebffff11 	bl	b48 <_find_post>
     f00:	e50b000c 	str	r0, [fp, #-12]
     f04:	e51b300c 	ldr	r3, [fp, #-12]
     f08:	e3530000 	cmp	r3, #0
     f0c:	0a00001d 	beq	f88 <RTR_TST2+0x84>
     f10:	e51b300c 	ldr	r3, [fp, #-12]
     f14:	e2833004 	add	r3, r3, #4
     f18:	e50b3008 	str	r3, [fp, #-8]
     f1c:	ea000014 	b	f74 <RTR_TST2+0x70>
     f20:	e51b3008 	ldr	r3, [fp, #-8]
     f24:	e5933000 	ldr	r3, [r3]
     f28:	e51b2010 	ldr	r2, [fp, #-16]
     f2c:	e1520003 	cmp	r2, r3
     f30:	1a00000b 	bne	f64 <RTR_TST2+0x60>
     f34:	e51b3010 	ldr	r3, [fp, #-16]
     f38:	e5932018 	ldr	r2, [r3, #24]
     f3c:	e51b3008 	ldr	r3, [fp, #-8]
     f40:	e5832000 	str	r2, [r3]
     f44:	e51b3010 	ldr	r3, [fp, #-16]
     f48:	e3a02000 	mov	r2, #0
     f4c:	e5832018 	str	r2, [r3, #24]
     f50:	e51b3010 	ldr	r3, [fp, #-16]
     f54:	e5933004 	ldr	r3, [r3, #4]
     f58:	e1a00003 	mov	r0, r3
     f5c:	ebffff93 	bl	db0 <_drop_empty_post_entry>
     f60:	ea000009 	b	f8c <RTR_TST2+0x88>
     f64:	e51b3008 	ldr	r3, [fp, #-8]
     f68:	e5933000 	ldr	r3, [r3]
     f6c:	e2833018 	add	r3, r3, #24
     f70:	e50b3008 	str	r3, [fp, #-8]
     f74:	e51b3008 	ldr	r3, [fp, #-8]
     f78:	e5933000 	ldr	r3, [r3]
     f7c:	e3530000 	cmp	r3, #0
     f80:	1affffe6 	bne	f20 <RTR_TST2+0x1c>
     f84:	ea000000 	b	f8c <RTR_TST2+0x88>
     f88:	e1a00000 	nop			@ (mov r0, r0)
     f8c:	e24bd004 	sub	sp, fp, #4
     f90:	e8bd8800 	pop	{fp, pc}

00000f94 <_unlink_from_pre>:
     f94:	e92d4800 	push	{fp, lr}
     f98:	e28db004 	add	fp, sp, #4
     f9c:	e24dd010 	sub	sp, sp, #16
     fa0:	e50b0010 	str	r0, [fp, #-16]
     fa4:	e51b3010 	ldr	r3, [fp, #-16]
     fa8:	e5933000 	ldr	r3, [r3]
     fac:	e1a00003 	mov	r0, r3
     fb0:	ebfffeff 	bl	bb4 <_find_pre>
     fb4:	e50b000c 	str	r0, [fp, #-12]
     fb8:	e51b300c 	ldr	r3, [fp, #-12]
     fbc:	e3530000 	cmp	r3, #0
     fc0:	0a00001d 	beq	103c <SV_SIZE+0x3c>
     fc4:	e51b300c 	ldr	r3, [fp, #-12]
     fc8:	e2833004 	add	r3, r3, #4
     fcc:	e50b3008 	str	r3, [fp, #-8]
     fd0:	ea000014 	b	1028 <SV_SIZE+0x28>
     fd4:	e51b3008 	ldr	r3, [fp, #-8]
     fd8:	e5933000 	ldr	r3, [r3]
     fdc:	e51b2010 	ldr	r2, [fp, #-16]
     fe0:	e1520003 	cmp	r2, r3
     fe4:	1a00000b 	bne	1018 <SV_SIZE+0x18>
     fe8:	e51b3010 	ldr	r3, [fp, #-16]
     fec:	e593201c 	ldr	r2, [r3, #28]
     ff0:	e51b3008 	ldr	r3, [fp, #-8]
     ff4:	e5832000 	str	r2, [r3]
     ff8:	e51b3010 	ldr	r3, [fp, #-16]
     ffc:	e3a02000 	mov	r2, #0
    1000:	e583201c 	str	r2, [r3, #28]
    1004:	e51b3010 	ldr	r3, [fp, #-16]
    1008:	e5933000 	ldr	r3, [r3]
    100c:	e1a00003 	mov	r0, r3
    1010:	ebffff8c 	bl	e48 <_drop_empty_pre_entry>
    1014:	ea000009 	b	1040 <SV_SIZE+0x40>
    1018:	e51b3008 	ldr	r3, [fp, #-8]
    101c:	e5933000 	ldr	r3, [r3]
    1020:	e283301c 	add	r3, r3, #28
    1024:	e50b3008 	str	r3, [fp, #-8]
    1028:	e51b3008 	ldr	r3, [fp, #-8]
    102c:	e5933000 	ldr	r3, [r3]
    1030:	e3530000 	cmp	r3, #0
    1034:	1affffe6 	bne	fd4 <_unlink_from_pre+0x40>
    1038:	ea000000 	b	1040 <SV_SIZE+0x40>
    103c:	e1a00000 	nop			@ (mov r0, r0)
    1040:	e24bd004 	sub	sp, fp, #4
    1044:	e8bd8800 	pop	{fp, pc}

00001048 <_unlink_from_active>:
    1048:	e52db004 	push	{fp}		@ (str fp, [sp, #-4]!)
    104c:	e28db000 	add	fp, sp, #0
    1050:	e24dd014 	sub	sp, sp, #20
    1054:	e50b0010 	str	r0, [fp, #-16]
    1058:	e51b3010 	ldr	r3, [fp, #-16]
    105c:	e5d33014 	ldrb	r3, [r3, #20]
    1060:	e3530000 	cmp	r3, #0
    1064:	0a000027 	beq	1108 <ZI_LENGTH+0xbc>
    1068:	e59f30b0 	ldr	r3, [pc, #176]	@ 1120 <ZI_LENGTH+0xd4>
    106c:	e50b3008 	str	r3, [fp, #-8]
    1070:	ea00001c 	b	10e8 <ZI_LENGTH+0x9c>
    1074:	e51b3008 	ldr	r3, [fp, #-8]
    1078:	e5933000 	ldr	r3, [r3]
    107c:	e51b2010 	ldr	r2, [fp, #-16]
    1080:	e1520003 	cmp	r2, r3
    1084:	1a000013 	bne	10d8 <ZI_LENGTH+0x8c>
    1088:	e51b3010 	ldr	r3, [fp, #-16]
    108c:	e5932020 	ldr	r2, [r3, #32]
    1090:	e51b3008 	ldr	r3, [fp, #-8]
    1094:	e5832000 	str	r2, [r3]
    1098:	e51b3010 	ldr	r3, [fp, #-16]
    109c:	e3a02000 	mov	r2, #0
    10a0:	e5832020 	str	r2, [r3, #32]
    10a4:	e51b3010 	ldr	r3, [fp, #-16]
    10a8:	e3a02000 	mov	r2, #0
    10ac:	e5c32014 	strb	r2, [r3, #20]
    10b0:	e59f306c 	ldr	r3, [pc, #108]	@ 1124 <ZI_LENGTH+0xd8>
    10b4:	e5933000 	ldr	r3, [r3]
    10b8:	e3530000 	cmp	r3, #0
    10bc:	0a000013 	beq	1110 <ZI_LENGTH+0xc4>
    10c0:	e59f305c 	ldr	r3, [pc, #92]	@ 1124 <ZI_LENGTH+0xd8>
    10c4:	e5933000 	ldr	r3, [r3]
    10c8:	e2433001 	sub	r3, r3, #1
    10cc:	e59f2050 	ldr	r2, [pc, #80]	@ 1124 <ZI_LENGTH+0xd8>
    10d0:	e5823000 	str	r3, [r2]
    10d4:	ea00000d 	b	1110 <ZI_LENGTH+0xc4>
    10d8:	e51b3008 	ldr	r3, [fp, #-8]
    10dc:	e5933000 	ldr	r3, [r3]
    10e0:	e2833020 	add	r3, r3, #32
    10e4:	e50b3008 	str	r3, [fp, #-8]
    10e8:	e51b3008 	ldr	r3, [fp, #-8]
    10ec:	e5933000 	ldr	r3, [r3]
    10f0:	e3530000 	cmp	r3, #0
    10f4:	1affffde 	bne	1074 <ZI_LENGTH+0x28>
    10f8:	e51b3010 	ldr	r3, [fp, #-16]
    10fc:	e3a02000 	mov	r2, #0
    1100:	e5c32014 	strb	r2, [r3, #20]
    1104:	ea000002 	b	1114 <ZI_LENGTH+0xc8>
    1108:	e1a00000 	nop			@ (mov r0, r0)
    110c:	ea000000 	b	1114 <ZI_LENGTH+0xc8>
    1110:	e1a00000 	nop			@ (mov r0, r0)
    1114:	e28bd000 	add	sp, fp, #0
    1118:	e49db004 	pop	{fp}		@ (ldr fp, [sp], #4)
    111c:	e12fff1e 	bx	lr
    1120:	00400040 	.word	0x00400040
    1124:	00400028 	.word	0x00400028

00001128 <_activate_trace>:
    1128:	e52db004 	push	{fp}		@ (str fp, [sp, #-4]!)
    112c:	e28db000 	add	fp, sp, #0
    1130:	e24dd00c 	sub	sp, sp, #12
    1134:	e50b0008 	str	r0, [fp, #-8]
    1138:	e51b3008 	ldr	r3, [fp, #-8]
    113c:	e5d33014 	ldrb	r3, [r3, #20]
    1140:	e3530000 	cmp	r3, #0
    1144:	1a00000f 	bne	1188 <_activate_trace+0x60>
    1148:	e59f3048 	ldr	r3, [pc, #72]	@ 1198 <_activate_trace+0x70>
    114c:	e5932000 	ldr	r2, [r3]
    1150:	e51b3008 	ldr	r3, [fp, #-8]
    1154:	e5832020 	str	r2, [r3, #32]
    1158:	e59f2038 	ldr	r2, [pc, #56]	@ 1198 <_activate_trace+0x70>
    115c:	e51b3008 	ldr	r3, [fp, #-8]
    1160:	e5823000 	str	r3, [r2]
    1164:	e51b3008 	ldr	r3, [fp, #-8]
    1168:	e3a02001 	mov	r2, #1
    116c:	e5c32014 	strb	r2, [r3, #20]
    1170:	e59f3024 	ldr	r3, [pc, #36]	@ 119c <_activate_trace+0x74>
    1174:	e5933000 	ldr	r3, [r3]
    1178:	e2833001 	add	r3, r3, #1
    117c:	e59f2018 	ldr	r2, [pc, #24]	@ 119c <_activate_trace+0x74>
    1180:	e5823000 	str	r3, [r2]
    1184:	ea000000 	b	118c <_activate_trace+0x64>
    1188:	e1a00000 	nop			@ (mov r0, r0)
    118c:	e28bd000 	add	sp, fp, #0
    1190:	e49db004 	pop	{fp}		@ (ldr fp, [sp], #4)
    1194:	e12fff1e 	bx	lr
    1198:	00400040 	.word	0x00400040
    119c:	00400028 	.word	0x00400028

000011a0 <_free_synapse>:
    11a0:	e92d4800 	push	{fp, lr}
    11a4:	e28db004 	add	fp, sp, #4
    11a8:	e24dd010 	sub	sp, sp, #16
    11ac:	e50b0010 	str	r0, [fp, #-16]
    11b0:	e51b3010 	ldr	r3, [fp, #-16]
    11b4:	e5933000 	ldr	r3, [r3]
    11b8:	e50b3008 	str	r3, [fp, #-8]
    11bc:	e51b3010 	ldr	r3, [fp, #-16]
    11c0:	e5933004 	ldr	r3, [r3, #4]
    11c4:	e50b300c 	str	r3, [fp, #-12]
    11c8:	e51b0010 	ldr	r0, [fp, #-16]
    11cc:	ebffff9d 	bl	1048 <_unlink_from_active>
    11d0:	e51b0010 	ldr	r0, [fp, #-16]
    11d4:	ebffff41 	bl	ee0 <_unlink_from_post>
    11d8:	e51b0010 	ldr	r0, [fp, #-16]
    11dc:	ebffff6c 	bl	f94 <_unlink_from_pre>
    11e0:	e51b0010 	ldr	r0, [fp, #-16]
    11e4:	fa000b5d 	blx	3f60 <sark_free>
    11e8:	e59f3038 	ldr	r3, [pc, #56]	@ 1228 <_free_synapse+0x88>
    11ec:	e5933000 	ldr	r3, [r3]
    11f0:	e3530000 	cmp	r3, #0
    11f4:	0a000004 	beq	120c <_free_synapse+0x6c>
    11f8:	e59f3028 	ldr	r3, [pc, #40]	@ 1228 <_free_synapse+0x88>
    11fc:	e5933000 	ldr	r3, [r3]
    1200:	e2433001 	sub	r3, r3, #1
    1204:	e59f201c 	ldr	r2, [pc, #28]	@ 1228 <_free_synapse+0x88>
    1208:	e5823000 	str	r3, [r2]
    120c:	e51b000c 	ldr	r0, [fp, #-12]
    1210:	ebfffee6 	bl	db0 <_drop_empty_post_entry>
    1214:	e51b0008 	ldr	r0, [fp, #-8]
    1218:	ebffff0a 	bl	e48 <_drop_empty_pre_entry>
    121c:	e1a00000 	nop			@ (mov r0, r0)
    1220:	e24bd004 	sub	sp, fp, #4
    1224:	e8bd8800 	pop	{fp, pc}
    1228:	00400024 	.word	0x00400024

0000122c <_find_synapse>:
    122c:	e92d4800 	push	{fp, lr}
    1230:	e28db004 	add	fp, sp, #4
    1234:	e24dd010 	sub	sp, sp, #16
    1238:	e50b0010 	str	r0, [fp, #-16]
    123c:	e50b1014 	str	r1, [fp, #-20]	@ 0xffffffec
    1240:	e51b0010 	ldr	r0, [fp, #-16]
    1244:	ebfffe5a 	bl	bb4 <_find_pre>
    1248:	e50b000c 	str	r0, [fp, #-12]
    124c:	e51b300c 	ldr	r3, [fp, #-12]
    1250:	e3530000 	cmp	r3, #0
    1254:	1a000001 	bne	1260 <_find_synapse+0x34>
    1258:	e3a03000 	mov	r3, #0
    125c:	ea000011 	b	12a8 <_find_synapse+0x7c>
    1260:	e51b300c 	ldr	r3, [fp, #-12]
    1264:	e5933004 	ldr	r3, [r3, #4]
    1268:	e50b3008 	str	r3, [fp, #-8]
    126c:	ea000009 	b	1298 <_find_synapse+0x6c>
    1270:	e51b3008 	ldr	r3, [fp, #-8]
    1274:	e5933004 	ldr	r3, [r3, #4]
    1278:	e51b2014 	ldr	r2, [fp, #-20]	@ 0xffffffec
    127c:	e1520003 	cmp	r2, r3
    1280:	1a000001 	bne	128c <_find_synapse+0x60>
    1284:	e51b3008 	ldr	r3, [fp, #-8]
    1288:	ea000006 	b	12a8 <_find_synapse+0x7c>
    128c:	e51b3008 	ldr	r3, [fp, #-8]
    1290:	e593301c 	ldr	r3, [r3, #28]
    1294:	e50b3008 	str	r3, [fp, #-8]
    1298:	e51b3008 	ldr	r3, [fp, #-8]
    129c:	e3530000 	cmp	r3, #0
    12a0:	1afffff2 	bne	1270 <_find_synapse+0x44>
    12a4:	e3a03000 	mov	r3, #0
    12a8:	e1a00003 	mov	r0, r3
    12ac:	e24bd004 	sub	sp, fp, #4
    12b0:	e8bd8800 	pop	{fp, pc}

000012b4 <synapse_create>:
    12b4:	e92d4800 	push	{fp, lr}
    12b8:	e28db004 	add	fp, sp, #4
    12bc:	e24dd020 	sub	sp, sp, #32
    12c0:	e50b0018 	str	r0, [fp, #-24]	@ 0xffffffe8
    12c4:	e50b101c 	str	r1, [fp, #-28]	@ 0xffffffe4
    12c8:	e50b2020 	str	r2, [fp, #-32]	@ 0xffffffe0
    12cc:	e50b3024 	str	r3, [fp, #-36]	@ 0xffffffdc
    12d0:	e51b001c 	ldr	r0, [fp, #-28]	@ 0xffffffe4
    12d4:	ebfffe51 	bl	c20 <_find_or_create_post>
    12d8:	e50b0008 	str	r0, [fp, #-8]
    12dc:	e51b0018 	ldr	r0, [fp, #-24]	@ 0xffffffe8
    12e0:	ebfffe76 	bl	cc0 <_find_or_create_pre>
    12e4:	e50b000c 	str	r0, [fp, #-12]
    12e8:	e51b3008 	ldr	r3, [fp, #-8]
    12ec:	e3530000 	cmp	r3, #0
    12f0:	0a000002 	beq	1300 <synapse_create+0x4c>
    12f4:	e51b300c 	ldr	r3, [fp, #-12]
    12f8:	e3530000 	cmp	r3, #0
    12fc:	1a000001 	bne	1308 <synapse_create+0x54>
    1300:	e3e03000 	mvn	r3, #0
    1304:	ea000034 	b	13dc <synapse_create+0x128>
    1308:	e3a01024 	mov	r1, #36	@ 0x24
    130c:	e3a00001 	mov	r0, #1
    1310:	fa000ae3 	blx	3ea4 <sark_alloc>
    1314:	e1a03000 	mov	r3, r0
    1318:	e50b3010 	str	r3, [fp, #-16]
    131c:	e51b3010 	ldr	r3, [fp, #-16]
    1320:	e3530000 	cmp	r3, #0
    1324:	1a000001 	bne	1330 <synapse_create+0x7c>
    1328:	e3e03000 	mvn	r3, #0
    132c:	ea00002a 	b	13dc <synapse_create+0x128>
    1330:	e51b3010 	ldr	r3, [fp, #-16]
    1334:	e51b2018 	ldr	r2, [fp, #-24]	@ 0xffffffe8
    1338:	e5832000 	str	r2, [r3]
    133c:	e51b3010 	ldr	r3, [fp, #-16]
    1340:	e51b201c 	ldr	r2, [fp, #-28]	@ 0xffffffe4
    1344:	e5832004 	str	r2, [r3, #4]
    1348:	e51b0020 	ldr	r0, [fp, #-32]	@ 0xffffffe0
    134c:	ebfffe83 	bl	d60 <_clip_weight>
    1350:	e1a02000 	mov	r2, r0
    1354:	e51b3010 	ldr	r3, [fp, #-16]
    1358:	e5832008 	str	r2, [r3, #8]
    135c:	e51b3010 	ldr	r3, [fp, #-16]
    1360:	e3a02000 	mov	r2, #0
    1364:	e583200c 	str	r2, [r3, #12]
    1368:	e51b3010 	ldr	r3, [fp, #-16]
    136c:	e51b2024 	ldr	r2, [fp, #-36]	@ 0xffffffdc
    1370:	e5832010 	str	r2, [r3, #16]
    1374:	e51b3010 	ldr	r3, [fp, #-16]
    1378:	e3a02000 	mov	r2, #0
    137c:	e5c32014 	strb	r2, [r3, #20]
    1380:	e51b3010 	ldr	r3, [fp, #-16]
    1384:	e3a02000 	mov	r2, #0
    1388:	e5832020 	str	r2, [r3, #32]
    138c:	e51b3008 	ldr	r3, [fp, #-8]
    1390:	e5932004 	ldr	r2, [r3, #4]
    1394:	e51b3010 	ldr	r3, [fp, #-16]
    1398:	e5832018 	str	r2, [r3, #24]
    139c:	e51b3008 	ldr	r3, [fp, #-8]
    13a0:	e51b2010 	ldr	r2, [fp, #-16]
    13a4:	e5832004 	str	r2, [r3, #4]
    13a8:	e51b300c 	ldr	r3, [fp, #-12]
    13ac:	e5932004 	ldr	r2, [r3, #4]
    13b0:	e51b3010 	ldr	r3, [fp, #-16]
    13b4:	e583201c 	str	r2, [r3, #28]
    13b8:	e51b300c 	ldr	r3, [fp, #-12]
    13bc:	e51b2010 	ldr	r2, [fp, #-16]
    13c0:	e5832004 	str	r2, [r3, #4]
    13c4:	e59f301c 	ldr	r3, [pc, #28]	@ 13e8 <synapse_create+0x134>
    13c8:	e5933000 	ldr	r3, [r3]
    13cc:	e2833001 	add	r3, r3, #1
    13d0:	e59f2010 	ldr	r2, [pc, #16]	@ 13e8 <synapse_create+0x134>
    13d4:	e5823000 	str	r3, [r2]
    13d8:	e3a03000 	mov	r3, #0
    13dc:	e1a00003 	mov	r0, r3
    13e0:	e24bd004 	sub	sp, fp, #4
    13e4:	e8bd8800 	pop	{fp, pc}
    13e8:	00400024 	.word	0x00400024

000013ec <synapse_remove>:
    13ec:	e92d4800 	push	{fp, lr}
    13f0:	e28db004 	add	fp, sp, #4
    13f4:	e24dd010 	sub	sp, sp, #16
    13f8:	e50b0010 	str	r0, [fp, #-16]
    13fc:	e50b1014 	str	r1, [fp, #-20]	@ 0xffffffec
    1400:	e51b1014 	ldr	r1, [fp, #-20]	@ 0xffffffec
    1404:	e51b0010 	ldr	r0, [fp, #-16]
    1408:	ebffff87 	bl	122c <_find_synapse>
    140c:	e50b0008 	str	r0, [fp, #-8]
    1410:	e51b3008 	ldr	r3, [fp, #-8]
    1414:	e3530000 	cmp	r3, #0
    1418:	1a000001 	bne	1424 <synapse_remove+0x38>
    141c:	e3e03000 	mvn	r3, #0
    1420:	ea000002 	b	1430 <synapse_remove+0x44>
    1424:	e51b0008 	ldr	r0, [fp, #-8]
    1428:	ebffff5c 	bl	11a0 <_free_synapse>
    142c:	e3a03000 	mov	r3, #0
    1430:	e1a00003 	mov	r0, r3
    1434:	e24bd004 	sub	sp, fp, #4
    1438:	e8bd8800 	pop	{fp, pc}

0000143c <synapse_deliver_spike>:
    143c:	e92d4800 	push	{fp, lr}
    1440:	e28db004 	add	fp, sp, #4
    1444:	e24dd018 	sub	sp, sp, #24
    1448:	e50b0018 	str	r0, [fp, #-24]	@ 0xffffffe8
    144c:	e59f30bc 	ldr	r3, [pc, #188]	@ 1510 <synapse_deliver_spike+0xd4>
    1450:	e3a02000 	mov	r2, #0
    1454:	e5832000 	str	r2, [r3]
    1458:	e51b0018 	ldr	r0, [fp, #-24]	@ 0xffffffe8
    145c:	ebfffdd4 	bl	bb4 <_find_pre>
    1460:	e50b0010 	str	r0, [fp, #-16]
    1464:	e51b3010 	ldr	r3, [fp, #-16]
    1468:	e3530000 	cmp	r3, #0
    146c:	0a000024 	beq	1504 <synapse_deliver_spike+0xc8>
    1470:	e51b3010 	ldr	r3, [fp, #-16]
    1474:	e5933004 	ldr	r3, [r3, #4]
    1478:	e50b3008 	str	r3, [fp, #-8]
    147c:	ea00001c 	b	14f4 <synapse_deliver_spike+0xb8>
    1480:	e59f3088 	ldr	r3, [pc, #136]	@ 1510 <synapse_deliver_spike+0xd4>
    1484:	e5933000 	ldr	r3, [r3]
    1488:	e2833001 	add	r3, r3, #1
    148c:	e59f207c 	ldr	r2, [pc, #124]	@ 1510 <synapse_deliver_spike+0xd4>
    1490:	e5823000 	str	r3, [r2]
    1494:	e51b3008 	ldr	r3, [fp, #-8]
    1498:	e593300c 	ldr	r3, [r3, #12]
    149c:	e2833902 	add	r3, r3, #32768	@ 0x8000
    14a0:	e50b300c 	str	r3, [fp, #-12]
    14a4:	e51b300c 	ldr	r3, [fp, #-12]
    14a8:	e3530902 	cmp	r3, #32768	@ 0x8000
    14ac:	da000001 	ble	14b8 <synapse_deliver_spike+0x7c>
    14b0:	e3a03902 	mov	r3, #32768	@ 0x8000
    14b4:	e50b300c 	str	r3, [fp, #-12]
    14b8:	e51b3008 	ldr	r3, [fp, #-8]
    14bc:	e51b200c 	ldr	r2, [fp, #-12]
    14c0:	e583200c 	str	r2, [r3, #12]
    14c4:	e51b0008 	ldr	r0, [fp, #-8]
    14c8:	ebffff16 	bl	1128 <_activate_trace>
    14cc:	e51b3008 	ldr	r3, [fp, #-8]
    14d0:	e5932004 	ldr	r2, [r3, #4]
    14d4:	e51b3008 	ldr	r3, [fp, #-8]
    14d8:	e5933008 	ldr	r3, [r3, #8]
    14dc:	e1a01003 	mov	r1, r3
    14e0:	e1a00002 	mov	r0, r2
    14e4:	ebfffd00 	bl	8ec <neuron_add_input>
    14e8:	e51b3008 	ldr	r3, [fp, #-8]
    14ec:	e593301c 	ldr	r3, [r3, #28]
    14f0:	e50b3008 	str	r3, [fp, #-8]
    14f4:	e51b3008 	ldr	r3, [fp, #-8]
    14f8:	e3530000 	cmp	r3, #0
    14fc:	1affffdf 	bne	1480 <synapse_deliver_spike+0x44>
    1500:	ea000000 	b	1508 <synapse_deliver_spike+0xcc>
    1504:	e1a00000 	nop			@ (mov r0, r0)
    1508:	e24bd004 	sub	sp, fp, #4
    150c:	e8bd8800 	pop	{fp, pc}
    1510:	0040002c 	.word	0x0040002c

00001514 <synapse_decay_traces_all>:
    1514:	e52db004 	push	{fp}		@ (str fp, [sp, #-4]!)
    1518:	e28db000 	add	fp, sp, #0
    151c:	e24dd014 	sub	sp, sp, #20
    1520:	e50b0010 	str	r0, [fp, #-16]
    1524:	e59f30e8 	ldr	r3, [pc, #232]	@ 1614 <synapse_decay_traces_all+0x100>
    1528:	e3a02000 	mov	r2, #0
    152c:	e5832000 	str	r2, [r3]
    1530:	e59f30e0 	ldr	r3, [pc, #224]	@ 1618 <synapse_decay_traces_all+0x104>
    1534:	e50b3008 	str	r3, [fp, #-8]
    1538:	ea00002c 	b	15f0 <synapse_decay_traces_all+0xdc>
    153c:	e51b3008 	ldr	r3, [fp, #-8]
    1540:	e5933000 	ldr	r3, [r3]
    1544:	e50b300c 	str	r3, [fp, #-12]
    1548:	e59f30c4 	ldr	r3, [pc, #196]	@ 1614 <synapse_decay_traces_all+0x100>
    154c:	e5933000 	ldr	r3, [r3]
    1550:	e2833001 	add	r3, r3, #1
    1554:	e59f20b8 	ldr	r2, [pc, #184]	@ 1614 <synapse_decay_traces_all+0x100>
    1558:	e5823000 	str	r3, [r2]
    155c:	e51b300c 	ldr	r3, [fp, #-12]
    1560:	e593300c 	ldr	r3, [r3, #12]
    1564:	e51b2010 	ldr	r2, [fp, #-16]
    1568:	e0030392 	mul	r3, r2, r3
    156c:	e1a027c3 	asr	r2, r3, #15
    1570:	e51b300c 	ldr	r3, [fp, #-12]
    1574:	e583200c 	str	r2, [r3, #12]
    1578:	e51b300c 	ldr	r3, [fp, #-12]
    157c:	e593300c 	ldr	r3, [r3, #12]
    1580:	e3530001 	cmp	r3, #1
    1584:	ca000016 	bgt	15e4 <synapse_decay_traces_all+0xd0>
    1588:	e51b300c 	ldr	r3, [fp, #-12]
    158c:	e3a02000 	mov	r2, #0
    1590:	e583200c 	str	r2, [r3, #12]
    1594:	e51b300c 	ldr	r3, [fp, #-12]
    1598:	e5932020 	ldr	r2, [r3, #32]
    159c:	e51b3008 	ldr	r3, [fp, #-8]
    15a0:	e5832000 	str	r2, [r3]
    15a4:	e51b300c 	ldr	r3, [fp, #-12]
    15a8:	e3a02000 	mov	r2, #0
    15ac:	e5832020 	str	r2, [r3, #32]
    15b0:	e51b300c 	ldr	r3, [fp, #-12]
    15b4:	e3a02000 	mov	r2, #0
    15b8:	e5c32014 	strb	r2, [r3, #20]
    15bc:	e59f3058 	ldr	r3, [pc, #88]	@ 161c <synapse_decay_traces_all+0x108>
    15c0:	e5933000 	ldr	r3, [r3]
    15c4:	e3530000 	cmp	r3, #0
    15c8:	0a000008 	beq	15f0 <synapse_decay_traces_all+0xdc>
    15cc:	e59f3048 	ldr	r3, [pc, #72]	@ 161c <synapse_decay_traces_all+0x108>
    15d0:	e5933000 	ldr	r3, [r3]
    15d4:	e2433001 	sub	r3, r3, #1
    15d8:	e59f203c 	ldr	r2, [pc, #60]	@ 161c <synapse_decay_traces_all+0x108>
    15dc:	e5823000 	str	r3, [r2]
    15e0:	ea000002 	b	15f0 <synapse_decay_traces_all+0xdc>
    15e4:	e51b300c 	ldr	r3, [fp, #-12]
    15e8:	e2833020 	add	r3, r3, #32
    15ec:	e50b3008 	str	r3, [fp, #-8]
    15f0:	e51b3008 	ldr	r3, [fp, #-8]
    15f4:	e5933000 	ldr	r3, [r3]
    15f8:	e3530000 	cmp	r3, #0
    15fc:	1affffce 	bne	153c <synapse_decay_traces_all+0x28>
    1600:	e1a00000 	nop			@ (mov r0, r0)
    1604:	e1a00000 	nop			@ (mov r0, r0)
    1608:	e28bd000 	add	sp, fp, #0
    160c:	e49db004 	pop	{fp}		@ (ldr fp, [sp], #4)
    1610:	e12fff1e 	bx	lr
    1614:	00400030 	.word	0x00400030
    1618:	00400040 	.word	0x00400040
    161c:	00400028 	.word	0x00400028

00001620 <synapse_modulate_all>:
    1620:	e92d4800 	push	{fp, lr}
    1624:	e28db004 	add	fp, sp, #4
    1628:	e24dd010 	sub	sp, sp, #16
    162c:	e50b0010 	str	r0, [fp, #-16]
    1630:	e59f308c 	ldr	r3, [pc, #140]	@ 16c4 <synapse_modulate_all+0xa4>
    1634:	e3a02000 	mov	r2, #0
    1638:	e5832000 	str	r2, [r3]
    163c:	e59f3084 	ldr	r3, [pc, #132]	@ 16c8 <synapse_modulate_all+0xa8>
    1640:	e5933000 	ldr	r3, [r3]
    1644:	e50b3008 	str	r3, [fp, #-8]
    1648:	ea000016 	b	16a8 <synapse_modulate_all+0x88>
    164c:	e59f3070 	ldr	r3, [pc, #112]	@ 16c4 <synapse_modulate_all+0xa4>
    1650:	e5933000 	ldr	r3, [r3]
    1654:	e2833001 	add	r3, r3, #1
    1658:	e59f2064 	ldr	r2, [pc, #100]	@ 16c4 <synapse_modulate_all+0xa4>
    165c:	e5823000 	str	r3, [r2]
    1660:	e51b3008 	ldr	r3, [fp, #-8]
    1664:	e593300c 	ldr	r3, [r3, #12]
    1668:	e51b2010 	ldr	r2, [fp, #-16]
    166c:	e0030392 	mul	r3, r2, r3
    1670:	e1a037c3 	asr	r3, r3, #15
    1674:	e50b300c 	str	r3, [fp, #-12]
    1678:	e51b3008 	ldr	r3, [fp, #-8]
    167c:	e5932008 	ldr	r2, [r3, #8]
    1680:	e51b300c 	ldr	r3, [fp, #-12]
    1684:	e0823003 	add	r3, r2, r3
    1688:	e1a00003 	mov	r0, r3
    168c:	ebfffdb3 	bl	d60 <_clip_weight>
    1690:	e1a02000 	mov	r2, r0
    1694:	e51b3008 	ldr	r3, [fp, #-8]
    1698:	e5832008 	str	r2, [r3, #8]
    169c:	e51b3008 	ldr	r3, [fp, #-8]
    16a0:	e5933020 	ldr	r3, [r3, #32]
    16a4:	e50b3008 	str	r3, [fp, #-8]
    16a8:	e51b3008 	ldr	r3, [fp, #-8]
    16ac:	e3530000 	cmp	r3, #0
    16b0:	1affffe5 	bne	164c <synapse_modulate_all+0x2c>
    16b4:	e1a00000 	nop			@ (mov r0, r0)
    16b8:	e1a00000 	nop			@ (mov r0, r0)
    16bc:	e24bd004 	sub	sp, fp, #4
    16c0:	e8bd8800 	pop	{fp, pc}
    16c4:	00400034 	.word	0x00400034
    16c8:	00400040 	.word	0x00400040

000016cc <synapse_remove_incident>:
    16cc:	e92d4800 	push	{fp, lr}
    16d0:	e28db004 	add	fp, sp, #4
    16d4:	e24dd018 	sub	sp, sp, #24
    16d8:	e50b0018 	str	r0, [fp, #-24]	@ 0xffffffe8
    16dc:	e3a03000 	mov	r3, #0
    16e0:	e54b3005 	strb	r3, [fp, #-5]
    16e4:	e3a03000 	mov	r3, #0
    16e8:	e54b3005 	strb	r3, [fp, #-5]
    16ec:	e59f30b8 	ldr	r3, [pc, #184]	@ 17ac <synapse_remove_incident+0xe0>
    16f0:	e5933000 	ldr	r3, [r3]
    16f4:	e50b300c 	str	r3, [fp, #-12]
    16f8:	ea00001e 	b	1778 <synapse_remove_incident+0xac>
    16fc:	e51b300c 	ldr	r3, [fp, #-12]
    1700:	e5933004 	ldr	r3, [r3, #4]
    1704:	e50b3010 	str	r3, [fp, #-16]
    1708:	ea000011 	b	1754 <synapse_remove_incident+0x88>
    170c:	e51b3010 	ldr	r3, [fp, #-16]
    1710:	e5933000 	ldr	r3, [r3]
    1714:	e51b2018 	ldr	r2, [fp, #-24]	@ 0xffffffe8
    1718:	e1520003 	cmp	r2, r3
    171c:	0a000004 	beq	1734 <synapse_remove_incident+0x68>
    1720:	e51b3010 	ldr	r3, [fp, #-16]
    1724:	e5933004 	ldr	r3, [r3, #4]
    1728:	e51b2018 	ldr	r2, [fp, #-24]	@ 0xffffffe8
    172c:	e1520003 	cmp	r2, r3
    1730:	1a000004 	bne	1748 <synapse_remove_incident+0x7c>
    1734:	e51b0010 	ldr	r0, [fp, #-16]
    1738:	ebfffe98 	bl	11a0 <_free_synapse>
    173c:	e3a03001 	mov	r3, #1
    1740:	e54b3005 	strb	r3, [fp, #-5]
    1744:	ea000005 	b	1760 <synapse_remove_incident+0x94>
    1748:	e51b3010 	ldr	r3, [fp, #-16]
    174c:	e5933018 	ldr	r3, [r3, #24]
    1750:	e50b3010 	str	r3, [fp, #-16]
    1754:	e51b3010 	ldr	r3, [fp, #-16]
    1758:	e3530000 	cmp	r3, #0
    175c:	1affffea 	bne	170c <synapse_remove_incident+0x40>
    1760:	e55b3005 	ldrb	r3, [fp, #-5]
    1764:	e3530000 	cmp	r3, #0
    1768:	1a000002 	bne	1778 <synapse_remove_incident+0xac>
    176c:	e51b300c 	ldr	r3, [fp, #-12]
    1770:	e5933008 	ldr	r3, [r3, #8]
    1774:	e50b300c 	str	r3, [fp, #-12]
    1778:	e51b300c 	ldr	r3, [fp, #-12]
    177c:	e3530000 	cmp	r3, #0
    1780:	0a000002 	beq	1790 <synapse_remove_incident+0xc4>
    1784:	e55b3005 	ldrb	r3, [fp, #-5]
    1788:	e3530000 	cmp	r3, #0
    178c:	0affffda 	beq	16fc <synapse_remove_incident+0x30>
    1790:	e55b3005 	ldrb	r3, [fp, #-5]
    1794:	e3530000 	cmp	r3, #0
    1798:	1affffd1 	bne	16e4 <synapse_remove_incident+0x18>
    179c:	e1a00000 	nop			@ (mov r0, r0)
    17a0:	e1a00000 	nop			@ (mov r0, r0)
    17a4:	e24bd004 	sub	sp, fp, #4
    17a8:	e8bd8800 	pop	{fp, pc}
    17ac:	00400038 	.word	0x00400038

000017b0 <synapse_reset_all>:
    17b0:	e92d4800 	push	{fp, lr}
    17b4:	e28db004 	add	fp, sp, #4
    17b8:	e24dd010 	sub	sp, sp, #16
    17bc:	ea000016 	b	181c <synapse_reset_all+0x6c>
    17c0:	e59f30f0 	ldr	r3, [pc, #240]	@ 18b8 <synapse_reset_all+0x108>
    17c4:	e5933000 	ldr	r3, [r3]
    17c8:	e50b3010 	str	r3, [fp, #-16]
    17cc:	e51b3010 	ldr	r3, [fp, #-16]
    17d0:	e5933004 	ldr	r3, [r3, #4]
    17d4:	e50b3008 	str	r3, [fp, #-8]
    17d8:	ea000006 	b	17f8 <synapse_reset_all+0x48>
    17dc:	e51b3008 	ldr	r3, [fp, #-8]
    17e0:	e5933018 	ldr	r3, [r3, #24]
    17e4:	e50b3014 	str	r3, [fp, #-20]	@ 0xffffffec
    17e8:	e51b0008 	ldr	r0, [fp, #-8]
    17ec:	fa0009db 	blx	3f60 <sark_free>
    17f0:	e51b3014 	ldr	r3, [fp, #-20]	@ 0xffffffec
    17f4:	e50b3008 	str	r3, [fp, #-8]
    17f8:	e51b3008 	ldr	r3, [fp, #-8]
    17fc:	e3530000 	cmp	r3, #0
    1800:	1afffff5 	bne	17dc <synapse_reset_all+0x2c>
    1804:	e51b3010 	ldr	r3, [fp, #-16]
    1808:	e5933008 	ldr	r3, [r3, #8]
    180c:	e59f20a4 	ldr	r2, [pc, #164]	@ 18b8 <synapse_reset_all+0x108>
    1810:	e5823000 	str	r3, [r2]
    1814:	e51b0010 	ldr	r0, [fp, #-16]
    1818:	fa0009d0 	blx	3f60 <sark_free>
    181c:	e59f3094 	ldr	r3, [pc, #148]	@ 18b8 <synapse_reset_all+0x108>
    1820:	e5933000 	ldr	r3, [r3]
    1824:	e3530000 	cmp	r3, #0
    1828:	1affffe4 	bne	17c0 <synapse_reset_all+0x10>
    182c:	ea000008 	b	1854 <synapse_reset_all+0xa4>
    1830:	e59f3084 	ldr	r3, [pc, #132]	@ 18bc <synapse_reset_all+0x10c>
    1834:	e5933000 	ldr	r3, [r3]
    1838:	e50b300c 	str	r3, [fp, #-12]
    183c:	e51b300c 	ldr	r3, [fp, #-12]
    1840:	e5933008 	ldr	r3, [r3, #8]
    1844:	e59f2070 	ldr	r2, [pc, #112]	@ 18bc <synapse_reset_all+0x10c>
    1848:	e5823000 	str	r3, [r2]
    184c:	e51b000c 	ldr	r0, [fp, #-12]
    1850:	fa0009c2 	blx	3f60 <sark_free>
    1854:	e59f3060 	ldr	r3, [pc, #96]	@ 18bc <synapse_reset_all+0x10c>
    1858:	e5933000 	ldr	r3, [r3]
    185c:	e3530000 	cmp	r3, #0
    1860:	1afffff2 	bne	1830 <synapse_reset_all+0x80>
    1864:	e59f3054 	ldr	r3, [pc, #84]	@ 18c0 <synapse_reset_all+0x110>
    1868:	e3a02000 	mov	r2, #0
    186c:	e5832000 	str	r2, [r3]
    1870:	e59f304c 	ldr	r3, [pc, #76]	@ 18c4 <synapse_reset_all+0x114>
    1874:	e3a02000 	mov	r2, #0
    1878:	e5832000 	str	r2, [r3]
    187c:	e59f3044 	ldr	r3, [pc, #68]	@ 18c8 <synapse_reset_all+0x118>
    1880:	e3a02000 	mov	r2, #0
    1884:	e5832000 	str	r2, [r3]
    1888:	e59f303c 	ldr	r3, [pc, #60]	@ 18cc <synapse_reset_all+0x11c>
    188c:	e3a02000 	mov	r2, #0
    1890:	e5832000 	str	r2, [r3]
    1894:	e59f3034 	ldr	r3, [pc, #52]	@ 18d0 <synapse_reset_all+0x120>
    1898:	e3a02000 	mov	r2, #0
    189c:	e5832000 	str	r2, [r3]
    18a0:	e59f302c 	ldr	r3, [pc, #44]	@ 18d4 <synapse_reset_all+0x124>
    18a4:	e3a02000 	mov	r2, #0
    18a8:	e5832000 	str	r2, [r3]
    18ac:	e1a00000 	nop			@ (mov r0, r0)
    18b0:	e24bd004 	sub	sp, fp, #4
    18b4:	e8bd8800 	pop	{fp, pc}
    18b8:	00400038 	.word	0x00400038
    18bc:	0040003c 	.word	0x0040003c
    18c0:	00400040 	.word	0x00400040
    18c4:	00400024 	.word	0x00400024
    18c8:	00400028 	.word	0x00400028
    18cc:	0040002c 	.word	0x0040002c
    18d0:	00400030 	.word	0x00400030
    18d4:	00400034 	.word	0x00400034

000018d8 <synapse_count>:
    18d8:	e52db004 	push	{fp}		@ (str fp, [sp, #-4]!)
    18dc:	e28db000 	add	fp, sp, #0
    18e0:	e59f3010 	ldr	r3, [pc, #16]	@ 18f8 <synapse_count+0x20>
    18e4:	e5933000 	ldr	r3, [r3]
    18e8:	e1a00003 	mov	r0, r3
    18ec:	e28bd000 	add	sp, fp, #0
    18f0:	e49db004 	pop	{fp}		@ (ldr fp, [sp], #4)
    18f4:	e12fff1e 	bx	lr
    18f8:	00400024 	.word	0x00400024

000018fc <synapse_active_trace_count>:
    18fc:	e52db004 	push	{fp}		@ (str fp, [sp, #-4]!)
    1900:	e28db000 	add	fp, sp, #0
    1904:	e59f3010 	ldr	r3, [pc, #16]	@ 191c <synapse_active_trace_count+0x20>
    1908:	e5933000 	ldr	r3, [r3]
    190c:	e1a00003 	mov	r0, r3
    1910:	e28bd000 	add	sp, fp, #0
    1914:	e49db004 	pop	{fp}		@ (ldr fp, [sp], #4)
    1918:	e12fff1e 	bx	lr
    191c:	00400028 	.word	0x00400028

00001920 <synapse_last_delivery_visit_count>:
    1920:	e52db004 	push	{fp}		@ (str fp, [sp, #-4]!)
    1924:	e28db000 	add	fp, sp, #0
    1928:	e59f3010 	ldr	r3, [pc, #16]	@ 1940 <synapse_last_delivery_visit_count+0x20>
    192c:	e5933000 	ldr	r3, [r3]
    1930:	e1a00003 	mov	r0, r3
    1934:	e28bd000 	add	sp, fp, #0
    1938:	e49db004 	pop	{fp}		@ (ldr fp, [sp], #4)
    193c:	e12fff1e 	bx	lr
    1940:	0040002c 	.word	0x0040002c

00001944 <synapse_last_decay_visit_count>:
    1944:	e52db004 	push	{fp}		@ (str fp, [sp, #-4]!)
    1948:	e28db000 	add	fp, sp, #0
    194c:	e59f3010 	ldr	r3, [pc, #16]	@ 1964 <synapse_last_decay_visit_count+0x20>
    1950:	e5933000 	ldr	r3, [r3]
    1954:	e1a00003 	mov	r0, r3
    1958:	e28bd000 	add	sp, fp, #0
    195c:	e49db004 	pop	{fp}		@ (ldr fp, [sp], #4)
    1960:	e12fff1e 	bx	lr
    1964:	00400030 	.word	0x00400030

00001968 <synapse_last_modulation_visit_count>:
    1968:	e52db004 	push	{fp}		@ (str fp, [sp, #-4]!)
    196c:	e28db000 	add	fp, sp, #0
    1970:	e59f3010 	ldr	r3, [pc, #16]	@ 1988 <synapse_last_modulation_visit_count+0x20>
    1974:	e5933000 	ldr	r3, [r3]
    1978:	e1a00003 	mov	r0, r3
    197c:	e28bd000 	add	sp, fp, #0
    1980:	e49db004 	pop	{fp}		@ (ldr fp, [sp], #4)
    1984:	e12fff1e 	bx	lr
    1988:	00400034 	.word	0x00400034

0000198c <synapse_get_weight>:
    198c:	e92d4800 	push	{fp, lr}
    1990:	e28db004 	add	fp, sp, #4
    1994:	e24dd018 	sub	sp, sp, #24
    1998:	e50b0010 	str	r0, [fp, #-16]
    199c:	e50b1014 	str	r1, [fp, #-20]	@ 0xffffffec
    19a0:	e50b2018 	str	r2, [fp, #-24]	@ 0xffffffe8
    19a4:	e51b1014 	ldr	r1, [fp, #-20]	@ 0xffffffec
    19a8:	e51b0010 	ldr	r0, [fp, #-16]
    19ac:	ebfffe1e 	bl	122c <_find_synapse>
    19b0:	e50b0008 	str	r0, [fp, #-8]
    19b4:	e51b3008 	ldr	r3, [fp, #-8]
    19b8:	e3530000 	cmp	r3, #0
    19bc:	1a000001 	bne	19c8 <synapse_get_weight+0x3c>
    19c0:	e3e03000 	mvn	r3, #0
    19c4:	ea000007 	b	19e8 <synapse_get_weight+0x5c>
    19c8:	e51b3018 	ldr	r3, [fp, #-24]	@ 0xffffffe8
    19cc:	e3530000 	cmp	r3, #0
    19d0:	0a000003 	beq	19e4 <synapse_get_weight+0x58>
    19d4:	e51b3008 	ldr	r3, [fp, #-8]
    19d8:	e5932008 	ldr	r2, [r3, #8]
    19dc:	e51b3018 	ldr	r3, [fp, #-24]	@ 0xffffffe8
    19e0:	e5832000 	str	r2, [r3]
    19e4:	e3a03000 	mov	r3, #0
    19e8:	e1a00003 	mov	r0, r3
    19ec:	e24bd004 	sub	sp, fp, #4
    19f0:	e8bd8800 	pop	{fp, pc}

000019f4 <synapse_get_eligibility_trace>:
    19f4:	e92d4800 	push	{fp, lr}
    19f8:	e28db004 	add	fp, sp, #4
    19fc:	e24dd018 	sub	sp, sp, #24
    1a00:	e50b0010 	str	r0, [fp, #-16]
    1a04:	e50b1014 	str	r1, [fp, #-20]	@ 0xffffffec
    1a08:	e50b2018 	str	r2, [fp, #-24]	@ 0xffffffe8
    1a0c:	e51b1014 	ldr	r1, [fp, #-20]	@ 0xffffffec
    1a10:	e51b0010 	ldr	r0, [fp, #-16]
    1a14:	ebfffe04 	bl	122c <_find_synapse>
    1a18:	e50b0008 	str	r0, [fp, #-8]
    1a1c:	e51b3008 	ldr	r3, [fp, #-8]
    1a20:	e3530000 	cmp	r3, #0
    1a24:	1a000001 	bne	1a30 <synapse_get_eligibility_trace+0x3c>
    1a28:	e3e03000 	mvn	r3, #0
    1a2c:	ea000007 	b	1a50 <synapse_get_eligibility_trace+0x5c>
    1a30:	e51b3018 	ldr	r3, [fp, #-24]	@ 0xffffffe8
    1a34:	e3530000 	cmp	r3, #0
    1a38:	0a000003 	beq	1a4c <synapse_get_eligibility_trace+0x58>
    1a3c:	e51b3008 	ldr	r3, [fp, #-8]
    1a40:	e593200c 	ldr	r2, [r3, #12]
    1a44:	e51b3018 	ldr	r3, [fp, #-24]	@ 0xffffffe8
    1a48:	e5832000 	str	r2, [r3]
    1a4c:	e3a03000 	mov	r3, #0
    1a50:	e1a00003 	mov	r0, r3
    1a54:	e24bd004 	sub	sp, fp, #4
    1a58:	e8bd8800 	pop	{fp, pc}

00001a5c <_clear_slots>:
    1a5c:	e52db004 	push	{fp}		@ (str fp, [sp, #-4]!)
    1a60:	e28db000 	add	fp, sp, #0
    1a64:	e24dd00c 	sub	sp, sp, #12
    1a68:	e3a03000 	mov	r3, #0
    1a6c:	e50b3008 	str	r3, [fp, #-8]
    1a70:	ea000033 	b	1b44 <_clear_slots+0xe8>
    1a74:	e59f10e8 	ldr	r1, [pc, #232]	@ 1b64 <_clear_slots+0x108>
    1a78:	e51b2008 	ldr	r2, [fp, #-8]
    1a7c:	e1a03002 	mov	r3, r2
    1a80:	e1a03103 	lsl	r3, r3, #2
    1a84:	e0833002 	add	r3, r3, r2
    1a88:	e1a03103 	lsl	r3, r3, #2
    1a8c:	e0813003 	add	r3, r1, r3
    1a90:	e3a02000 	mov	r2, #0
    1a94:	e5832000 	str	r2, [r3]
    1a98:	e59f10c4 	ldr	r1, [pc, #196]	@ 1b64 <_clear_slots+0x108>
    1a9c:	e51b2008 	ldr	r2, [fp, #-8]
    1aa0:	e1a03002 	mov	r3, r2
    1aa4:	e1a03103 	lsl	r3, r3, #2
    1aa8:	e0833002 	add	r3, r3, r2
    1aac:	e1a03103 	lsl	r3, r3, #2
    1ab0:	e0813003 	add	r3, r1, r3
    1ab4:	e2833004 	add	r3, r3, #4
    1ab8:	e3a02000 	mov	r2, #0
    1abc:	e5832000 	str	r2, [r3]
    1ac0:	e59f109c 	ldr	r1, [pc, #156]	@ 1b64 <_clear_slots+0x108>
    1ac4:	e51b2008 	ldr	r2, [fp, #-8]
    1ac8:	e1a03002 	mov	r3, r2
    1acc:	e1a03103 	lsl	r3, r3, #2
    1ad0:	e0833002 	add	r3, r3, r2
    1ad4:	e1a03103 	lsl	r3, r3, #2
    1ad8:	e0813003 	add	r3, r1, r3
    1adc:	e2833008 	add	r3, r3, #8
    1ae0:	e3a02000 	mov	r2, #0
    1ae4:	e5832000 	str	r2, [r3]
    1ae8:	e59f1074 	ldr	r1, [pc, #116]	@ 1b64 <_clear_slots+0x108>
    1aec:	e51b2008 	ldr	r2, [fp, #-8]
    1af0:	e1a03002 	mov	r3, r2
    1af4:	e1a03103 	lsl	r3, r3, #2
    1af8:	e0833002 	add	r3, r3, r2
    1afc:	e1a03103 	lsl	r3, r3, #2
    1b00:	e0813003 	add	r3, r1, r3
    1b04:	e283300c 	add	r3, r3, #12
    1b08:	e3a02000 	mov	r2, #0
    1b0c:	e5832000 	str	r2, [r3]
    1b10:	e59f104c 	ldr	r1, [pc, #76]	@ 1b64 <_clear_slots+0x108>
    1b14:	e51b2008 	ldr	r2, [fp, #-8]
    1b18:	e1a03002 	mov	r3, r2
    1b1c:	e1a03103 	lsl	r3, r3, #2
    1b20:	e0833002 	add	r3, r3, r2
    1b24:	e1a03103 	lsl	r3, r3, #2
    1b28:	e0813003 	add	r3, r1, r3
    1b2c:	e2833010 	add	r3, r3, #16
    1b30:	e3a02000 	mov	r2, #0
    1b34:	e5c32000 	strb	r2, [r3]
    1b38:	e51b3008 	ldr	r3, [fp, #-8]
    1b3c:	e2833001 	add	r3, r3, #1
    1b40:	e50b3008 	str	r3, [fp, #-8]
    1b44:	e51b3008 	ldr	r3, [fp, #-8]
    1b48:	e3530007 	cmp	r3, #7
    1b4c:	9affffc8 	bls	1a74 <_clear_slots+0x18>
    1b50:	e1a00000 	nop			@ (mov r0, r0)
    1b54:	e1a00000 	nop			@ (mov r0, r0)
    1b58:	e28bd000 	add	sp, fp, #0
    1b5c:	e49db004 	pop	{fp}		@ (ldr fp, [sp], #4)
    1b60:	e12fff1e 	bx	lr
    1b64:	00400044 	.word	0x00400044

00001b68 <_clear_summary>:
    1b68:	e52db004 	push	{fp}		@ (str fp, [sp, #-4]!)
    1b6c:	e28db000 	add	fp, sp, #0
    1b70:	e24dd00c 	sub	sp, sp, #12
    1b74:	e50b0008 	str	r0, [fp, #-8]
    1b78:	e59f30d4 	ldr	r3, [pc, #212]	@ 1c54 <_clear_summary+0xec>
    1b7c:	e3a02000 	mov	r2, #0
    1b80:	e5832000 	str	r2, [r3]
    1b84:	e59f30c8 	ldr	r3, [pc, #200]	@ 1c54 <_clear_summary+0xec>
    1b88:	e3a02000 	mov	r2, #0
    1b8c:	e5832004 	str	r2, [r3, #4]
    1b90:	e59f30bc 	ldr	r3, [pc, #188]	@ 1c54 <_clear_summary+0xec>
    1b94:	e3a02000 	mov	r2, #0
    1b98:	e5832008 	str	r2, [r3, #8]
    1b9c:	e59f30b0 	ldr	r3, [pc, #176]	@ 1c54 <_clear_summary+0xec>
    1ba0:	e3a02000 	mov	r2, #0
    1ba4:	e583200c 	str	r2, [r3, #12]
    1ba8:	e59f30a4 	ldr	r3, [pc, #164]	@ 1c54 <_clear_summary+0xec>
    1bac:	e3a02000 	mov	r2, #0
    1bb0:	e5832010 	str	r2, [r3, #16]
    1bb4:	e59f3098 	ldr	r3, [pc, #152]	@ 1c54 <_clear_summary+0xec>
    1bb8:	e3a02000 	mov	r2, #0
    1bbc:	e5832014 	str	r2, [r3, #20]
    1bc0:	e59f308c 	ldr	r3, [pc, #140]	@ 1c54 <_clear_summary+0xec>
    1bc4:	e3a02000 	mov	r2, #0
    1bc8:	e5832018 	str	r2, [r3, #24]
    1bcc:	e59f3080 	ldr	r3, [pc, #128]	@ 1c54 <_clear_summary+0xec>
    1bd0:	e3a02000 	mov	r2, #0
    1bd4:	e583201c 	str	r2, [r3, #28]
    1bd8:	e59f3074 	ldr	r3, [pc, #116]	@ 1c54 <_clear_summary+0xec>
    1bdc:	e3a02000 	mov	r2, #0
    1be0:	e5832020 	str	r2, [r3, #32]
    1be4:	e59f3068 	ldr	r3, [pc, #104]	@ 1c54 <_clear_summary+0xec>
    1be8:	e3a02000 	mov	r2, #0
    1bec:	e5832024 	str	r2, [r3, #36]	@ 0x24
    1bf0:	e59f305c 	ldr	r3, [pc, #92]	@ 1c54 <_clear_summary+0xec>
    1bf4:	e3a02000 	mov	r2, #0
    1bf8:	e5832028 	str	r2, [r3, #40]	@ 0x28
    1bfc:	e59f2050 	ldr	r2, [pc, #80]	@ 1c54 <_clear_summary+0xec>
    1c00:	e51b3008 	ldr	r3, [fp, #-8]
    1c04:	e582302c 	str	r3, [r2, #44]	@ 0x2c
    1c08:	e59f3044 	ldr	r3, [pc, #68]	@ 1c54 <_clear_summary+0xec>
    1c0c:	e3a02000 	mov	r2, #0
    1c10:	e5832030 	str	r2, [r3, #48]	@ 0x30
    1c14:	e59f3038 	ldr	r3, [pc, #56]	@ 1c54 <_clear_summary+0xec>
    1c18:	e3a02000 	mov	r2, #0
    1c1c:	e5832034 	str	r2, [r3, #52]	@ 0x34
    1c20:	e59f302c 	ldr	r3, [pc, #44]	@ 1c54 <_clear_summary+0xec>
    1c24:	e3a02000 	mov	r2, #0
    1c28:	e5832038 	str	r2, [r3, #56]	@ 0x38
    1c2c:	e59f3020 	ldr	r3, [pc, #32]	@ 1c54 <_clear_summary+0xec>
    1c30:	e3a02000 	mov	r2, #0
    1c34:	e583203c 	str	r2, [r3, #60]	@ 0x3c
    1c38:	e59f3014 	ldr	r3, [pc, #20]	@ 1c54 <_clear_summary+0xec>
    1c3c:	e3a02000 	mov	r2, #0
    1c40:	e5832040 	str	r2, [r3, #64]	@ 0x40
    1c44:	e1a00000 	nop			@ (mov r0, r0)
    1c48:	e28bd000 	add	sp, fp, #0
    1c4c:	e49db004 	pop	{fp}		@ (ldr fp, [sp], #4)
    1c50:	e12fff1e 	bx	lr
    1c54:	004008e4 	.word	0x004008e4

00001c58 <_clear_pending>:
    1c58:	e52db004 	push	{fp}		@ (str fp, [sp, #-4]!)
    1c5c:	e28db000 	add	fp, sp, #0
    1c60:	e24dd00c 	sub	sp, sp, #12
    1c64:	e3a03000 	mov	r3, #0
    1c68:	e50b3008 	str	r3, [fp, #-8]
    1c6c:	ea000018 	b	1cd4 <_clear_pending+0x7c>
    1c70:	e59f207c 	ldr	r2, [pc, #124]	@ 1cf4 <_clear_pending+0x9c>
    1c74:	e51b3008 	ldr	r3, [fp, #-8]
    1c78:	e3a01000 	mov	r1, #0
    1c7c:	e7821203 	str	r1, [r2, r3, lsl #4]
    1c80:	e59f206c 	ldr	r2, [pc, #108]	@ 1cf4 <_clear_pending+0x9c>
    1c84:	e51b3008 	ldr	r3, [fp, #-8]
    1c88:	e1a03203 	lsl	r3, r3, #4
    1c8c:	e0823003 	add	r3, r2, r3
    1c90:	e3a02000 	mov	r2, #0
    1c94:	e5832004 	str	r2, [r3, #4]
    1c98:	e59f2054 	ldr	r2, [pc, #84]	@ 1cf4 <_clear_pending+0x9c>
    1c9c:	e51b3008 	ldr	r3, [fp, #-8]
    1ca0:	e1a03203 	lsl	r3, r3, #4
    1ca4:	e0823003 	add	r3, r2, r3
    1ca8:	e3a02000 	mov	r2, #0
    1cac:	e5832008 	str	r2, [r3, #8]
    1cb0:	e59f203c 	ldr	r2, [pc, #60]	@ 1cf4 <_clear_pending+0x9c>
    1cb4:	e51b3008 	ldr	r3, [fp, #-8]
    1cb8:	e1a03203 	lsl	r3, r3, #4
    1cbc:	e0823003 	add	r3, r2, r3
    1cc0:	e3a02000 	mov	r2, #0
    1cc4:	e5c3200c 	strb	r2, [r3, #12]
    1cc8:	e51b3008 	ldr	r3, [fp, #-8]
    1ccc:	e2833001 	add	r3, r3, #1
    1cd0:	e50b3008 	str	r3, [fp, #-8]
    1cd4:	e51b3008 	ldr	r3, [fp, #-8]
    1cd8:	e353007f 	cmp	r3, #127	@ 0x7f
    1cdc:	9affffe3 	bls	1c70 <_clear_pending+0x18>
    1ce0:	e1a00000 	nop			@ (mov r0, r0)
    1ce4:	e1a00000 	nop			@ (mov r0, r0)
    1ce8:	e28bd000 	add	sp, fp, #0
    1cec:	e49db004 	pop	{fp}		@ (ldr fp, [sp], #4)
    1cf0:	e12fff1e 	bx	lr
    1cf4:	004000e4 	.word	0x004000e4

00001cf8 <_find_slot>:
    1cf8:	e52db004 	push	{fp}		@ (str fp, [sp, #-4]!)
    1cfc:	e28db000 	add	fp, sp, #0
    1d00:	e24dd014 	sub	sp, sp, #20
    1d04:	e50b0010 	str	r0, [fp, #-16]
    1d08:	e3a03000 	mov	r3, #0
    1d0c:	e50b3008 	str	r3, [fp, #-8]
    1d10:	ea00001a 	b	1d80 <_find_slot+0x88>
    1d14:	e59f1084 	ldr	r1, [pc, #132]	@ 1da0 <_find_slot+0xa8>
    1d18:	e51b2008 	ldr	r2, [fp, #-8]
    1d1c:	e1a03002 	mov	r3, r2
    1d20:	e1a03103 	lsl	r3, r3, #2
    1d24:	e0833002 	add	r3, r3, r2
    1d28:	e1a03103 	lsl	r3, r3, #2
    1d2c:	e0813003 	add	r3, r1, r3
    1d30:	e2833010 	add	r3, r3, #16
    1d34:	e5d33000 	ldrb	r3, [r3]
    1d38:	e3530000 	cmp	r3, #0
    1d3c:	0a00000c 	beq	1d74 <_find_slot+0x7c>
    1d40:	e59f1058 	ldr	r1, [pc, #88]	@ 1da0 <_find_slot+0xa8>
    1d44:	e51b2008 	ldr	r2, [fp, #-8]
    1d48:	e1a03002 	mov	r3, r2
    1d4c:	e1a03103 	lsl	r3, r3, #2
    1d50:	e0833002 	add	r3, r3, r2
    1d54:	e1a03103 	lsl	r3, r3, #2
    1d58:	e0813003 	add	r3, r1, r3
    1d5c:	e5933000 	ldr	r3, [r3]
    1d60:	e51b2010 	ldr	r2, [fp, #-16]
    1d64:	e1520003 	cmp	r2, r3
    1d68:	1a000001 	bne	1d74 <_find_slot+0x7c>
    1d6c:	e51b3008 	ldr	r3, [fp, #-8]
    1d70:	ea000006 	b	1d90 <_find_slot+0x98>
    1d74:	e51b3008 	ldr	r3, [fp, #-8]
    1d78:	e2833001 	add	r3, r3, #1
    1d7c:	e50b3008 	str	r3, [fp, #-8]
    1d80:	e51b3008 	ldr	r3, [fp, #-8]
    1d84:	e3530007 	cmp	r3, #7
    1d88:	9affffe1 	bls	1d14 <_find_slot+0x1c>
    1d8c:	e3e03000 	mvn	r3, #0
    1d90:	e1a00003 	mov	r0, r3
    1d94:	e28bd000 	add	sp, fp, #0
    1d98:	e49db004 	pop	{fp}		@ (ldr fp, [sp], #4)
    1d9c:	e12fff1e 	bx	lr
    1da0:	00400044 	.word	0x00400044

00001da4 <_select_slot_for_write>:
    1da4:	e52db004 	push	{fp}		@ (str fp, [sp, #-4]!)
    1da8:	e28db000 	add	fp, sp, #0
    1dac:	e24dd024 	sub	sp, sp, #36	@ 0x24
    1db0:	e50b0020 	str	r0, [fp, #-32]	@ 0xffffffe0
    1db4:	e51b3020 	ldr	r3, [fp, #-32]	@ 0xffffffe0
    1db8:	e3a02000 	mov	r2, #0
    1dbc:	e5832000 	str	r2, [r3]
    1dc0:	e3a03000 	mov	r3, #0
    1dc4:	e50b3008 	str	r3, [fp, #-8]
    1dc8:	ea00000f 	b	1e0c <_select_slot_for_write+0x68>
    1dcc:	e59f1120 	ldr	r1, [pc, #288]	@ 1ef4 <_select_slot_for_write+0x150>
    1dd0:	e51b2008 	ldr	r2, [fp, #-8]
    1dd4:	e1a03002 	mov	r3, r2
    1dd8:	e1a03103 	lsl	r3, r3, #2
    1ddc:	e0833002 	add	r3, r3, r2
    1de0:	e1a03103 	lsl	r3, r3, #2
    1de4:	e0813003 	add	r3, r1, r3
    1de8:	e2833010 	add	r3, r3, #16
    1dec:	e5d33000 	ldrb	r3, [r3]
    1df0:	e3530000 	cmp	r3, #0
    1df4:	1a000001 	bne	1e00 <_select_slot_for_write+0x5c>
    1df8:	e51b3008 	ldr	r3, [fp, #-8]
    1dfc:	ea000038 	b	1ee4 <_select_slot_for_write+0x140>
    1e00:	e51b3008 	ldr	r3, [fp, #-8]
    1e04:	e2833001 	add	r3, r3, #1
    1e08:	e50b3008 	str	r3, [fp, #-8]
    1e0c:	e51b3008 	ldr	r3, [fp, #-8]
    1e10:	e3530007 	cmp	r3, #7
    1e14:	9affffec 	bls	1dcc <_select_slot_for_write+0x28>
    1e18:	e3a03000 	mov	r3, #0
    1e1c:	e50b300c 	str	r3, [fp, #-12]
    1e20:	e3a03001 	mov	r3, #1
    1e24:	e50b3010 	str	r3, [fp, #-16]
    1e28:	ea000026 	b	1ec8 <_select_slot_for_write+0x124>
    1e2c:	e51b2010 	ldr	r2, [fp, #-16]
    1e30:	e1a03002 	mov	r3, r2
    1e34:	e1a03103 	lsl	r3, r3, #2
    1e38:	e0833002 	add	r3, r3, r2
    1e3c:	e1a03103 	lsl	r3, r3, #2
    1e40:	e59f20ac 	ldr	r2, [pc, #172]	@ 1ef4 <_select_slot_for_write+0x150>
    1e44:	e0833002 	add	r3, r3, r2
    1e48:	e50b3014 	str	r3, [fp, #-20]	@ 0xffffffec
    1e4c:	e51b200c 	ldr	r2, [fp, #-12]
    1e50:	e1a03002 	mov	r3, r2
    1e54:	e1a03103 	lsl	r3, r3, #2
    1e58:	e0833002 	add	r3, r3, r2
    1e5c:	e1a03103 	lsl	r3, r3, #2
    1e60:	e59f208c 	ldr	r2, [pc, #140]	@ 1ef4 <_select_slot_for_write+0x150>
    1e64:	e0833002 	add	r3, r3, r2
    1e68:	e50b3018 	str	r3, [fp, #-24]	@ 0xffffffe8
    1e6c:	e51b3014 	ldr	r3, [fp, #-20]	@ 0xffffffec
    1e70:	e5932008 	ldr	r2, [r3, #8]
    1e74:	e51b3018 	ldr	r3, [fp, #-24]	@ 0xffffffe8
    1e78:	e5933008 	ldr	r3, [r3, #8]
    1e7c:	e1520003 	cmp	r2, r3
    1e80:	ba00000b 	blt	1eb4 <_select_slot_for_write+0x110>
    1e84:	e51b3014 	ldr	r3, [fp, #-20]	@ 0xffffffec
    1e88:	e5932008 	ldr	r2, [r3, #8]
    1e8c:	e51b3018 	ldr	r3, [fp, #-24]	@ 0xffffffe8
    1e90:	e5933008 	ldr	r3, [r3, #8]
    1e94:	e1520003 	cmp	r2, r3
    1e98:	1a000007 	bne	1ebc <_select_slot_for_write+0x118>
    1e9c:	e51b3014 	ldr	r3, [fp, #-20]	@ 0xffffffec
    1ea0:	e593200c 	ldr	r2, [r3, #12]
    1ea4:	e51b3018 	ldr	r3, [fp, #-24]	@ 0xffffffe8
    1ea8:	e593300c 	ldr	r3, [r3, #12]
    1eac:	e1520003 	cmp	r2, r3
    1eb0:	2a000001 	bcs	1ebc <_select_slot_for_write+0x118>
    1eb4:	e51b3010 	ldr	r3, [fp, #-16]
    1eb8:	e50b300c 	str	r3, [fp, #-12]
    1ebc:	e51b3010 	ldr	r3, [fp, #-16]
    1ec0:	e2833001 	add	r3, r3, #1
    1ec4:	e50b3010 	str	r3, [fp, #-16]
    1ec8:	e51b3010 	ldr	r3, [fp, #-16]
    1ecc:	e3530007 	cmp	r3, #7
    1ed0:	9affffd5 	bls	1e2c <_select_slot_for_write+0x88>
    1ed4:	e51b3020 	ldr	r3, [fp, #-32]	@ 0xffffffe0
    1ed8:	e3a02001 	mov	r2, #1
    1edc:	e5832000 	str	r2, [r3]
    1ee0:	e51b300c 	ldr	r3, [fp, #-12]
    1ee4:	e1a00003 	mov	r0, r3
    1ee8:	e28bd000 	add	sp, fp, #0
    1eec:	e49db004 	pop	{fp}		@ (ldr fp, [sp], #4)
    1ef0:	e12fff1e 	bx	lr
    1ef4:	00400044 	.word	0x00400044

00001ef8 <cra_state_init>:
    1ef8:	e92d4800 	push	{fp, lr}
    1efc:	e28db004 	add	fp, sp, #4
    1f00:	ebfffed5 	bl	1a5c <_clear_slots>
    1f04:	ebffff53 	bl	1c58 <_clear_pending>
    1f08:	e3a00000 	mov	r0, #0
    1f0c:	ebffff15 	bl	1b68 <_clear_summary>
    1f10:	e1a00000 	nop			@ (mov r0, r0)
    1f14:	e8bd8800 	pop	{fp, pc}

00001f18 <cra_state_reset>:
    1f18:	e92d4800 	push	{fp, lr}
    1f1c:	e28db004 	add	fp, sp, #4
    1f20:	e24dd008 	sub	sp, sp, #8
    1f24:	e59f3024 	ldr	r3, [pc, #36]	@ 1f50 <cra_state_reset+0x38>
    1f28:	e593302c 	ldr	r3, [r3, #44]	@ 0x2c
    1f2c:	e2833001 	add	r3, r3, #1
    1f30:	e50b3008 	str	r3, [fp, #-8]
    1f34:	ebfffec8 	bl	1a5c <_clear_slots>
    1f38:	ebffff46 	bl	1c58 <_clear_pending>
    1f3c:	e51b0008 	ldr	r0, [fp, #-8]
    1f40:	ebffff08 	bl	1b68 <_clear_summary>
    1f44:	e1a00000 	nop			@ (mov r0, r0)
    1f48:	e24bd004 	sub	sp, fp, #4
    1f4c:	e8bd8800 	pop	{fp, pc}
    1f50:	004008e4 	.word	0x004008e4

00001f54 <cra_state_write_context>:
    1f54:	e92d4800 	push	{fp, lr}
    1f58:	e28db004 	add	fp, sp, #4
    1f5c:	e24dd018 	sub	sp, sp, #24
    1f60:	e50b0010 	str	r0, [fp, #-16]
    1f64:	e50b1014 	str	r1, [fp, #-20]	@ 0xffffffec
    1f68:	e50b2018 	str	r2, [fp, #-24]	@ 0xffffffe8
    1f6c:	e50b301c 	str	r3, [fp, #-28]	@ 0xffffffe4
    1f70:	e51b0010 	ldr	r0, [fp, #-16]
    1f74:	ebffff5f 	bl	1cf8 <_find_slot>
    1f78:	e50b0008 	str	r0, [fp, #-8]
    1f7c:	e3a03000 	mov	r3, #0
    1f80:	e50b300c 	str	r3, [fp, #-12]
    1f84:	e51b3008 	ldr	r3, [fp, #-8]
    1f88:	e3530000 	cmp	r3, #0
    1f8c:	aa000003 	bge	1fa0 <cra_state_write_context+0x4c>
    1f90:	e24b300c 	sub	r3, fp, #12
    1f94:	e1a00003 	mov	r0, r3
    1f98:	ebffff81 	bl	1da4 <_select_slot_for_write>
    1f9c:	e50b0008 	str	r0, [fp, #-8]
    1fa0:	e51b3008 	ldr	r3, [fp, #-8]
    1fa4:	e3530000 	cmp	r3, #0
    1fa8:	aa000001 	bge	1fb4 <cra_state_write_context+0x60>
    1fac:	e3e03000 	mvn	r3, #0
    1fb0:	ea00004f 	b	20f4 <P2P_TABLE_SIZE+0xf4>
    1fb4:	e59f1144 	ldr	r1, [pc, #324]	@ 2100 <P2P_TABLE_SIZE+0x100>
    1fb8:	e51b2008 	ldr	r2, [fp, #-8]
    1fbc:	e1a03002 	mov	r3, r2
    1fc0:	e1a03103 	lsl	r3, r3, #2
    1fc4:	e0833002 	add	r3, r3, r2
    1fc8:	e1a03103 	lsl	r3, r3, #2
    1fcc:	e0813003 	add	r3, r1, r3
    1fd0:	e2833010 	add	r3, r3, #16
    1fd4:	e5d33000 	ldrb	r3, [r3]
    1fd8:	e3530000 	cmp	r3, #0
    1fdc:	1a000005 	bne	1ff8 <cra_state_write_context+0xa4>
    1fe0:	e59f311c 	ldr	r3, [pc, #284]	@ 2104 <P2P_TABLE_SIZE+0x104>
    1fe4:	e5933000 	ldr	r3, [r3]
    1fe8:	e2833001 	add	r3, r3, #1
    1fec:	e59f2110 	ldr	r2, [pc, #272]	@ 2104 <P2P_TABLE_SIZE+0x104>
    1ff0:	e5823000 	str	r3, [r2]
    1ff4:	ea000007 	b	2018 <P2P_TABLE_SIZE+0x18>
    1ff8:	e51b300c 	ldr	r3, [fp, #-12]
    1ffc:	e3530000 	cmp	r3, #0
    2000:	0a000004 	beq	2018 <P2P_TABLE_SIZE+0x18>
    2004:	e59f30f8 	ldr	r3, [pc, #248]	@ 2104 <P2P_TABLE_SIZE+0x104>
    2008:	e5933010 	ldr	r3, [r3, #16]
    200c:	e2833001 	add	r3, r3, #1
    2010:	e59f20ec 	ldr	r2, [pc, #236]	@ 2104 <P2P_TABLE_SIZE+0x104>
    2014:	e5823010 	str	r3, [r2, #16]
    2018:	e59f10e0 	ldr	r1, [pc, #224]	@ 2100 <P2P_TABLE_SIZE+0x100>
    201c:	e51b2008 	ldr	r2, [fp, #-8]
    2020:	e1a03002 	mov	r3, r2
    2024:	e1a03103 	lsl	r3, r3, #2
    2028:	e0833002 	add	r3, r3, r2
    202c:	e1a03103 	lsl	r3, r3, #2
    2030:	e0813003 	add	r3, r1, r3
    2034:	e51b2010 	ldr	r2, [fp, #-16]
    2038:	e5832000 	str	r2, [r3]
    203c:	e59f10bc 	ldr	r1, [pc, #188]	@ 2100 <P2P_TABLE_SIZE+0x100>
    2040:	e51b2008 	ldr	r2, [fp, #-8]
    2044:	e1a03002 	mov	r3, r2
    2048:	e1a03103 	lsl	r3, r3, #2
    204c:	e0833002 	add	r3, r3, r2
    2050:	e1a03103 	lsl	r3, r3, #2
    2054:	e0813003 	add	r3, r1, r3
    2058:	e2833004 	add	r3, r3, #4
    205c:	e51b2014 	ldr	r2, [fp, #-20]	@ 0xffffffec
    2060:	e5832000 	str	r2, [r3]
    2064:	e59f1094 	ldr	r1, [pc, #148]	@ 2100 <P2P_TABLE_SIZE+0x100>
    2068:	e51b2008 	ldr	r2, [fp, #-8]
    206c:	e1a03002 	mov	r3, r2
    2070:	e1a03103 	lsl	r3, r3, #2
    2074:	e0833002 	add	r3, r3, r2
    2078:	e1a03103 	lsl	r3, r3, #2
    207c:	e0813003 	add	r3, r1, r3
    2080:	e2833008 	add	r3, r3, #8
    2084:	e51b2018 	ldr	r2, [fp, #-24]	@ 0xffffffe8
    2088:	e5832000 	str	r2, [r3]
    208c:	e59f106c 	ldr	r1, [pc, #108]	@ 2100 <P2P_TABLE_SIZE+0x100>
    2090:	e51b2008 	ldr	r2, [fp, #-8]
    2094:	e1a03002 	mov	r3, r2
    2098:	e1a03103 	lsl	r3, r3, #2
    209c:	e0833002 	add	r3, r3, r2
    20a0:	e1a03103 	lsl	r3, r3, #2
    20a4:	e0813003 	add	r3, r1, r3
    20a8:	e283300c 	add	r3, r3, #12
    20ac:	e51b201c 	ldr	r2, [fp, #-28]	@ 0xffffffe4
    20b0:	e5832000 	str	r2, [r3]
    20b4:	e59f1044 	ldr	r1, [pc, #68]	@ 2100 <P2P_TABLE_SIZE+0x100>
    20b8:	e51b2008 	ldr	r2, [fp, #-8]
    20bc:	e1a03002 	mov	r3, r2
    20c0:	e1a03103 	lsl	r3, r3, #2
    20c4:	e0833002 	add	r3, r3, r2
    20c8:	e1a03103 	lsl	r3, r3, #2
    20cc:	e0813003 	add	r3, r1, r3
    20d0:	e2833010 	add	r3, r3, #16
    20d4:	e3a02001 	mov	r2, #1
    20d8:	e5c32000 	strb	r2, [r3]
    20dc:	e59f3020 	ldr	r3, [pc, #32]	@ 2104 <P2P_TABLE_SIZE+0x104>
    20e0:	e5933004 	ldr	r3, [r3, #4]
    20e4:	e2833001 	add	r3, r3, #1
    20e8:	e59f2014 	ldr	r2, [pc, #20]	@ 2104 <P2P_TABLE_SIZE+0x104>
    20ec:	e5823004 	str	r3, [r2, #4]
    20f0:	e3a03000 	mov	r3, #0
    20f4:	e1a00003 	mov	r0, r3
    20f8:	e24bd004 	sub	sp, fp, #4
    20fc:	e8bd8800 	pop	{fp, pc}
    2100:	00400044 	.word	0x00400044
    2104:	004008e4 	.word	0x004008e4

00002108 <cra_state_read_context>:
    2108:	e92d4800 	push	{fp, lr}
    210c:	e28db004 	add	fp, sp, #4
    2110:	e24dd018 	sub	sp, sp, #24
    2114:	e50b0010 	str	r0, [fp, #-16]
    2118:	e50b1014 	str	r1, [fp, #-20]	@ 0xffffffec
    211c:	e50b2018 	str	r2, [fp, #-24]	@ 0xffffffe8
    2120:	e51b0010 	ldr	r0, [fp, #-16]
    2124:	ebfffef3 	bl	1cf8 <_find_slot>
    2128:	e50b0008 	str	r0, [fp, #-8]
    212c:	e51b3008 	ldr	r3, [fp, #-8]
    2130:	e3530000 	cmp	r3, #0
    2134:	aa000006 	bge	2154 <cra_state_read_context+0x4c>
    2138:	e59f30a8 	ldr	r3, [pc, #168]	@ 21e8 <cra_state_read_context+0xe0>
    213c:	e593300c 	ldr	r3, [r3, #12]
    2140:	e2833001 	add	r3, r3, #1
    2144:	e59f209c 	ldr	r2, [pc, #156]	@ 21e8 <cra_state_read_context+0xe0>
    2148:	e582300c 	str	r3, [r2, #12]
    214c:	e3e03000 	mvn	r3, #0
    2150:	ea000021 	b	21dc <cra_state_read_context+0xd4>
    2154:	e51b3014 	ldr	r3, [fp, #-20]	@ 0xffffffec
    2158:	e3530000 	cmp	r3, #0
    215c:	0a00000a 	beq	218c <cra_state_read_context+0x84>
    2160:	e59f1084 	ldr	r1, [pc, #132]	@ 21ec <cra_state_read_context+0xe4>
    2164:	e51b2008 	ldr	r2, [fp, #-8]
    2168:	e1a03002 	mov	r3, r2
    216c:	e1a03103 	lsl	r3, r3, #2
    2170:	e0833002 	add	r3, r3, r2
    2174:	e1a03103 	lsl	r3, r3, #2
    2178:	e0813003 	add	r3, r1, r3
    217c:	e2833004 	add	r3, r3, #4
    2180:	e5932000 	ldr	r2, [r3]
    2184:	e51b3014 	ldr	r3, [fp, #-20]	@ 0xffffffec
    2188:	e5832000 	str	r2, [r3]
    218c:	e51b3018 	ldr	r3, [fp, #-24]	@ 0xffffffe8
    2190:	e3530000 	cmp	r3, #0
    2194:	0a00000a 	beq	21c4 <cra_state_read_context+0xbc>
    2198:	e59f104c 	ldr	r1, [pc, #76]	@ 21ec <cra_state_read_context+0xe4>
    219c:	e51b2008 	ldr	r2, [fp, #-8]
    21a0:	e1a03002 	mov	r3, r2
    21a4:	e1a03103 	lsl	r3, r3, #2
    21a8:	e0833002 	add	r3, r3, r2
    21ac:	e1a03103 	lsl	r3, r3, #2
    21b0:	e0813003 	add	r3, r1, r3
    21b4:	e2833008 	add	r3, r3, #8
    21b8:	e5932000 	ldr	r2, [r3]
    21bc:	e51b3018 	ldr	r3, [fp, #-24]	@ 0xffffffe8
    21c0:	e5832000 	str	r2, [r3]
    21c4:	e59f301c 	ldr	r3, [pc, #28]	@ 21e8 <cra_state_read_context+0xe0>
    21c8:	e5933008 	ldr	r3, [r3, #8]
    21cc:	e2833001 	add	r3, r3, #1
    21d0:	e59f2010 	ldr	r2, [pc, #16]	@ 21e8 <cra_state_read_context+0xe0>
    21d4:	e5823008 	str	r3, [r2, #8]
    21d8:	e3a03000 	mov	r3, #0
    21dc:	e1a00003 	mov	r0, r3
    21e0:	e24bd004 	sub	sp, fp, #4
    21e4:	e8bd8800 	pop	{fp, pc}
    21e8:	004008e4 	.word	0x004008e4
    21ec:	00400044 	.word	0x00400044

000021f0 <cra_state_active_slot_count>:
    21f0:	e52db004 	push	{fp}		@ (str fp, [sp, #-4]!)
    21f4:	e28db000 	add	fp, sp, #0
    21f8:	e59f3010 	ldr	r3, [pc, #16]	@ 2210 <cra_state_active_slot_count+0x20>
    21fc:	e5933000 	ldr	r3, [r3]
    2200:	e1a00003 	mov	r0, r3
    2204:	e28bd000 	add	sp, fp, #0
    2208:	e49db004 	pop	{fp}		@ (ldr fp, [sp], #4)
    220c:	e12fff1e 	bx	lr
    2210:	004008e4 	.word	0x004008e4

00002214 <cra_state_set_readout>:
    2214:	e52db004 	push	{fp}		@ (str fp, [sp, #-4]!)
    2218:	e28db000 	add	fp, sp, #0
    221c:	e24dd00c 	sub	sp, sp, #12
    2220:	e50b0008 	str	r0, [fp, #-8]
    2224:	e50b100c 	str	r1, [fp, #-12]
    2228:	e59f2020 	ldr	r2, [pc, #32]	@ 2250 <cra_state_set_readout+0x3c>
    222c:	e51b3008 	ldr	r3, [fp, #-8]
    2230:	e5823030 	str	r3, [r2, #48]	@ 0x30
    2234:	e59f2014 	ldr	r2, [pc, #20]	@ 2250 <cra_state_set_readout+0x3c>
    2238:	e51b300c 	ldr	r3, [fp, #-12]
    223c:	e5823034 	str	r3, [r2, #52]	@ 0x34
    2240:	e1a00000 	nop			@ (mov r0, r0)
    2244:	e28bd000 	add	sp, fp, #0
    2248:	e49db004 	pop	{fp}		@ (ldr fp, [sp], #4)
    224c:	e12fff1e 	bx	lr
    2250:	004008e4 	.word	0x004008e4

00002254 <cra_state_predict_readout>:
    2254:	e52db004 	push	{fp}		@ (str fp, [sp, #-4]!)
    2258:	e28db000 	add	fp, sp, #0
    225c:	e24dd00c 	sub	sp, sp, #12
    2260:	e50b0008 	str	r0, [fp, #-8]
    2264:	e59f3028 	ldr	r3, [pc, #40]	@ 2294 <cra_state_predict_readout+0x40>
    2268:	e5933030 	ldr	r3, [r3, #48]	@ 0x30
    226c:	e51b2008 	ldr	r2, [fp, #-8]
    2270:	e0030392 	mul	r3, r2, r3
    2274:	e1a027c3 	asr	r2, r3, #15
    2278:	e59f3014 	ldr	r3, [pc, #20]	@ 2294 <cra_state_predict_readout+0x40>
    227c:	e5933034 	ldr	r3, [r3, #52]	@ 0x34
    2280:	e0823003 	add	r3, r2, r3
    2284:	e1a00003 	mov	r0, r3
    2288:	e28bd000 	add	sp, fp, #0
    228c:	e49db004 	pop	{fp}		@ (ldr fp, [sp], #4)
    2290:	e12fff1e 	bx	lr
    2294:	004008e4 	.word	0x004008e4

00002298 <cra_state_record_decision>:
    2298:	e52db004 	push	{fp}		@ (str fp, [sp, #-4]!)
    229c:	e28db000 	add	fp, sp, #0
    22a0:	e24dd00c 	sub	sp, sp, #12
    22a4:	e50b0008 	str	r0, [fp, #-8]
    22a8:	e50b100c 	str	r1, [fp, #-12]
    22ac:	e59f3034 	ldr	r3, [pc, #52]	@ 22e8 <cra_state_record_decision+0x50>
    22b0:	e5933014 	ldr	r3, [r3, #20]
    22b4:	e2833001 	add	r3, r3, #1
    22b8:	e59f2028 	ldr	r2, [pc, #40]	@ 22e8 <cra_state_record_decision+0x50>
    22bc:	e5823014 	str	r3, [r2, #20]
    22c0:	e59f2020 	ldr	r2, [pc, #32]	@ 22e8 <cra_state_record_decision+0x50>
    22c4:	e51b3008 	ldr	r3, [fp, #-8]
    22c8:	e5823038 	str	r3, [r2, #56]	@ 0x38
    22cc:	e59f2014 	ldr	r2, [pc, #20]	@ 22e8 <cra_state_record_decision+0x50>
    22d0:	e51b300c 	ldr	r3, [fp, #-12]
    22d4:	e582303c 	str	r3, [r2, #60]	@ 0x3c
    22d8:	e1a00000 	nop			@ (mov r0, r0)
    22dc:	e28bd000 	add	sp, fp, #0
    22e0:	e49db004 	pop	{fp}		@ (ldr fp, [sp], #4)
    22e4:	e12fff1e 	bx	lr
    22e8:	004008e4 	.word	0x004008e4

000022ec <cra_state_record_reward>:
    22ec:	e52db004 	push	{fp}		@ (str fp, [sp, #-4]!)
    22f0:	e28db000 	add	fp, sp, #0
    22f4:	e24dd00c 	sub	sp, sp, #12
    22f8:	e50b0008 	str	r0, [fp, #-8]
    22fc:	e59f3028 	ldr	r3, [pc, #40]	@ 232c <cra_state_record_reward+0x40>
    2300:	e5933018 	ldr	r3, [r3, #24]
    2304:	e2833001 	add	r3, r3, #1
    2308:	e59f201c 	ldr	r2, [pc, #28]	@ 232c <cra_state_record_reward+0x40>
    230c:	e5823018 	str	r3, [r2, #24]
    2310:	e59f2014 	ldr	r2, [pc, #20]	@ 232c <cra_state_record_reward+0x40>
    2314:	e51b3008 	ldr	r3, [fp, #-8]
    2318:	e5823040 	str	r3, [r2, #64]	@ 0x40
    231c:	e1a00000 	nop			@ (mov r0, r0)
    2320:	e28bd000 	add	sp, fp, #0
    2324:	e49db004 	pop	{fp}		@ (ldr fp, [sp], #4)
    2328:	e12fff1e 	bx	lr
    232c:	004008e4 	.word	0x004008e4

00002330 <cra_state_apply_reward_to_readout>:
    2330:	e92d4800 	push	{fp, lr}
    2334:	e28db004 	add	fp, sp, #4
    2338:	e24dd018 	sub	sp, sp, #24
    233c:	e50b0018 	str	r0, [fp, #-24]	@ 0xffffffe8
    2340:	e50b101c 	str	r1, [fp, #-28]	@ 0xffffffe4
    2344:	e59f308c 	ldr	r3, [pc, #140]	@ 23d8 <cra_state_apply_reward_to_readout+0xa8>
    2348:	e593303c 	ldr	r3, [r3, #60]	@ 0x3c
    234c:	e51b2018 	ldr	r2, [fp, #-24]	@ 0xffffffe8
    2350:	e0423003 	sub	r3, r2, r3
    2354:	e50b3008 	str	r3, [fp, #-8]
    2358:	e59f3078 	ldr	r3, [pc, #120]	@ 23d8 <cra_state_apply_reward_to_readout+0xa8>
    235c:	e5933038 	ldr	r3, [r3, #56]	@ 0x38
    2360:	e51b2008 	ldr	r2, [fp, #-8]
    2364:	e0030392 	mul	r3, r2, r3
    2368:	e1a037c3 	asr	r3, r3, #15
    236c:	e51b201c 	ldr	r2, [fp, #-28]	@ 0xffffffe4
    2370:	e0030392 	mul	r3, r2, r3
    2374:	e1a037c3 	asr	r3, r3, #15
    2378:	e50b300c 	str	r3, [fp, #-12]
    237c:	e51b301c 	ldr	r3, [fp, #-28]	@ 0xffffffe4
    2380:	e51b2008 	ldr	r2, [fp, #-8]
    2384:	e0030392 	mul	r3, r2, r3
    2388:	e1a037c3 	asr	r3, r3, #15
    238c:	e50b3010 	str	r3, [fp, #-16]
    2390:	e59f3040 	ldr	r3, [pc, #64]	@ 23d8 <cra_state_apply_reward_to_readout+0xa8>
    2394:	e5932030 	ldr	r2, [r3, #48]	@ 0x30
    2398:	e51b300c 	ldr	r3, [fp, #-12]
    239c:	e0823003 	add	r3, r2, r3
    23a0:	e59f2030 	ldr	r2, [pc, #48]	@ 23d8 <cra_state_apply_reward_to_readout+0xa8>
    23a4:	e5823030 	str	r3, [r2, #48]	@ 0x30
    23a8:	e59f3028 	ldr	r3, [pc, #40]	@ 23d8 <cra_state_apply_reward_to_readout+0xa8>
    23ac:	e5932034 	ldr	r2, [r3, #52]	@ 0x34
    23b0:	e51b3010 	ldr	r3, [fp, #-16]
    23b4:	e0823003 	add	r3, r2, r3
    23b8:	e59f2018 	ldr	r2, [pc, #24]	@ 23d8 <cra_state_apply_reward_to_readout+0xa8>
    23bc:	e5823034 	str	r3, [r2, #52]	@ 0x34
    23c0:	e51b0018 	ldr	r0, [fp, #-24]	@ 0xffffffe8
    23c4:	ebffffc8 	bl	22ec <cra_state_record_reward>
    23c8:	e51b300c 	ldr	r3, [fp, #-12]
    23cc:	e1a00003 	mov	r0, r3
    23d0:	e24bd004 	sub	sp, fp, #4
    23d4:	e8bd8800 	pop	{fp, pc}
    23d8:	004008e4 	.word	0x004008e4

000023dc <_apply_reward_to_feature_prediction>:
    23dc:	e52db004 	push	{fp}		@ (str fp, [sp, #-4]!)
    23e0:	e28db000 	add	fp, sp, #0
    23e4:	e24dd024 	sub	sp, sp, #36	@ 0x24
    23e8:	e50b0018 	str	r0, [fp, #-24]	@ 0xffffffe8
    23ec:	e50b101c 	str	r1, [fp, #-28]	@ 0xffffffe4
    23f0:	e50b2020 	str	r2, [fp, #-32]	@ 0xffffffe0
    23f4:	e50b3024 	str	r3, [fp, #-36]	@ 0xffffffdc
    23f8:	e51b2020 	ldr	r2, [fp, #-32]	@ 0xffffffe0
    23fc:	e51b301c 	ldr	r3, [fp, #-28]	@ 0xffffffe4
    2400:	e0423003 	sub	r3, r2, r3
    2404:	e50b3008 	str	r3, [fp, #-8]
    2408:	e51b3008 	ldr	r3, [fp, #-8]
    240c:	e51b2018 	ldr	r2, [fp, #-24]	@ 0xffffffe8
    2410:	e0030392 	mul	r3, r2, r3
    2414:	e1a037c3 	asr	r3, r3, #15
    2418:	e51b2024 	ldr	r2, [fp, #-36]	@ 0xffffffdc
    241c:	e0030392 	mul	r3, r2, r3
    2420:	e1a037c3 	asr	r3, r3, #15
    2424:	e50b300c 	str	r3, [fp, #-12]
    2428:	e51b3024 	ldr	r3, [fp, #-36]	@ 0xffffffdc
    242c:	e51b2008 	ldr	r2, [fp, #-8]
    2430:	e0030392 	mul	r3, r2, r3
    2434:	e1a037c3 	asr	r3, r3, #15
    2438:	e50b3010 	str	r3, [fp, #-16]
    243c:	e59f3074 	ldr	r3, [pc, #116]	@ 24b8 <_apply_reward_to_feature_prediction+0xdc>
    2440:	e5932030 	ldr	r2, [r3, #48]	@ 0x30
    2444:	e51b300c 	ldr	r3, [fp, #-12]
    2448:	e0823003 	add	r3, r2, r3
    244c:	e59f2064 	ldr	r2, [pc, #100]	@ 24b8 <_apply_reward_to_feature_prediction+0xdc>
    2450:	e5823030 	str	r3, [r2, #48]	@ 0x30
    2454:	e59f305c 	ldr	r3, [pc, #92]	@ 24b8 <_apply_reward_to_feature_prediction+0xdc>
    2458:	e5932034 	ldr	r2, [r3, #52]	@ 0x34
    245c:	e51b3010 	ldr	r3, [fp, #-16]
    2460:	e0823003 	add	r3, r2, r3
    2464:	e59f204c 	ldr	r2, [pc, #76]	@ 24b8 <_apply_reward_to_feature_prediction+0xdc>
    2468:	e5823034 	str	r3, [r2, #52]	@ 0x34
    246c:	e59f3044 	ldr	r3, [pc, #68]	@ 24b8 <_apply_reward_to_feature_prediction+0xdc>
    2470:	e5933018 	ldr	r3, [r3, #24]
    2474:	e2833001 	add	r3, r3, #1
    2478:	e59f2038 	ldr	r2, [pc, #56]	@ 24b8 <_apply_reward_to_feature_prediction+0xdc>
    247c:	e5823018 	str	r3, [r2, #24]
    2480:	e59f2030 	ldr	r2, [pc, #48]	@ 24b8 <_apply_reward_to_feature_prediction+0xdc>
    2484:	e51b3018 	ldr	r3, [fp, #-24]	@ 0xffffffe8
    2488:	e5823038 	str	r3, [r2, #56]	@ 0x38
    248c:	e59f2024 	ldr	r2, [pc, #36]	@ 24b8 <_apply_reward_to_feature_prediction+0xdc>
    2490:	e51b301c 	ldr	r3, [fp, #-28]	@ 0xffffffe4
    2494:	e582303c 	str	r3, [r2, #60]	@ 0x3c
    2498:	e59f2018 	ldr	r2, [pc, #24]	@ 24b8 <_apply_reward_to_feature_prediction+0xdc>
    249c:	e51b3020 	ldr	r3, [fp, #-32]	@ 0xffffffe0
    24a0:	e5823040 	str	r3, [r2, #64]	@ 0x40
    24a4:	e51b300c 	ldr	r3, [fp, #-12]
    24a8:	e1a00003 	mov	r0, r3
    24ac:	e28bd000 	add	sp, fp, #0
    24b0:	e49db004 	pop	{fp}		@ (ldr fp, [sp], #4)
    24b4:	e12fff1e 	bx	lr
    24b8:	004008e4 	.word	0x004008e4

000024bc <cra_state_schedule_pending_horizon>:
    24bc:	e52db004 	push	{fp}		@ (str fp, [sp, #-4]!)
    24c0:	e28db000 	add	fp, sp, #0
    24c4:	e24dd01c 	sub	sp, sp, #28
    24c8:	e50b0010 	str	r0, [fp, #-16]
    24cc:	e50b1014 	str	r1, [fp, #-20]	@ 0xffffffec
    24d0:	e50b2018 	str	r2, [fp, #-24]	@ 0xffffffe8
    24d4:	e3a03000 	mov	r3, #0
    24d8:	e50b3008 	str	r3, [fp, #-8]
    24dc:	ea00002b 	b	2590 <cra_state_schedule_pending_horizon+0xd4>
    24e0:	e59f20dc 	ldr	r2, [pc, #220]	@ 25c4 <cra_state_schedule_pending_horizon+0x108>
    24e4:	e51b3008 	ldr	r3, [fp, #-8]
    24e8:	e1a03203 	lsl	r3, r3, #4
    24ec:	e0823003 	add	r3, r2, r3
    24f0:	e5d3300c 	ldrb	r3, [r3, #12]
    24f4:	e3530000 	cmp	r3, #0
    24f8:	1a000021 	bne	2584 <cra_state_schedule_pending_horizon+0xc8>
    24fc:	e59f10c0 	ldr	r1, [pc, #192]	@ 25c4 <cra_state_schedule_pending_horizon+0x108>
    2500:	e51b3008 	ldr	r3, [fp, #-8]
    2504:	e51b2018 	ldr	r2, [fp, #-24]	@ 0xffffffe8
    2508:	e7812203 	str	r2, [r1, r3, lsl #4]
    250c:	e59f20b0 	ldr	r2, [pc, #176]	@ 25c4 <cra_state_schedule_pending_horizon+0x108>
    2510:	e51b3008 	ldr	r3, [fp, #-8]
    2514:	e1a03203 	lsl	r3, r3, #4
    2518:	e0823003 	add	r3, r2, r3
    251c:	e51b2010 	ldr	r2, [fp, #-16]
    2520:	e5832004 	str	r2, [r3, #4]
    2524:	e59f2098 	ldr	r2, [pc, #152]	@ 25c4 <cra_state_schedule_pending_horizon+0x108>
    2528:	e51b3008 	ldr	r3, [fp, #-8]
    252c:	e1a03203 	lsl	r3, r3, #4
    2530:	e0823003 	add	r3, r2, r3
    2534:	e51b2014 	ldr	r2, [fp, #-20]	@ 0xffffffec
    2538:	e5832008 	str	r2, [r3, #8]
    253c:	e59f2080 	ldr	r2, [pc, #128]	@ 25c4 <cra_state_schedule_pending_horizon+0x108>
    2540:	e51b3008 	ldr	r3, [fp, #-8]
    2544:	e1a03203 	lsl	r3, r3, #4
    2548:	e0823003 	add	r3, r2, r3
    254c:	e3a02001 	mov	r2, #1
    2550:	e5c3200c 	strb	r2, [r3, #12]
    2554:	e59f306c 	ldr	r3, [pc, #108]	@ 25c8 <cra_state_schedule_pending_horizon+0x10c>
    2558:	e593301c 	ldr	r3, [r3, #28]
    255c:	e2833001 	add	r3, r3, #1
    2560:	e59f2060 	ldr	r2, [pc, #96]	@ 25c8 <cra_state_schedule_pending_horizon+0x10c>
    2564:	e582301c 	str	r3, [r2, #28]
    2568:	e59f3058 	ldr	r3, [pc, #88]	@ 25c8 <cra_state_schedule_pending_horizon+0x10c>
    256c:	e5933028 	ldr	r3, [r3, #40]	@ 0x28
    2570:	e2833001 	add	r3, r3, #1
    2574:	e59f204c 	ldr	r2, [pc, #76]	@ 25c8 <cra_state_schedule_pending_horizon+0x10c>
    2578:	e5823028 	str	r3, [r2, #40]	@ 0x28
    257c:	e3a03000 	mov	r3, #0
    2580:	ea00000b 	b	25b4 <cra_state_schedule_pending_horizon+0xf8>
    2584:	e51b3008 	ldr	r3, [fp, #-8]
    2588:	e2833001 	add	r3, r3, #1
    258c:	e50b3008 	str	r3, [fp, #-8]
    2590:	e51b3008 	ldr	r3, [fp, #-8]
    2594:	e353007f 	cmp	r3, #127	@ 0x7f
    2598:	9affffd0 	bls	24e0 <cra_state_schedule_pending_horizon+0x24>
    259c:	e59f3024 	ldr	r3, [pc, #36]	@ 25c8 <cra_state_schedule_pending_horizon+0x10c>
    25a0:	e5933024 	ldr	r3, [r3, #36]	@ 0x24
    25a4:	e2833001 	add	r3, r3, #1
    25a8:	e59f2018 	ldr	r2, [pc, #24]	@ 25c8 <cra_state_schedule_pending_horizon+0x10c>
    25ac:	e5823024 	str	r3, [r2, #36]	@ 0x24
    25b0:	e3e03000 	mvn	r3, #0
    25b4:	e1a00003 	mov	r0, r3
    25b8:	e28bd000 	add	sp, fp, #0
    25bc:	e49db004 	pop	{fp}		@ (ldr fp, [sp], #4)
    25c0:	e12fff1e 	bx	lr
    25c4:	004000e4 	.word	0x004000e4
    25c8:	004008e4 	.word	0x004008e4

000025cc <cra_state_mature_pending_horizons>:
    25cc:	e92d4800 	push	{fp, lr}
    25d0:	e28db004 	add	fp, sp, #4
    25d4:	e24dd018 	sub	sp, sp, #24
    25d8:	e50b0010 	str	r0, [fp, #-16]
    25dc:	e50b1014 	str	r1, [fp, #-20]	@ 0xffffffec
    25e0:	e50b2018 	str	r2, [fp, #-24]	@ 0xffffffe8
    25e4:	e3a03000 	mov	r3, #0
    25e8:	e50b3008 	str	r3, [fp, #-8]
    25ec:	e3a03000 	mov	r3, #0
    25f0:	e50b300c 	str	r3, [fp, #-12]
    25f4:	ea000033 	b	26c8 <cra_state_mature_pending_horizons+0xfc>
    25f8:	e59f20e4 	ldr	r2, [pc, #228]	@ 26e4 <cra_state_mature_pending_horizons+0x118>
    25fc:	e51b300c 	ldr	r3, [fp, #-12]
    2600:	e1a03203 	lsl	r3, r3, #4
    2604:	e0823003 	add	r3, r2, r3
    2608:	e5d3300c 	ldrb	r3, [r3, #12]
    260c:	e3530000 	cmp	r3, #0
    2610:	0a000029 	beq	26bc <cra_state_mature_pending_horizons+0xf0>
    2614:	e59f20c8 	ldr	r2, [pc, #200]	@ 26e4 <cra_state_mature_pending_horizons+0x118>
    2618:	e51b300c 	ldr	r3, [fp, #-12]
    261c:	e7923203 	ldr	r3, [r2, r3, lsl #4]
    2620:	e51b2010 	ldr	r2, [fp, #-16]
    2624:	e1520003 	cmp	r2, r3
    2628:	3a000023 	bcc	26bc <cra_state_mature_pending_horizons+0xf0>
    262c:	e59f20b0 	ldr	r2, [pc, #176]	@ 26e4 <cra_state_mature_pending_horizons+0x118>
    2630:	e51b300c 	ldr	r3, [fp, #-12]
    2634:	e1a03203 	lsl	r3, r3, #4
    2638:	e0823003 	add	r3, r2, r3
    263c:	e5930004 	ldr	r0, [r3, #4]
    2640:	e59f209c 	ldr	r2, [pc, #156]	@ 26e4 <cra_state_mature_pending_horizons+0x118>
    2644:	e51b300c 	ldr	r3, [fp, #-12]
    2648:	e1a03203 	lsl	r3, r3, #4
    264c:	e0823003 	add	r3, r2, r3
    2650:	e5931008 	ldr	r1, [r3, #8]
    2654:	e51b3018 	ldr	r3, [fp, #-24]	@ 0xffffffe8
    2658:	e51b2014 	ldr	r2, [fp, #-20]	@ 0xffffffec
    265c:	ebffff5e 	bl	23dc <_apply_reward_to_feature_prediction>
    2660:	e59f207c 	ldr	r2, [pc, #124]	@ 26e4 <cra_state_mature_pending_horizons+0x118>
    2664:	e51b300c 	ldr	r3, [fp, #-12]
    2668:	e1a03203 	lsl	r3, r3, #4
    266c:	e0823003 	add	r3, r2, r3
    2670:	e3a02000 	mov	r2, #0
    2674:	e5c3200c 	strb	r2, [r3, #12]
    2678:	e59f3068 	ldr	r3, [pc, #104]	@ 26e8 <cra_state_mature_pending_horizons+0x11c>
    267c:	e5933028 	ldr	r3, [r3, #40]	@ 0x28
    2680:	e3530000 	cmp	r3, #0
    2684:	0a000004 	beq	269c <cra_state_mature_pending_horizons+0xd0>
    2688:	e59f3058 	ldr	r3, [pc, #88]	@ 26e8 <cra_state_mature_pending_horizons+0x11c>
    268c:	e5933028 	ldr	r3, [r3, #40]	@ 0x28
    2690:	e2433001 	sub	r3, r3, #1
    2694:	e59f204c 	ldr	r2, [pc, #76]	@ 26e8 <cra_state_mature_pending_horizons+0x11c>
    2698:	e5823028 	str	r3, [r2, #40]	@ 0x28
    269c:	e59f3044 	ldr	r3, [pc, #68]	@ 26e8 <cra_state_mature_pending_horizons+0x11c>
    26a0:	e5933020 	ldr	r3, [r3, #32]
    26a4:	e2833001 	add	r3, r3, #1
    26a8:	e59f2038 	ldr	r2, [pc, #56]	@ 26e8 <cra_state_mature_pending_horizons+0x11c>
    26ac:	e5823020 	str	r3, [r2, #32]
    26b0:	e51b3008 	ldr	r3, [fp, #-8]
    26b4:	e2833001 	add	r3, r3, #1
    26b8:	e50b3008 	str	r3, [fp, #-8]
    26bc:	e51b300c 	ldr	r3, [fp, #-12]
    26c0:	e2833001 	add	r3, r3, #1
    26c4:	e50b300c 	str	r3, [fp, #-12]
    26c8:	e51b300c 	ldr	r3, [fp, #-12]
    26cc:	e353007f 	cmp	r3, #127	@ 0x7f
    26d0:	9affffc8 	bls	25f8 <cra_state_mature_pending_horizons+0x2c>
    26d4:	e51b3008 	ldr	r3, [fp, #-8]
    26d8:	e1a00003 	mov	r0, r3
    26dc:	e24bd004 	sub	sp, fp, #4
    26e0:	e8bd8800 	pop	{fp, pc}
    26e4:	004000e4 	.word	0x004000e4
    26e8:	004008e4 	.word	0x004008e4

000026ec <cra_state_active_pending_count>:
    26ec:	e52db004 	push	{fp}		@ (str fp, [sp, #-4]!)
    26f0:	e28db000 	add	fp, sp, #0
    26f4:	e59f3010 	ldr	r3, [pc, #16]	@ 270c <cra_state_active_pending_count+0x20>
    26f8:	e5933028 	ldr	r3, [r3, #40]	@ 0x28
    26fc:	e1a00003 	mov	r0, r3
    2700:	e28bd000 	add	sp, fp, #0
    2704:	e49db004 	pop	{fp}		@ (ldr fp, [sp], #4)
    2708:	e12fff1e 	bx	lr
    270c:	004008e4 	.word	0x004008e4

00002710 <cra_state_get_summary>:
    2710:	e92d4800 	push	{fp, lr}
    2714:	e28db004 	add	fp, sp, #4
    2718:	e24dd008 	sub	sp, sp, #8
    271c:	e50b0008 	str	r0, [fp, #-8]
    2720:	e51b3008 	ldr	r3, [fp, #-8]
    2724:	e3530000 	cmp	r3, #0
    2728:	0a000007 	beq	274c <cra_state_get_summary+0x3c>
    272c:	e51b3008 	ldr	r3, [fp, #-8]
    2730:	e59f2020 	ldr	r2, [pc, #32]	@ 2758 <cra_state_get_summary+0x48>
    2734:	e1a00003 	mov	r0, r3
    2738:	e1a01002 	mov	r1, r2
    273c:	e3a03044 	mov	r3, #68	@ 0x44
    2740:	e1a02003 	mov	r2, r3
    2744:	eb000b21 	bl	53d0 <memcpy>
    2748:	ea000000 	b	2750 <cra_state_get_summary+0x40>
    274c:	e1a00000 	nop			@ (mov r0, r0)
    2750:	e24bd004 	sub	sp, fp, #4
    2754:	e8bd8800 	pop	{fp, pc}
    2758:	004008e4 	.word	0x004008e4

0000275c <spin1_msg_free>:
    275c:	e92d4800 	push	{fp, lr}
    2760:	e28db004 	add	fp, sp, #4
    2764:	e24dd008 	sub	sp, sp, #8
    2768:	e50b0008 	str	r0, [fp, #-8]
    276c:	e51b0008 	ldr	r0, [fp, #-8]
    2770:	fa0003a9 	blx	361c <sark_msg_free>
    2774:	e1a00000 	nop			@ (mov r0, r0)
    2778:	e24bd004 	sub	sp, fp, #4
    277c:	e8bd8800 	pop	{fp, pc}

00002780 <spin1_msg_get>:
    2780:	e92d4800 	push	{fp, lr}
    2784:	e28db004 	add	fp, sp, #4
    2788:	fa000397 	blx	35ec <sark_msg_get>
    278c:	e1a03000 	mov	r3, r0
    2790:	e1a00003 	mov	r0, r3
    2794:	e8bd8800 	pop	{fp, pc}

00002798 <spin1_send_sdp_msg>:
    2798:	e92d4800 	push	{fp, lr}
    279c:	e28db004 	add	fp, sp, #4
    27a0:	e24dd008 	sub	sp, sp, #8
    27a4:	e50b0008 	str	r0, [fp, #-8]
    27a8:	e50b100c 	str	r1, [fp, #-12]
    27ac:	e51b100c 	ldr	r1, [fp, #-12]
    27b0:	e51b0008 	ldr	r0, [fp, #-8]
    27b4:	fa000409 	blx	37e0 <sark_msg_send>
    27b8:	e1a03000 	mov	r3, r0
    27bc:	e1a00003 	mov	r0, r3
    27c0:	e24bd004 	sub	sp, fp, #4
    27c4:	e8bd8800 	pop	{fp, pc}

000027c8 <_read_s32>:
    27c8:	e52db004 	push	{fp}		@ (str fp, [sp, #-4]!)
    27cc:	e28db000 	add	fp, sp, #0
    27d0:	e24dd00c 	sub	sp, sp, #12
    27d4:	e50b0008 	str	r0, [fp, #-8]
    27d8:	e51b3008 	ldr	r3, [fp, #-8]
    27dc:	e5d33000 	ldrb	r3, [r3]
    27e0:	e1a02003 	mov	r2, r3
    27e4:	e51b3008 	ldr	r3, [fp, #-8]
    27e8:	e2833001 	add	r3, r3, #1
    27ec:	e5d33000 	ldrb	r3, [r3]
    27f0:	e1a03403 	lsl	r3, r3, #8
    27f4:	e1822003 	orr	r2, r2, r3
    27f8:	e51b3008 	ldr	r3, [fp, #-8]
    27fc:	e2833002 	add	r3, r3, #2
    2800:	e5d33000 	ldrb	r3, [r3]
    2804:	e1a03803 	lsl	r3, r3, #16
    2808:	e1822003 	orr	r2, r2, r3
    280c:	e51b3008 	ldr	r3, [fp, #-8]
    2810:	e2833003 	add	r3, r3, #3
    2814:	e5d33000 	ldrb	r3, [r3]
    2818:	e1a03c03 	lsl	r3, r3, #24
    281c:	e1823003 	orr	r3, r2, r3
    2820:	e1a00003 	mov	r0, r3
    2824:	e28bd000 	add	sp, fp, #0
    2828:	e49db004 	pop	{fp}		@ (ldr fp, [sp], #4)
    282c:	e12fff1e 	bx	lr

00002830 <_write_u32>:
    2830:	e52db004 	push	{fp}		@ (str fp, [sp, #-4]!)
    2834:	e28db000 	add	fp, sp, #0
    2838:	e24dd00c 	sub	sp, sp, #12
    283c:	e50b0008 	str	r0, [fp, #-8]
    2840:	e50b100c 	str	r1, [fp, #-12]
    2844:	e51b300c 	ldr	r3, [fp, #-12]
    2848:	e20320ff 	and	r2, r3, #255	@ 0xff
    284c:	e51b3008 	ldr	r3, [fp, #-8]
    2850:	e5c32000 	strb	r2, [r3]
    2854:	e51b300c 	ldr	r3, [fp, #-12]
    2858:	e1a02423 	lsr	r2, r3, #8
    285c:	e51b3008 	ldr	r3, [fp, #-8]
    2860:	e2833001 	add	r3, r3, #1
    2864:	e20220ff 	and	r2, r2, #255	@ 0xff
    2868:	e5c32000 	strb	r2, [r3]
    286c:	e51b300c 	ldr	r3, [fp, #-12]
    2870:	e1a02823 	lsr	r2, r3, #16
    2874:	e51b3008 	ldr	r3, [fp, #-8]
    2878:	e2833002 	add	r3, r3, #2
    287c:	e20220ff 	and	r2, r2, #255	@ 0xff
    2880:	e5c32000 	strb	r2, [r3]
    2884:	e51b300c 	ldr	r3, [fp, #-12]
    2888:	e1a02c23 	lsr	r2, r3, #24
    288c:	e51b3008 	ldr	r3, [fp, #-8]
    2890:	e2833003 	add	r3, r3, #3
    2894:	e20220ff 	and	r2, r2, #255	@ 0xff
    2898:	e5c32000 	strb	r2, [r3]
    289c:	e1a00000 	nop			@ (mov r0, r0)
    28a0:	e28bd000 	add	sp, fp, #0
    28a4:	e49db004 	pop	{fp}		@ (ldr fp, [sp], #4)
    28a8:	e12fff1e 	bx	lr

000028ac <_write_s32>:
    28ac:	e92d4800 	push	{fp, lr}
    28b0:	e28db004 	add	fp, sp, #4
    28b4:	e24dd008 	sub	sp, sp, #8
    28b8:	e50b0008 	str	r0, [fp, #-8]
    28bc:	e50b100c 	str	r1, [fp, #-12]
    28c0:	e51b300c 	ldr	r3, [fp, #-12]
    28c4:	e1a01003 	mov	r1, r3
    28c8:	e51b0008 	ldr	r0, [fp, #-8]
    28cc:	ebffffd7 	bl	2830 <_write_u32>
    28d0:	e1a00000 	nop			@ (mov r0, r0)
    28d4:	e24bd004 	sub	sp, fp, #4
    28d8:	e8bd8800 	pop	{fp, pc}

000028dc <_handle_birth>:
    28dc:	e92d4800 	push	{fp, lr}
    28e0:	e28db004 	add	fp, sp, #4
    28e4:	e24dd018 	sub	sp, sp, #24
    28e8:	e50b0018 	str	r0, [fp, #-24]	@ 0xffffffe8
    28ec:	e51b3018 	ldr	r3, [fp, #-24]	@ 0xffffffe8
    28f0:	e1d330b4 	ldrh	r3, [r3, #4]
    28f4:	e353000c 	cmp	r3, #12
    28f8:	9a00002e 	bls	29b8 <_handle_birth+0xdc>
    28fc:	e51b3018 	ldr	r3, [fp, #-24]	@ 0xffffffe8
    2900:	e2833021 	add	r3, r3, #33	@ 0x21
    2904:	e1a00003 	mov	r0, r3
    2908:	ebffffae 	bl	27c8 <_read_s32>
    290c:	e1a03000 	mov	r3, r0
    2910:	e50b3008 	str	r3, [fp, #-8]
    2914:	e51b0008 	ldr	r0, [fp, #-8]
    2918:	ebfff75c 	bl	690 <neuron_birth>
    291c:	e50b000c 	str	r0, [fp, #-12]
    2920:	e3a03001 	mov	r3, #1
    2924:	e54b3014 	strb	r3, [fp, #-20]	@ 0xffffffec
    2928:	e51b300c 	ldr	r3, [fp, #-12]
    292c:	e3530000 	cmp	r3, #0
    2930:	03a03001 	moveq	r3, #1
    2934:	13a03000 	movne	r3, #0
    2938:	e20330ff 	and	r3, r3, #255	@ 0xff
    293c:	e54b3013 	strb	r3, [fp, #-19]	@ 0xffffffed
    2940:	e51b3008 	ldr	r3, [fp, #-8]
    2944:	e20330ff 	and	r3, r3, #255	@ 0xff
    2948:	e54b3012 	strb	r3, [fp, #-18]	@ 0xffffffee
    294c:	e51b3008 	ldr	r3, [fp, #-8]
    2950:	e1a03423 	lsr	r3, r3, #8
    2954:	e20330ff 	and	r3, r3, #255	@ 0xff
    2958:	e54b3011 	strb	r3, [fp, #-17]	@ 0xffffffef
    295c:	e51b3008 	ldr	r3, [fp, #-8]
    2960:	e1a03823 	lsr	r3, r3, #16
    2964:	e20330ff 	and	r3, r3, #255	@ 0xff
    2968:	e54b3010 	strb	r3, [fp, #-16]
    296c:	e51b3008 	ldr	r3, [fp, #-8]
    2970:	e1a03c23 	lsr	r3, r3, #24
    2974:	e20330ff 	and	r3, r3, #255	@ 0xff
    2978:	e54b300f 	strb	r3, [fp, #-15]
    297c:	ebfff845 	bl	a98 <neuron_count>
    2980:	e1a03000 	mov	r3, r0
    2984:	e20330ff 	and	r3, r3, #255	@ 0xff
    2988:	e54b300e 	strb	r3, [fp, #-14]
    298c:	ebfff841 	bl	a98 <neuron_count>
    2990:	e1a03000 	mov	r3, r0
    2994:	e1a03423 	lsr	r3, r3, #8
    2998:	e20330ff 	and	r3, r3, #255	@ 0xff
    299c:	e54b300d 	strb	r3, [fp, #-13]
    29a0:	e24b3014 	sub	r3, fp, #20
    29a4:	e3a02008 	mov	r2, #8
    29a8:	e1a01003 	mov	r1, r3
    29ac:	e51b0018 	ldr	r0, [fp, #-24]	@ 0xffffffe8
    29b0:	eb0001e4 	bl	3148 <sdp_send_reply>
    29b4:	ea000000 	b	29bc <_handle_birth+0xe0>
    29b8:	e1a00000 	nop			@ (mov r0, r0)
    29bc:	e24bd004 	sub	sp, fp, #4
    29c0:	e8bd8800 	pop	{fp, pc}

000029c4 <_handle_death>:
    29c4:	e92d4800 	push	{fp, lr}
    29c8:	e28db004 	add	fp, sp, #4
    29cc:	e24dd018 	sub	sp, sp, #24
    29d0:	e50b0018 	str	r0, [fp, #-24]	@ 0xffffffe8
    29d4:	e51b3018 	ldr	r3, [fp, #-24]	@ 0xffffffe8
    29d8:	e1d330b4 	ldrh	r3, [r3, #4]
    29dc:	e353000c 	cmp	r3, #12
    29e0:	9a00001f 	bls	2a64 <_handle_death+0xa0>
    29e4:	e51b3018 	ldr	r3, [fp, #-24]	@ 0xffffffe8
    29e8:	e2833021 	add	r3, r3, #33	@ 0x21
    29ec:	e1a00003 	mov	r0, r3
    29f0:	ebffff74 	bl	27c8 <_read_s32>
    29f4:	e1a03000 	mov	r3, r0
    29f8:	e50b3008 	str	r3, [fp, #-8]
    29fc:	e51b0008 	ldr	r0, [fp, #-8]
    2a00:	ebfff771 	bl	7cc <neuron_death>
    2a04:	e50b000c 	str	r0, [fp, #-12]
    2a08:	e3a03002 	mov	r3, #2
    2a0c:	e54b3010 	strb	r3, [fp, #-16]
    2a10:	e51b300c 	ldr	r3, [fp, #-12]
    2a14:	e3530000 	cmp	r3, #0
    2a18:	13a03001 	movne	r3, #1
    2a1c:	03a03000 	moveq	r3, #0
    2a20:	e20330ff 	and	r3, r3, #255	@ 0xff
    2a24:	e54b300f 	strb	r3, [fp, #-15]
    2a28:	ebfff81a 	bl	a98 <neuron_count>
    2a2c:	e1a03000 	mov	r3, r0
    2a30:	e20330ff 	and	r3, r3, #255	@ 0xff
    2a34:	e54b300e 	strb	r3, [fp, #-14]
    2a38:	ebfff816 	bl	a98 <neuron_count>
    2a3c:	e1a03000 	mov	r3, r0
    2a40:	e1a03423 	lsr	r3, r3, #8
    2a44:	e20330ff 	and	r3, r3, #255	@ 0xff
    2a48:	e54b300d 	strb	r3, [fp, #-13]
    2a4c:	e24b3010 	sub	r3, fp, #16
    2a50:	e3a02004 	mov	r2, #4
    2a54:	e1a01003 	mov	r1, r3
    2a58:	e51b0018 	ldr	r0, [fp, #-24]	@ 0xffffffe8
    2a5c:	eb0001b9 	bl	3148 <sdp_send_reply>
    2a60:	ea000000 	b	2a68 <_handle_death+0xa4>
    2a64:	e1a00000 	nop			@ (mov r0, r0)
    2a68:	e24bd004 	sub	sp, fp, #4
    2a6c:	e8bd8800 	pop	{fp, pc}

00002a70 <_handle_dopamine>:
    2a70:	e92d4800 	push	{fp, lr}
    2a74:	e28db004 	add	fp, sp, #4
    2a78:	e24dd010 	sub	sp, sp, #16
    2a7c:	e50b0010 	str	r0, [fp, #-16]
    2a80:	e51b3010 	ldr	r3, [fp, #-16]
    2a84:	e1d330b4 	ldrh	r3, [r3, #4]
    2a88:	e353000c 	cmp	r3, #12
    2a8c:	9a000023 	bls	2b20 <_handle_dopamine+0xb0>
    2a90:	e51b3010 	ldr	r3, [fp, #-16]
    2a94:	e2833021 	add	r3, r3, #33	@ 0x21
    2a98:	e1a00003 	mov	r0, r3
    2a9c:	ebffff49 	bl	27c8 <_read_s32>
    2aa0:	e1a03000 	mov	r3, r0
    2aa4:	e59f2080 	ldr	r2, [pc, #128]	@ 2b2c <_handle_dopamine+0xbc>
    2aa8:	e5823000 	str	r3, [r2]
    2aac:	e3a03003 	mov	r3, #3
    2ab0:	e54b300c 	strb	r3, [fp, #-12]
    2ab4:	e3a03000 	mov	r3, #0
    2ab8:	e54b300b 	strb	r3, [fp, #-11]
    2abc:	e59f3068 	ldr	r3, [pc, #104]	@ 2b2c <_handle_dopamine+0xbc>
    2ac0:	e5933000 	ldr	r3, [r3]
    2ac4:	e20330ff 	and	r3, r3, #255	@ 0xff
    2ac8:	e54b300a 	strb	r3, [fp, #-10]
    2acc:	e59f3058 	ldr	r3, [pc, #88]	@ 2b2c <_handle_dopamine+0xbc>
    2ad0:	e5933000 	ldr	r3, [r3]
    2ad4:	e1a03443 	asr	r3, r3, #8
    2ad8:	e20330ff 	and	r3, r3, #255	@ 0xff
    2adc:	e54b3009 	strb	r3, [fp, #-9]
    2ae0:	e59f3044 	ldr	r3, [pc, #68]	@ 2b2c <_handle_dopamine+0xbc>
    2ae4:	e5933000 	ldr	r3, [r3]
    2ae8:	e1a03843 	asr	r3, r3, #16
    2aec:	e20330ff 	and	r3, r3, #255	@ 0xff
    2af0:	e54b3008 	strb	r3, [fp, #-8]
    2af4:	e59f3030 	ldr	r3, [pc, #48]	@ 2b2c <_handle_dopamine+0xbc>
    2af8:	e5933000 	ldr	r3, [r3]
    2afc:	e1a03c43 	asr	r3, r3, #24
    2b00:	e20330ff 	and	r3, r3, #255	@ 0xff
    2b04:	e54b3007 	strb	r3, [fp, #-7]
    2b08:	e24b300c 	sub	r3, fp, #12
    2b0c:	e3a02006 	mov	r2, #6
    2b10:	e1a01003 	mov	r1, r3
    2b14:	e51b0010 	ldr	r0, [fp, #-16]
    2b18:	eb00018a 	bl	3148 <sdp_send_reply>
    2b1c:	ea000000 	b	2b24 <_handle_dopamine+0xb4>
    2b20:	e1a00000 	nop			@ (mov r0, r0)
    2b24:	e24bd004 	sub	sp, fp, #4
    2b28:	e8bd8800 	pop	{fp, pc}
    2b2c:	00400014 	.word	0x00400014

00002b30 <_handle_read_spikes>:
    2b30:	e92d4800 	push	{fp, lr}
    2b34:	e28db004 	add	fp, sp, #4
    2b38:	e24dd018 	sub	sp, sp, #24
    2b3c:	e50b0018 	str	r0, [fp, #-24]	@ 0xffffffe8
    2b40:	e3a03004 	mov	r3, #4
    2b44:	e54b3010 	strb	r3, [fp, #-16]
    2b48:	ebfff7d2 	bl	a98 <neuron_count>
    2b4c:	e50b0008 	str	r0, [fp, #-8]
    2b50:	e51b3008 	ldr	r3, [fp, #-8]
    2b54:	e20330ff 	and	r3, r3, #255	@ 0xff
    2b58:	e54b300f 	strb	r3, [fp, #-15]
    2b5c:	e51b3008 	ldr	r3, [fp, #-8]
    2b60:	e1a03423 	lsr	r3, r3, #8
    2b64:	e20330ff 	and	r3, r3, #255	@ 0xff
    2b68:	e54b300e 	strb	r3, [fp, #-14]
    2b6c:	e59f303c 	ldr	r3, [pc, #60]	@ 2bb0 <_handle_read_spikes+0x80>
    2b70:	e5933000 	ldr	r3, [r3]
    2b74:	e20330ff 	and	r3, r3, #255	@ 0xff
    2b78:	e54b300d 	strb	r3, [fp, #-13]
    2b7c:	e59f302c 	ldr	r3, [pc, #44]	@ 2bb0 <_handle_read_spikes+0x80>
    2b80:	e5933000 	ldr	r3, [r3]
    2b84:	e1a03423 	lsr	r3, r3, #8
    2b88:	e20330ff 	and	r3, r3, #255	@ 0xff
    2b8c:	e54b300c 	strb	r3, [fp, #-12]
    2b90:	e24b3010 	sub	r3, fp, #16
    2b94:	e3a02005 	mov	r2, #5
    2b98:	e1a01003 	mov	r1, r3
    2b9c:	e51b0018 	ldr	r0, [fp, #-24]	@ 0xffffffe8
    2ba0:	eb000168 	bl	3148 <sdp_send_reply>
    2ba4:	e1a00000 	nop			@ (mov r0, r0)
    2ba8:	e24bd004 	sub	sp, fp, #4
    2bac:	e8bd8800 	pop	{fp, pc}
    2bb0:	00400010 	.word	0x00400010

00002bb4 <_handle_create_syn>:
    2bb4:	e92d4800 	push	{fp, lr}
    2bb8:	e28db004 	add	fp, sp, #4
    2bbc:	e24dd020 	sub	sp, sp, #32
    2bc0:	e50b0020 	str	r0, [fp, #-32]	@ 0xffffffe0
    2bc4:	e51b3020 	ldr	r3, [fp, #-32]	@ 0xffffffe0
    2bc8:	e1d330b4 	ldrh	r3, [r3, #4]
    2bcc:	e3530014 	cmp	r3, #20
    2bd0:	9a000024 	bls	2c68 <_handle_create_syn+0xb4>
    2bd4:	e51b3020 	ldr	r3, [fp, #-32]	@ 0xffffffe0
    2bd8:	e2833021 	add	r3, r3, #33	@ 0x21
    2bdc:	e1a00003 	mov	r0, r3
    2be0:	ebfffef8 	bl	27c8 <_read_s32>
    2be4:	e1a03000 	mov	r3, r0
    2be8:	e50b3008 	str	r3, [fp, #-8]
    2bec:	e51b3020 	ldr	r3, [fp, #-32]	@ 0xffffffe0
    2bf0:	e2833025 	add	r3, r3, #37	@ 0x25
    2bf4:	e1a00003 	mov	r0, r3
    2bf8:	ebfffef2 	bl	27c8 <_read_s32>
    2bfc:	e1a03000 	mov	r3, r0
    2c00:	e50b300c 	str	r3, [fp, #-12]
    2c04:	e51b3020 	ldr	r3, [fp, #-32]	@ 0xffffffe0
    2c08:	e2833029 	add	r3, r3, #41	@ 0x29
    2c0c:	e1a00003 	mov	r0, r3
    2c10:	ebfffeec 	bl	27c8 <_read_s32>
    2c14:	e50b0010 	str	r0, [fp, #-16]
    2c18:	e3a03001 	mov	r3, #1
    2c1c:	e51b2010 	ldr	r2, [fp, #-16]
    2c20:	e51b100c 	ldr	r1, [fp, #-12]
    2c24:	e51b0008 	ldr	r0, [fp, #-8]
    2c28:	ebfff9a1 	bl	12b4 <synapse_create>
    2c2c:	e50b0014 	str	r0, [fp, #-20]	@ 0xffffffec
    2c30:	e3a03005 	mov	r3, #5
    2c34:	e54b3018 	strb	r3, [fp, #-24]	@ 0xffffffe8
    2c38:	e51b3014 	ldr	r3, [fp, #-20]	@ 0xffffffec
    2c3c:	e3530000 	cmp	r3, #0
    2c40:	13a03001 	movne	r3, #1
    2c44:	03a03000 	moveq	r3, #0
    2c48:	e20330ff 	and	r3, r3, #255	@ 0xff
    2c4c:	e54b3017 	strb	r3, [fp, #-23]	@ 0xffffffe9
    2c50:	e24b3018 	sub	r3, fp, #24
    2c54:	e3a02002 	mov	r2, #2
    2c58:	e1a01003 	mov	r1, r3
    2c5c:	e51b0020 	ldr	r0, [fp, #-32]	@ 0xffffffe0
    2c60:	eb000138 	bl	3148 <sdp_send_reply>
    2c64:	ea000000 	b	2c6c <_handle_create_syn+0xb8>
    2c68:	e1a00000 	nop			@ (mov r0, r0)
    2c6c:	e24bd004 	sub	sp, fp, #4
    2c70:	e8bd8800 	pop	{fp, pc}

00002c74 <_handle_remove_syn>:
    2c74:	e92d4800 	push	{fp, lr}
    2c78:	e28db004 	add	fp, sp, #4
    2c7c:	e24dd018 	sub	sp, sp, #24
    2c80:	e50b0018 	str	r0, [fp, #-24]	@ 0xffffffe8
    2c84:	e51b3018 	ldr	r3, [fp, #-24]	@ 0xffffffe8
    2c88:	e1d330b4 	ldrh	r3, [r3, #4]
    2c8c:	e3530010 	cmp	r3, #16
    2c90:	9a00001d 	bls	2d0c <_handle_remove_syn+0x98>
    2c94:	e51b3018 	ldr	r3, [fp, #-24]	@ 0xffffffe8
    2c98:	e2833021 	add	r3, r3, #33	@ 0x21
    2c9c:	e1a00003 	mov	r0, r3
    2ca0:	ebfffec8 	bl	27c8 <_read_s32>
    2ca4:	e1a03000 	mov	r3, r0
    2ca8:	e50b3008 	str	r3, [fp, #-8]
    2cac:	e51b3018 	ldr	r3, [fp, #-24]	@ 0xffffffe8
    2cb0:	e2833025 	add	r3, r3, #37	@ 0x25
    2cb4:	e1a00003 	mov	r0, r3
    2cb8:	ebfffec2 	bl	27c8 <_read_s32>
    2cbc:	e1a03000 	mov	r3, r0
    2cc0:	e50b300c 	str	r3, [fp, #-12]
    2cc4:	e51b100c 	ldr	r1, [fp, #-12]
    2cc8:	e51b0008 	ldr	r0, [fp, #-8]
    2ccc:	ebfff9c6 	bl	13ec <synapse_remove>
    2cd0:	e50b0010 	str	r0, [fp, #-16]
    2cd4:	e3a03006 	mov	r3, #6
    2cd8:	e54b3014 	strb	r3, [fp, #-20]	@ 0xffffffec
    2cdc:	e51b3010 	ldr	r3, [fp, #-16]
    2ce0:	e3530000 	cmp	r3, #0
    2ce4:	13a03001 	movne	r3, #1
    2ce8:	03a03000 	moveq	r3, #0
    2cec:	e20330ff 	and	r3, r3, #255	@ 0xff
    2cf0:	e54b3013 	strb	r3, [fp, #-19]	@ 0xffffffed
    2cf4:	e24b3014 	sub	r3, fp, #20
    2cf8:	e3a02002 	mov	r2, #2
    2cfc:	e1a01003 	mov	r1, r3
    2d00:	e51b0018 	ldr	r0, [fp, #-24]	@ 0xffffffe8
    2d04:	eb00010f 	bl	3148 <sdp_send_reply>
    2d08:	ea000000 	b	2d10 <_handle_remove_syn+0x9c>
    2d0c:	e1a00000 	nop			@ (mov r0, r0)
    2d10:	e24bd004 	sub	sp, fp, #4
    2d14:	e8bd8800 	pop	{fp, pc}

00002d18 <_handle_reset>:
    2d18:	e92d4800 	push	{fp, lr}
    2d1c:	e28db004 	add	fp, sp, #4
    2d20:	e24dd010 	sub	sp, sp, #16
    2d24:	e50b0010 	str	r0, [fp, #-16]
    2d28:	eb0001f1 	bl	34f4 <router_reset_all>
    2d2c:	ebfff76b 	bl	ae0 <neuron_reset_all>
    2d30:	ebfffa9e 	bl	17b0 <synapse_reset_all>
    2d34:	ebfffc77 	bl	1f18 <cra_state_reset>
    2d38:	e59f3040 	ldr	r3, [pc, #64]	@ 2d80 <_handle_reset+0x68>
    2d3c:	e3a02000 	mov	r2, #0
    2d40:	e5832000 	str	r2, [r3]
    2d44:	e59f3038 	ldr	r3, [pc, #56]	@ 2d84 <_handle_reset+0x6c>
    2d48:	e3a02000 	mov	r2, #0
    2d4c:	e5832000 	str	r2, [r3]
    2d50:	e3a03007 	mov	r3, #7
    2d54:	e54b3008 	strb	r3, [fp, #-8]
    2d58:	e3a03000 	mov	r3, #0
    2d5c:	e54b3007 	strb	r3, [fp, #-7]
    2d60:	e24b3008 	sub	r3, fp, #8
    2d64:	e3a02002 	mov	r2, #2
    2d68:	e1a01003 	mov	r1, r3
    2d6c:	e51b0010 	ldr	r0, [fp, #-16]
    2d70:	eb0000f4 	bl	3148 <sdp_send_reply>
    2d74:	e1a00000 	nop			@ (mov r0, r0)
    2d78:	e24bd004 	sub	sp, fp, #4
    2d7c:	e8bd8800 	pop	{fp, pc}
    2d80:	00400014 	.word	0x00400014
    2d84:	00400010 	.word	0x00400010

00002d88 <_handle_read_state>:
    2d88:	e92d4800 	push	{fp, lr}
    2d8c:	e28db004 	add	fp, sp, #4
    2d90:	e24dd070 	sub	sp, sp, #112	@ 0x70
    2d94:	e50b0070 	str	r0, [fp, #-112]	@ 0xffffff90
    2d98:	e24b3068 	sub	r3, fp, #104	@ 0x68
    2d9c:	e3a01060 	mov	r1, #96	@ 0x60
    2da0:	e1a00003 	mov	r0, r3
    2da4:	eb000051 	bl	2ef0 <host_if_pack_state_summary>
    2da8:	e1a03000 	mov	r3, r0
    2dac:	e54b3005 	strb	r3, [fp, #-5]
    2db0:	e55b3005 	ldrb	r3, [fp, #-5]
    2db4:	e3530000 	cmp	r3, #0
    2db8:	0a000005 	beq	2dd4 <_handle_read_state+0x4c>
    2dbc:	e55b2005 	ldrb	r2, [fp, #-5]
    2dc0:	e24b3068 	sub	r3, fp, #104	@ 0x68
    2dc4:	e1a01003 	mov	r1, r3
    2dc8:	e51b0070 	ldr	r0, [fp, #-112]	@ 0xffffff90
    2dcc:	eb0000dd 	bl	3148 <sdp_send_reply>
    2dd0:	ea000000 	b	2dd8 <_handle_read_state+0x50>
    2dd4:	e1a00000 	nop			@ (mov r0, r0)
    2dd8:	e24bd004 	sub	sp, fp, #4
    2ddc:	e8bd8800 	pop	{fp, pc}

00002de0 <host_if_init>:
    2de0:	e52db004 	push	{fp}		@ (str fp, [sp, #-4]!)
    2de4:	e28db000 	add	fp, sp, #0
    2de8:	e1a00000 	nop			@ (mov r0, r0)
    2dec:	e28bd000 	add	sp, fp, #0
    2df0:	e49db004 	pop	{fp}		@ (ldr fp, [sp], #4)
    2df4:	e12fff1e 	bx	lr

00002df8 <sdp_rx_callback>:
    2df8:	e92d4800 	push	{fp, lr}
    2dfc:	e28db004 	add	fp, sp, #4
    2e00:	e24dd010 	sub	sp, sp, #16
    2e04:	e50b0010 	str	r0, [fp, #-16]
    2e08:	e50b1014 	str	r1, [fp, #-20]	@ 0xffffffec
    2e0c:	e51b3010 	ldr	r3, [fp, #-16]
    2e10:	e50b3008 	str	r3, [fp, #-8]
    2e14:	e51b3008 	ldr	r3, [fp, #-8]
    2e18:	e5d33020 	ldrb	r3, [r3, #32]
    2e1c:	e54b3009 	strb	r3, [fp, #-9]
    2e20:	e55b3009 	ldrb	r3, [fp, #-9]
    2e24:	e2433001 	sub	r3, r3, #1
    2e28:	e3530007 	cmp	r3, #7
    2e2c:	979ff103 	ldrls	pc, [pc, r3, lsl #2]
    2e30:	ea00001f 	b	2eb4 <sdp_rx_callback+0xbc>
    2e34:	00002e54 	.word	0x00002e54
    2e38:	00002e60 	.word	0x00002e60
    2e3c:	00002e6c 	.word	0x00002e6c
    2e40:	00002e78 	.word	0x00002e78
    2e44:	00002e84 	.word	0x00002e84
    2e48:	00002e90 	.word	0x00002e90
    2e4c:	00002e9c 	.word	0x00002e9c
    2e50:	00002ea8 	.word	0x00002ea8
    2e54:	e51b0008 	ldr	r0, [fp, #-8]
    2e58:	ebfffe9f 	bl	28dc <_handle_birth>
    2e5c:	ea00001e 	b	2edc <sdp_rx_callback+0xe4>
    2e60:	e51b0008 	ldr	r0, [fp, #-8]
    2e64:	ebfffed6 	bl	29c4 <_handle_death>
    2e68:	ea00001b 	b	2edc <sdp_rx_callback+0xe4>
    2e6c:	e51b0008 	ldr	r0, [fp, #-8]
    2e70:	ebfffefe 	bl	2a70 <_handle_dopamine>
    2e74:	ea000018 	b	2edc <sdp_rx_callback+0xe4>
    2e78:	e51b0008 	ldr	r0, [fp, #-8]
    2e7c:	ebffff2b 	bl	2b30 <_handle_read_spikes>
    2e80:	ea000015 	b	2edc <sdp_rx_callback+0xe4>
    2e84:	e51b0008 	ldr	r0, [fp, #-8]
    2e88:	ebffff49 	bl	2bb4 <_handle_create_syn>
    2e8c:	ea000012 	b	2edc <sdp_rx_callback+0xe4>
    2e90:	e51b0008 	ldr	r0, [fp, #-8]
    2e94:	ebffff76 	bl	2c74 <_handle_remove_syn>
    2e98:	ea00000f 	b	2edc <sdp_rx_callback+0xe4>
    2e9c:	e51b0008 	ldr	r0, [fp, #-8]
    2ea0:	ebffff9c 	bl	2d18 <_handle_reset>
    2ea4:	ea00000c 	b	2edc <sdp_rx_callback+0xe4>
    2ea8:	e51b0008 	ldr	r0, [fp, #-8]
    2eac:	ebffffb5 	bl	2d88 <_handle_read_state>
    2eb0:	ea000009 	b	2edc <sdp_rx_callback+0xe4>
    2eb4:	e55b3009 	ldrb	r3, [fp, #-9]
    2eb8:	e54b300c 	strb	r3, [fp, #-12]
    2ebc:	e3e03000 	mvn	r3, #0
    2ec0:	e54b300b 	strb	r3, [fp, #-11]
    2ec4:	e24b300c 	sub	r3, fp, #12
    2ec8:	e3a02002 	mov	r2, #2
    2ecc:	e1a01003 	mov	r1, r3
    2ed0:	e51b0008 	ldr	r0, [fp, #-8]
    2ed4:	eb00009b 	bl	3148 <sdp_send_reply>
    2ed8:	e1a00000 	nop			@ (mov r0, r0)
    2edc:	e51b0008 	ldr	r0, [fp, #-8]
    2ee0:	ebfffe1d 	bl	275c <spin1_msg_free>
    2ee4:	e1a00000 	nop			@ (mov r0, r0)
    2ee8:	e24bd004 	sub	sp, fp, #4
    2eec:	e8bd8800 	pop	{fp, pc}

00002ef0 <host_if_pack_state_summary>:
    2ef0:	e92d4810 	push	{r4, fp, lr}
    2ef4:	e28db008 	add	fp, sp, #8
    2ef8:	e24dd054 	sub	sp, sp, #84	@ 0x54
    2efc:	e50b0058 	str	r0, [fp, #-88]	@ 0xffffffa8
    2f00:	e1a03001 	mov	r3, r1
    2f04:	e54b3059 	strb	r3, [fp, #-89]	@ 0xffffffa7
    2f08:	e3a03049 	mov	r3, #73	@ 0x49
    2f0c:	e54b300d 	strb	r3, [fp, #-13]
    2f10:	e51b3058 	ldr	r3, [fp, #-88]	@ 0xffffffa8
    2f14:	e3530000 	cmp	r3, #0
    2f18:	0a000003 	beq	2f2c <host_if_pack_state_summary+0x3c>
    2f1c:	e55b2059 	ldrb	r2, [fp, #-89]	@ 0xffffffa7
    2f20:	e55b300d 	ldrb	r3, [fp, #-13]
    2f24:	e1520003 	cmp	r2, r3
    2f28:	2a000001 	bcs	2f34 <host_if_pack_state_summary+0x44>
    2f2c:	e3a03000 	mov	r3, #0
    2f30:	ea000080 	b	3138 <host_if_pack_state_summary+0x248>
    2f34:	e24b3054 	sub	r3, fp, #84	@ 0x54
    2f38:	e1a00003 	mov	r0, r3
    2f3c:	ebfffdf3 	bl	2710 <cra_state_get_summary>
    2f40:	e51b3058 	ldr	r3, [fp, #-88]	@ 0xffffffa8
    2f44:	e3a02008 	mov	r2, #8
    2f48:	e5c32000 	strb	r2, [r3]
    2f4c:	e51b3058 	ldr	r3, [fp, #-88]	@ 0xffffffa8
    2f50:	e2833001 	add	r3, r3, #1
    2f54:	e3a02000 	mov	r2, #0
    2f58:	e5c32000 	strb	r2, [r3]
    2f5c:	e51b3058 	ldr	r3, [fp, #-88]	@ 0xffffffa8
    2f60:	e2833002 	add	r3, r3, #2
    2f64:	e3a02001 	mov	r2, #1
    2f68:	e5c32000 	strb	r2, [r3]
    2f6c:	e51b3058 	ldr	r3, [fp, #-88]	@ 0xffffffa8
    2f70:	e2833003 	add	r3, r3, #3
    2f74:	e3a02000 	mov	r2, #0
    2f78:	e5c32000 	strb	r2, [r3]
    2f7c:	e51b3058 	ldr	r3, [fp, #-88]	@ 0xffffffa8
    2f80:	e2833004 	add	r3, r3, #4
    2f84:	e59f21b8 	ldr	r2, [pc, #440]	@ 3144 <host_if_pack_state_summary+0x254>
    2f88:	e5922000 	ldr	r2, [r2]
    2f8c:	e1a01002 	mov	r1, r2
    2f90:	e1a00003 	mov	r0, r3
    2f94:	ebfffe25 	bl	2830 <_write_u32>
    2f98:	e51b3058 	ldr	r3, [fp, #-88]	@ 0xffffffa8
    2f9c:	e2834008 	add	r4, r3, #8
    2fa0:	ebfff6bc 	bl	a98 <neuron_count>
    2fa4:	e1a03000 	mov	r3, r0
    2fa8:	e1a01003 	mov	r1, r3
    2fac:	e1a00004 	mov	r0, r4
    2fb0:	ebfffe1e 	bl	2830 <_write_u32>
    2fb4:	e51b3058 	ldr	r3, [fp, #-88]	@ 0xffffffa8
    2fb8:	e283400c 	add	r4, r3, #12
    2fbc:	ebfffa45 	bl	18d8 <synapse_count>
    2fc0:	e1a03000 	mov	r3, r0
    2fc4:	e1a01003 	mov	r1, r3
    2fc8:	e1a00004 	mov	r0, r4
    2fcc:	ebfffe17 	bl	2830 <_write_u32>
    2fd0:	e51b3058 	ldr	r3, [fp, #-88]	@ 0xffffffa8
    2fd4:	e2834010 	add	r4, r3, #16
    2fd8:	ebfffa47 	bl	18fc <synapse_active_trace_count>
    2fdc:	e1a03000 	mov	r3, r0
    2fe0:	e1a01003 	mov	r1, r3
    2fe4:	e1a00004 	mov	r0, r4
    2fe8:	ebfffe10 	bl	2830 <_write_u32>
    2fec:	e51b3058 	ldr	r3, [fp, #-88]	@ 0xffffffa8
    2ff0:	e2833014 	add	r3, r3, #20
    2ff4:	e51b2054 	ldr	r2, [fp, #-84]	@ 0xffffffac
    2ff8:	e1a01002 	mov	r1, r2
    2ffc:	e1a00003 	mov	r0, r3
    3000:	ebfffe0a 	bl	2830 <_write_u32>
    3004:	e51b3058 	ldr	r3, [fp, #-88]	@ 0xffffffa8
    3008:	e2833018 	add	r3, r3, #24
    300c:	e51b2050 	ldr	r2, [fp, #-80]	@ 0xffffffb0
    3010:	e1a01002 	mov	r1, r2
    3014:	e1a00003 	mov	r0, r3
    3018:	ebfffe04 	bl	2830 <_write_u32>
    301c:	e51b3058 	ldr	r3, [fp, #-88]	@ 0xffffffa8
    3020:	e283301c 	add	r3, r3, #28
    3024:	e51b204c 	ldr	r2, [fp, #-76]	@ 0xffffffb4
    3028:	e1a01002 	mov	r1, r2
    302c:	e1a00003 	mov	r0, r3
    3030:	ebfffdfe 	bl	2830 <_write_u32>
    3034:	e51b3058 	ldr	r3, [fp, #-88]	@ 0xffffffa8
    3038:	e2833020 	add	r3, r3, #32
    303c:	e51b2048 	ldr	r2, [fp, #-72]	@ 0xffffffb8
    3040:	e1a01002 	mov	r1, r2
    3044:	e1a00003 	mov	r0, r3
    3048:	ebfffdf8 	bl	2830 <_write_u32>
    304c:	e51b3058 	ldr	r3, [fp, #-88]	@ 0xffffffa8
    3050:	e2833024 	add	r3, r3, #36	@ 0x24
    3054:	e51b2044 	ldr	r2, [fp, #-68]	@ 0xffffffbc
    3058:	e1a01002 	mov	r1, r2
    305c:	e1a00003 	mov	r0, r3
    3060:	ebfffdf2 	bl	2830 <_write_u32>
    3064:	e51b3058 	ldr	r3, [fp, #-88]	@ 0xffffffa8
    3068:	e2833028 	add	r3, r3, #40	@ 0x28
    306c:	e51b2040 	ldr	r2, [fp, #-64]	@ 0xffffffc0
    3070:	e1a01002 	mov	r1, r2
    3074:	e1a00003 	mov	r0, r3
    3078:	ebfffdec 	bl	2830 <_write_u32>
    307c:	e51b3058 	ldr	r3, [fp, #-88]	@ 0xffffffa8
    3080:	e283302c 	add	r3, r3, #44	@ 0x2c
    3084:	e51b203c 	ldr	r2, [fp, #-60]	@ 0xffffffc4
    3088:	e1a01002 	mov	r1, r2
    308c:	e1a00003 	mov	r0, r3
    3090:	ebfffde6 	bl	2830 <_write_u32>
    3094:	e51b3058 	ldr	r3, [fp, #-88]	@ 0xffffffa8
    3098:	e2833030 	add	r3, r3, #48	@ 0x30
    309c:	e51b2038 	ldr	r2, [fp, #-56]	@ 0xffffffc8
    30a0:	e1a01002 	mov	r1, r2
    30a4:	e1a00003 	mov	r0, r3
    30a8:	ebfffde0 	bl	2830 <_write_u32>
    30ac:	e51b3058 	ldr	r3, [fp, #-88]	@ 0xffffffa8
    30b0:	e2833034 	add	r3, r3, #52	@ 0x34
    30b4:	e51b2034 	ldr	r2, [fp, #-52]	@ 0xffffffcc
    30b8:	e1a01002 	mov	r1, r2
    30bc:	e1a00003 	mov	r0, r3
    30c0:	ebfffdda 	bl	2830 <_write_u32>
    30c4:	e51b3058 	ldr	r3, [fp, #-88]	@ 0xffffffa8
    30c8:	e2833038 	add	r3, r3, #56	@ 0x38
    30cc:	e51b2030 	ldr	r2, [fp, #-48]	@ 0xffffffd0
    30d0:	e1a01002 	mov	r1, r2
    30d4:	e1a00003 	mov	r0, r3
    30d8:	ebfffdd4 	bl	2830 <_write_u32>
    30dc:	e51b3058 	ldr	r3, [fp, #-88]	@ 0xffffffa8
    30e0:	e283303c 	add	r3, r3, #60	@ 0x3c
    30e4:	e51b202c 	ldr	r2, [fp, #-44]	@ 0xffffffd4
    30e8:	e1a01002 	mov	r1, r2
    30ec:	e1a00003 	mov	r0, r3
    30f0:	ebfffdce 	bl	2830 <_write_u32>
    30f4:	e51b3058 	ldr	r3, [fp, #-88]	@ 0xffffffa8
    30f8:	e2833040 	add	r3, r3, #64	@ 0x40
    30fc:	e51b2024 	ldr	r2, [fp, #-36]	@ 0xffffffdc
    3100:	e1a01002 	mov	r1, r2
    3104:	e1a00003 	mov	r0, r3
    3108:	ebfffde7 	bl	28ac <_write_s32>
    310c:	e51b3058 	ldr	r3, [fp, #-88]	@ 0xffffffa8
    3110:	e2833044 	add	r3, r3, #68	@ 0x44
    3114:	e51b2020 	ldr	r2, [fp, #-32]	@ 0xffffffe0
    3118:	e1a01002 	mov	r1, r2
    311c:	e1a00003 	mov	r0, r3
    3120:	ebfffde1 	bl	28ac <_write_s32>
    3124:	e51b3058 	ldr	r3, [fp, #-88]	@ 0xffffffa8
    3128:	e2833048 	add	r3, r3, #72	@ 0x48
    312c:	e3a02000 	mov	r2, #0
    3130:	e5c32000 	strb	r2, [r3]
    3134:	e55b300d 	ldrb	r3, [fp, #-13]
    3138:	e1a00003 	mov	r0, r3
    313c:	e24bd008 	sub	sp, fp, #8
    3140:	e8bd8810 	pop	{r4, fp, pc}
    3144:	00400010 	.word	0x00400010

00003148 <sdp_send_reply>:
    3148:	e92d4800 	push	{fp, lr}
    314c:	e28db004 	add	fp, sp, #4
    3150:	e24dd018 	sub	sp, sp, #24
    3154:	e50b0010 	str	r0, [fp, #-16]
    3158:	e50b1014 	str	r1, [fp, #-20]	@ 0xffffffec
    315c:	e1a03002 	mov	r3, r2
    3160:	e54b3015 	strb	r3, [fp, #-21]	@ 0xffffffeb
    3164:	ebfffd85 	bl	2780 <spin1_msg_get>
    3168:	e50b0008 	str	r0, [fp, #-8]
    316c:	e51b3008 	ldr	r3, [fp, #-8]
    3170:	e3530000 	cmp	r3, #0
    3174:	0a00002c 	beq	322c <sdp_send_reply+0xe4>
    3178:	e51b3010 	ldr	r3, [fp, #-16]
    317c:	e5d3200b 	ldrb	r2, [r3, #11]
    3180:	e51b3008 	ldr	r3, [fp, #-8]
    3184:	e5c3200a 	strb	r2, [r3, #10]
    3188:	e51b3010 	ldr	r3, [fp, #-16]
    318c:	e5d3200a 	ldrb	r2, [r3, #10]
    3190:	e51b3008 	ldr	r3, [fp, #-8]
    3194:	e5c3200b 	strb	r2, [r3, #11]
    3198:	e51b3010 	ldr	r3, [fp, #-16]
    319c:	e1d320be 	ldrh	r2, [r3, #14]
    31a0:	e51b3008 	ldr	r3, [fp, #-8]
    31a4:	e1c320bc 	strh	r2, [r3, #12]
    31a8:	e51b3010 	ldr	r3, [fp, #-16]
    31ac:	e1d320bc 	ldrh	r2, [r3, #12]
    31b0:	e51b3008 	ldr	r3, [fp, #-8]
    31b4:	e1c320be 	strh	r2, [r3, #14]
    31b8:	e51b3008 	ldr	r3, [fp, #-8]
    31bc:	e3a02007 	mov	r2, #7
    31c0:	e5c32008 	strb	r2, [r3, #8]
    31c4:	e51b3010 	ldr	r3, [fp, #-16]
    31c8:	e5d32009 	ldrb	r2, [r3, #9]
    31cc:	e51b3008 	ldr	r3, [fp, #-8]
    31d0:	e5c32009 	strb	r2, [r3, #9]
    31d4:	e55b3015 	ldrb	r3, [fp, #-21]	@ 0xffffffeb
    31d8:	e54b3009 	strb	r3, [fp, #-9]
    31dc:	e55b3009 	ldrb	r3, [fp, #-9]
    31e0:	e1a03803 	lsl	r3, r3, #16
    31e4:	e1a03823 	lsr	r3, r3, #16
    31e8:	e2833008 	add	r3, r3, #8
    31ec:	e1a03803 	lsl	r3, r3, #16
    31f0:	e1a02823 	lsr	r2, r3, #16
    31f4:	e51b3008 	ldr	r3, [fp, #-8]
    31f8:	e1c320b4 	strh	r2, [r3, #4]
    31fc:	e51b3008 	ldr	r3, [fp, #-8]
    3200:	e2833020 	add	r3, r3, #32
    3204:	e55b2009 	ldrb	r2, [fp, #-9]
    3208:	e51b1014 	ldr	r1, [fp, #-20]	@ 0xffffffec
    320c:	e1a00003 	mov	r0, r3
    3210:	ebfff3fe 	bl	210 <sark_mem_cpy>
    3214:	e3a01001 	mov	r1, #1
    3218:	e51b0008 	ldr	r0, [fp, #-8]
    321c:	ebfffd5d 	bl	2798 <spin1_send_sdp_msg>
    3220:	e51b0008 	ldr	r0, [fp, #-8]
    3224:	ebfffd4c 	bl	275c <spin1_msg_free>
    3228:	ea000000 	b	3230 <sdp_send_reply+0xe8>
    322c:	e1a00000 	nop			@ (mov r0, r0)
    3230:	e24bd004 	sub	sp, fp, #4
    3234:	e8bd8800 	pop	{fp, pc}

00003238 <_find_route>:
    3238:	e52db004 	push	{fp}		@ (str fp, [sp, #-4]!)
    323c:	e28db000 	add	fp, sp, #0
    3240:	e24dd014 	sub	sp, sp, #20
    3244:	e50b0010 	str	r0, [fp, #-16]
    3248:	e59f3050 	ldr	r3, [pc, #80]	@ 32a0 <_find_route+0x68>
    324c:	e5933000 	ldr	r3, [r3]
    3250:	e50b3008 	str	r3, [fp, #-8]
    3254:	ea000009 	b	3280 <_find_route+0x48>
    3258:	e51b3008 	ldr	r3, [fp, #-8]
    325c:	e5933000 	ldr	r3, [r3]
    3260:	e51b2010 	ldr	r2, [fp, #-16]
    3264:	e1520003 	cmp	r2, r3
    3268:	1a000001 	bne	3274 <_find_route+0x3c>
    326c:	e51b3008 	ldr	r3, [fp, #-8]
    3270:	ea000006 	b	3290 <_find_route+0x58>
    3274:	e51b3008 	ldr	r3, [fp, #-8]
    3278:	e5933008 	ldr	r3, [r3, #8]
    327c:	e50b3008 	str	r3, [fp, #-8]
    3280:	e51b3008 	ldr	r3, [fp, #-8]
    3284:	e3530000 	cmp	r3, #0
    3288:	1afffff2 	bne	3258 <_find_route+0x20>
    328c:	e3a03000 	mov	r3, #0
    3290:	e1a00003 	mov	r0, r3
    3294:	e28bd000 	add	sp, fp, #0
    3298:	e49db004 	pop	{fp}		@ (ldr fp, [sp], #4)
    329c:	e12fff1e 	bx	lr
    32a0:	00400928 	.word	0x00400928

000032a4 <router_init>:
    32a4:	e92d4800 	push	{fp, lr}
    32a8:	e28db004 	add	fp, sp, #4
    32ac:	e59f3028 	ldr	r3, [pc, #40]	@ 32dc <router_init+0x38>
    32b0:	e3a02000 	mov	r2, #0
    32b4:	e5832000 	str	r2, [r3]
    32b8:	e59f3020 	ldr	r3, [pc, #32]	@ 32e0 <router_init+0x3c>
    32bc:	e3a02000 	mov	r2, #0
    32c0:	e5832000 	str	r2, [r3]
    32c4:	ebfff4a0 	bl	54c <get_app_id>
    32c8:	e1a03000 	mov	r3, r0
    32cc:	e59f2010 	ldr	r2, [pc, #16]	@ 32e4 <router_init+0x40>
    32d0:	e5823000 	str	r3, [r2]
    32d4:	e1a00000 	nop			@ (mov r0, r0)
    32d8:	e8bd8800 	pop	{fp, pc}
    32dc:	00400928 	.word	0x00400928
    32e0:	0040092c 	.word	0x0040092c
    32e4:	00400930 	.word	0x00400930

000032e8 <router_add_neuron>:
    32e8:	e92d4800 	push	{fp, lr}
    32ec:	e28db004 	add	fp, sp, #4
    32f0:	e24dd020 	sub	sp, sp, #32
    32f4:	e50b0020 	str	r0, [fp, #-32]	@ 0xffffffe0
    32f8:	e51b0020 	ldr	r0, [fp, #-32]	@ 0xffffffe0
    32fc:	ebffffcd 	bl	3238 <_find_route>
    3300:	e1a03000 	mov	r3, r0
    3304:	e3530000 	cmp	r3, #0
    3308:	0a000001 	beq	3314 <router_add_neuron+0x2c>
    330c:	e3e03000 	mvn	r3, #0
    3310:	ea000043 	b	3424 <router_add_neuron+0x13c>
    3314:	e59f3114 	ldr	r3, [pc, #276]	@ 3430 <router_add_neuron+0x148>
    3318:	e5933000 	ldr	r3, [r3]
    331c:	e1a02c03 	lsl	r2, r3, #24
    3320:	e51b3020 	ldr	r3, [fp, #-32]	@ 0xffffffe0
    3324:	e3c334ff 	bic	r3, r3, #-16777216	@ 0xff000000
    3328:	e1823003 	orr	r3, r2, r3
    332c:	e50b3008 	str	r3, [fp, #-8]
    3330:	e3e03000 	mvn	r3, #0
    3334:	e50b300c 	str	r3, [fp, #-12]
    3338:	fa000097 	blx	359c <sark_core_id>
    333c:	e1a03000 	mov	r3, r0
    3340:	e2833006 	add	r3, r3, #6
    3344:	e3a02001 	mov	r2, #1
    3348:	e1a03312 	lsl	r3, r2, r3
    334c:	e50b3010 	str	r3, [fp, #-16]
    3350:	e3a00001 	mov	r0, #1
    3354:	fa00032d 	blx	4010 <rtr_alloc>
    3358:	e50b0014 	str	r0, [fp, #-20]	@ 0xffffffec
    335c:	e51b3014 	ldr	r3, [fp, #-20]	@ 0xffffffec
    3360:	e3530000 	cmp	r3, #0
    3364:	1a000001 	bne	3370 <router_add_neuron+0x88>
    3368:	e3e03000 	mvn	r3, #0
    336c:	ea00002c 	b	3424 <router_add_neuron+0x13c>
    3370:	e51b3010 	ldr	r3, [fp, #-16]
    3374:	e51b200c 	ldr	r2, [fp, #-12]
    3378:	e51b1008 	ldr	r1, [fp, #-8]
    337c:	e51b0014 	ldr	r0, [fp, #-20]	@ 0xffffffec
    3380:	fa000264 	blx	3d18 <rtr_mc_set>
    3384:	e1a03000 	mov	r3, r0
    3388:	e3530000 	cmp	r3, #0
    338c:	1a000004 	bne	33a4 <router_add_neuron+0xbc>
    3390:	e3a01001 	mov	r1, #1
    3394:	e51b0014 	ldr	r0, [fp, #-20]	@ 0xffffffec
    3398:	fa00031f 	blx	401c <rtr_free>
    339c:	e3e03000 	mvn	r3, #0
    33a0:	ea00001f 	b	3424 <router_add_neuron+0x13c>
    33a4:	e3a0100c 	mov	r1, #12
    33a8:	e3a00001 	mov	r0, #1
    33ac:	fa0002bc 	blx	3ea4 <sark_alloc>
    33b0:	e1a03000 	mov	r3, r0
    33b4:	e50b3018 	str	r3, [fp, #-24]	@ 0xffffffe8
    33b8:	e51b3018 	ldr	r3, [fp, #-24]	@ 0xffffffe8
    33bc:	e3530000 	cmp	r3, #0
    33c0:	1a000004 	bne	33d8 <router_add_neuron+0xf0>
    33c4:	e3a01001 	mov	r1, #1
    33c8:	e51b0014 	ldr	r0, [fp, #-20]	@ 0xffffffec
    33cc:	fa000312 	blx	401c <rtr_free>
    33d0:	e3e03000 	mvn	r3, #0
    33d4:	ea000012 	b	3424 <router_add_neuron+0x13c>
    33d8:	e51b3018 	ldr	r3, [fp, #-24]	@ 0xffffffe8
    33dc:	e51b2020 	ldr	r2, [fp, #-32]	@ 0xffffffe0
    33e0:	e5832000 	str	r2, [r3]
    33e4:	e51b3018 	ldr	r3, [fp, #-24]	@ 0xffffffe8
    33e8:	e51b2014 	ldr	r2, [fp, #-20]	@ 0xffffffec
    33ec:	e5832004 	str	r2, [r3, #4]
    33f0:	e59f303c 	ldr	r3, [pc, #60]	@ 3434 <router_add_neuron+0x14c>
    33f4:	e5932000 	ldr	r2, [r3]
    33f8:	e51b3018 	ldr	r3, [fp, #-24]	@ 0xffffffe8
    33fc:	e5832008 	str	r2, [r3, #8]
    3400:	e59f202c 	ldr	r2, [pc, #44]	@ 3434 <router_add_neuron+0x14c>
    3404:	e51b3018 	ldr	r3, [fp, #-24]	@ 0xffffffe8
    3408:	e5823000 	str	r3, [r2]
    340c:	e59f3024 	ldr	r3, [pc, #36]	@ 3438 <router_add_neuron+0x150>
    3410:	e5933000 	ldr	r3, [r3]
    3414:	e2833001 	add	r3, r3, #1
    3418:	e59f2018 	ldr	r2, [pc, #24]	@ 3438 <router_add_neuron+0x150>
    341c:	e5823000 	str	r3, [r2]
    3420:	e3a03000 	mov	r3, #0
    3424:	e1a00003 	mov	r0, r3
    3428:	e24bd004 	sub	sp, fp, #4
    342c:	e8bd8800 	pop	{fp, pc}
    3430:	00400930 	.word	0x00400930
    3434:	00400928 	.word	0x00400928
    3438:	0040092c 	.word	0x0040092c

0000343c <router_remove_neuron>:
    343c:	e92d4800 	push	{fp, lr}
    3440:	e28db004 	add	fp, sp, #4
    3444:	e24dd010 	sub	sp, sp, #16
    3448:	e50b0010 	str	r0, [fp, #-16]
    344c:	e59f3098 	ldr	r3, [pc, #152]	@ 34ec <router_remove_neuron+0xb0>
    3450:	e50b3008 	str	r3, [fp, #-8]
    3454:	ea00001c 	b	34cc <router_remove_neuron+0x90>
    3458:	e51b3008 	ldr	r3, [fp, #-8]
    345c:	e5933000 	ldr	r3, [r3]
    3460:	e50b300c 	str	r3, [fp, #-12]
    3464:	e51b300c 	ldr	r3, [fp, #-12]
    3468:	e5933000 	ldr	r3, [r3]
    346c:	e51b2010 	ldr	r2, [fp, #-16]
    3470:	e1520003 	cmp	r2, r3
    3474:	1a000011 	bne	34c0 <router_remove_neuron+0x84>
    3478:	e51b300c 	ldr	r3, [fp, #-12]
    347c:	e5932008 	ldr	r2, [r3, #8]
    3480:	e51b3008 	ldr	r3, [fp, #-8]
    3484:	e5832000 	str	r2, [r3]
    3488:	e51b300c 	ldr	r3, [fp, #-12]
    348c:	e5933004 	ldr	r3, [r3, #4]
    3490:	e3a01001 	mov	r1, #1
    3494:	e1a00003 	mov	r0, r3
    3498:	fa0002df 	blx	401c <rtr_free>
    349c:	e51b000c 	ldr	r0, [fp, #-12]
    34a0:	fa0002ae 	blx	3f60 <sark_free>
    34a4:	e59f3044 	ldr	r3, [pc, #68]	@ 34f0 <router_remove_neuron+0xb4>
    34a8:	e5933000 	ldr	r3, [r3]
    34ac:	e2433001 	sub	r3, r3, #1
    34b0:	e59f2038 	ldr	r2, [pc, #56]	@ 34f0 <router_remove_neuron+0xb4>
    34b4:	e5823000 	str	r3, [r2]
    34b8:	e3a03000 	mov	r3, #0
    34bc:	ea000007 	b	34e0 <router_remove_neuron+0xa4>
    34c0:	e51b300c 	ldr	r3, [fp, #-12]
    34c4:	e2833008 	add	r3, r3, #8
    34c8:	e50b3008 	str	r3, [fp, #-8]
    34cc:	e51b3008 	ldr	r3, [fp, #-8]
    34d0:	e5933000 	ldr	r3, [r3]
    34d4:	e3530000 	cmp	r3, #0
    34d8:	1affffde 	bne	3458 <router_remove_neuron+0x1c>
    34dc:	e3e03000 	mvn	r3, #0
    34e0:	e1a00003 	mov	r0, r3
    34e4:	e24bd004 	sub	sp, fp, #4
    34e8:	e8bd8800 	pop	{fp, pc}
    34ec:	00400928 	.word	0x00400928
    34f0:	0040092c 	.word	0x0040092c

000034f4 <router_reset_all>:
    34f4:	e92d4800 	push	{fp, lr}
    34f8:	e28db004 	add	fp, sp, #4
    34fc:	e24dd008 	sub	sp, sp, #8
    3500:	ea00000d 	b	353c <router_reset_all+0x48>
    3504:	e59f3058 	ldr	r3, [pc, #88]	@ 3564 <router_reset_all+0x70>
    3508:	e5933000 	ldr	r3, [r3]
    350c:	e50b3008 	str	r3, [fp, #-8]
    3510:	e51b3008 	ldr	r3, [fp, #-8]
    3514:	e5933008 	ldr	r3, [r3, #8]
    3518:	e59f2044 	ldr	r2, [pc, #68]	@ 3564 <router_reset_all+0x70>
    351c:	e5823000 	str	r3, [r2]
    3520:	e51b3008 	ldr	r3, [fp, #-8]
    3524:	e5933004 	ldr	r3, [r3, #4]
    3528:	e3a01001 	mov	r1, #1
    352c:	e1a00003 	mov	r0, r3
    3530:	fa0002b9 	blx	401c <rtr_free>
    3534:	e51b0008 	ldr	r0, [fp, #-8]
    3538:	fa000288 	blx	3f60 <sark_free>
    353c:	e59f3020 	ldr	r3, [pc, #32]	@ 3564 <router_reset_all+0x70>
    3540:	e5933000 	ldr	r3, [r3]
    3544:	e3530000 	cmp	r3, #0
    3548:	1affffed 	bne	3504 <router_reset_all+0x10>
    354c:	e59f3014 	ldr	r3, [pc, #20]	@ 3568 <router_reset_all+0x74>
    3550:	e3a02000 	mov	r2, #0
    3554:	e5832000 	str	r2, [r3]
    3558:	e1a00000 	nop			@ (mov r0, r0)
    355c:	e24bd004 	sub	sp, fp, #4
    3560:	e8bd8800 	pop	{fp, pc}
    3564:	00400928 	.word	0x00400928
    3568:	0040092c 	.word	0x0040092c

0000356c <router_route_count>:
    356c:	e52db004 	push	{fp}		@ (str fp, [sp, #-4]!)
    3570:	e28db000 	add	fp, sp, #0
    3574:	e59f3010 	ldr	r3, [pc, #16]	@ 358c <router_route_count+0x20>
    3578:	e5933000 	ldr	r3, [r3]
    357c:	e1a00003 	mov	r0, r3
    3580:	e28bd000 	add	sp, fp, #0
    3584:	e49db004 	pop	{fp}		@ (ldr fp, [sp], #4)
    3588:	e12fff1e 	bx	lr
    358c:	0040092c 	.word	0x0040092c

00003590 <rte_handler>:
    3590:	4b01      	ldr	r3, [pc, #4]	@ (3598 <rte_handler+0x8>)
    3592:	2208      	movs	r2, #8
    3594:	701a      	strb	r2, [r3, #0]
    3596:	4770      	bx	lr
    3598:	e5007f2b 	.word	0xe5007f2b

0000359c <sark_core_id>:
    359c:	4b01      	ldr	r3, [pc, #4]	@ (35a4 <sark_core_id+0x8>)
    359e:	6818      	ldr	r0, [r3, #0]
    35a0:	4770      	bx	lr
    35a2:	46c0      	nop			@ (mov r8, r8)
    35a4:	00400934 	.word	0x00400934

000035a8 <sark_cpu_state>:
    35a8:	4b02      	ldr	r3, [pc, #8]	@ (35b4 <sark_cpu_state+0xc>)
    35aa:	69db      	ldr	r3, [r3, #28]
    35ac:	332e      	adds	r3, #46	@ 0x2e
    35ae:	7018      	strb	r0, [r3, #0]
    35b0:	4770      	bx	lr
    35b2:	46c0      	nop			@ (mov r8, r8)
    35b4:	00400934 	.word	0x00400934

000035b8 <sark_app_lead>:
    35b8:	235c      	movs	r3, #92	@ 0x5c
    35ba:	781a      	ldrb	r2, [r3, #0]
    35bc:	4b02      	ldr	r3, [pc, #8]	@ (35c8 <sark_app_lead+0x10>)
    35be:	00d2      	lsls	r2, r2, #3
    35c0:	681b      	ldr	r3, [r3, #0]
    35c2:	189b      	adds	r3, r3, r2
    35c4:	78d8      	ldrb	r0, [r3, #3]
    35c6:	4770      	bx	lr
    35c8:	e5007fe4 	.word	0xe5007fe4

000035cc <sark_block_init>:
    35cc:	b530      	push	{r4, r5, lr}
    35ce:	000b      	movs	r3, r1
    35d0:	0004      	movs	r4, r0
    35d2:	3b01      	subs	r3, #1
    35d4:	2b00      	cmp	r3, #0
    35d6:	d104      	bne.n	35e2 <sark_block_init+0x16>
    35d8:	3901      	subs	r1, #1
    35da:	434a      	muls	r2, r1
    35dc:	1880      	adds	r0, r0, r2
    35de:	6003      	str	r3, [r0, #0]
    35e0:	bd30      	pop	{r4, r5, pc}
    35e2:	18a5      	adds	r5, r4, r2
    35e4:	6025      	str	r5, [r4, #0]
    35e6:	002c      	movs	r4, r5
    35e8:	e7f3      	b.n	35d2 <sark_block_init+0x6>
	...

000035ec <sark_msg_get>:
    35ec:	b510      	push	{r4, lr}
    35ee:	f7fc ede4 	blx	1b8 <cpu_int_disable>
    35f2:	4a09      	ldr	r2, [pc, #36]	@ (3618 <sark_msg_get+0x2c>)
    35f4:	6a14      	ldr	r4, [r2, #32]
    35f6:	2c00      	cmp	r4, #0
    35f8:	d00a      	beq.n	3610 <sark_msg_get+0x24>
    35fa:	6823      	ldr	r3, [r4, #0]
    35fc:	6213      	str	r3, [r2, #32]
    35fe:	8c93      	ldrh	r3, [r2, #36]	@ 0x24
    3600:	8cd1      	ldrh	r1, [r2, #38]	@ 0x26
    3602:	3301      	adds	r3, #1
    3604:	041b      	lsls	r3, r3, #16
    3606:	0c1b      	lsrs	r3, r3, #16
    3608:	8493      	strh	r3, [r2, #36]	@ 0x24
    360a:	4299      	cmp	r1, r3
    360c:	d200      	bcs.n	3610 <sark_msg_get+0x24>
    360e:	84d3      	strh	r3, [r2, #38]	@ 0x26
    3610:	f7fc edda 	blx	1c8 <cpu_int_restore>
    3614:	0020      	movs	r0, r4
    3616:	bd10      	pop	{r4, pc}
    3618:	00400934 	.word	0x00400934

0000361c <sark_msg_free>:
    361c:	b510      	push	{r4, lr}
    361e:	0004      	movs	r4, r0
    3620:	f7fc edca 	blx	1b8 <cpu_int_disable>
    3624:	4b04      	ldr	r3, [pc, #16]	@ (3638 <sark_msg_free+0x1c>)
    3626:	6a1a      	ldr	r2, [r3, #32]
    3628:	6022      	str	r2, [r4, #0]
    362a:	8c9a      	ldrh	r2, [r3, #36]	@ 0x24
    362c:	621c      	str	r4, [r3, #32]
    362e:	3a01      	subs	r2, #1
    3630:	849a      	strh	r2, [r3, #36]	@ 0x24
    3632:	f7fc edca 	blx	1c8 <cpu_int_restore>
    3636:	bd10      	pop	{r4, pc}
    3638:	00400934 	.word	0x00400934

0000363c <sark_shmsg_get>:
    363c:	b510      	push	{r4, lr}
    363e:	2000      	movs	r0, #0
    3640:	f7fc edca 	blx	1d8 <sark_lock_get>
    3644:	4a09      	ldr	r2, [pc, #36]	@ (366c <sark_shmsg_get+0x30>)
    3646:	6814      	ldr	r4, [r2, #0]
    3648:	2c00      	cmp	r4, #0
    364a:	d00a      	beq.n	3662 <sark_shmsg_get+0x26>
    364c:	6823      	ldr	r3, [r4, #0]
    364e:	6013      	str	r3, [r2, #0]
    3650:	8893      	ldrh	r3, [r2, #4]
    3652:	88d1      	ldrh	r1, [r2, #6]
    3654:	3301      	adds	r3, #1
    3656:	041b      	lsls	r3, r3, #16
    3658:	0c1b      	lsrs	r3, r3, #16
    365a:	8093      	strh	r3, [r2, #4]
    365c:	4299      	cmp	r1, r3
    365e:	d200      	bcs.n	3662 <sark_shmsg_get+0x26>
    3660:	80d3      	strh	r3, [r2, #6]
    3662:	2100      	movs	r1, #0
    3664:	f7fc edca 	blx	1fc <sark_lock_free>
    3668:	0020      	movs	r0, r4
    366a:	bd10      	pop	{r4, pc}
    366c:	e5007f68 	.word	0xe5007f68

00003670 <sark_shmsg_free>:
    3670:	b510      	push	{r4, lr}
    3672:	0004      	movs	r4, r0
    3674:	2000      	movs	r0, #0
    3676:	f7fc edb0 	blx	1d8 <sark_lock_get>
    367a:	4b05      	ldr	r3, [pc, #20]	@ (3690 <sark_shmsg_free+0x20>)
    367c:	2100      	movs	r1, #0
    367e:	681a      	ldr	r2, [r3, #0]
    3680:	6022      	str	r2, [r4, #0]
    3682:	889a      	ldrh	r2, [r3, #4]
    3684:	601c      	str	r4, [r3, #0]
    3686:	3a01      	subs	r2, #1
    3688:	809a      	strh	r2, [r3, #4]
    368a:	f7fc edb8 	blx	1fc <sark_lock_free>
    368e:	bd10      	pop	{r4, pc}
    3690:	e5007f68 	.word	0xe5007f68

00003694 <sark_call_cpp_constructors>:
    3694:	b510      	push	{r4, lr}
    3696:	4c04      	ldr	r4, [pc, #16]	@ (36a8 <sark_call_cpp_constructors+0x14>)
    3698:	4b04      	ldr	r3, [pc, #16]	@ (36ac <sark_call_cpp_constructors+0x18>)
    369a:	429c      	cmp	r4, r3
    369c:	d300      	bcc.n	36a0 <sark_call_cpp_constructors+0xc>
    369e:	bd10      	pop	{r4, pc}
    36a0:	cc08      	ldmia	r4!, {r3}
    36a2:	4798      	blx	r3
    36a4:	e7f8      	b.n	3698 <sark_call_cpp_constructors+0x4>
    36a6:	46c0      	nop			@ (mov r8, r8)
    36a8:	000054e4 	.word	0x000054e4
    36ac:	000054e4 	.word	0x000054e4

000036b0 <sark_init>:
    36b0:	b570      	push	{r4, r5, r6, lr}
    36b2:	2520      	movs	r5, #32
    36b4:	0004      	movs	r4, r0
    36b6:	8c28      	ldrh	r0, [r5, #32]
    36b8:	8c6a      	ldrh	r2, [r5, #34]	@ 0x22
    36ba:	0080      	lsls	r0, r0, #2
    36bc:	1a20      	subs	r0, r4, r0
    36be:	21d2      	movs	r1, #210	@ 0xd2
    36c0:	f7fc ed66 	blx	190 <cpu_init_mode>
    36c4:	8caa      	ldrh	r2, [r5, #36]	@ 0x24
    36c6:	21d1      	movs	r1, #209	@ 0xd1
    36c8:	f7fc ed62 	blx	190 <cpu_init_mode>
    36cc:	2200      	movs	r2, #0
    36ce:	21df      	movs	r1, #223	@ 0xdf
    36d0:	f7fc ed5e 	blx	190 <cpu_init_mode>
    36d4:	8ceb      	ldrh	r3, [r5, #38]	@ 0x26
    36d6:	2658      	movs	r6, #88	@ 0x58
    36d8:	089b      	lsrs	r3, r3, #2
    36da:	009b      	lsls	r3, r3, #2
    36dc:	1ae1      	subs	r1, r4, r3
    36de:	4c35      	ldr	r4, [pc, #212]	@ (37b4 <sark_init+0x104>)
    36e0:	6121      	str	r1, [r4, #16]
    36e2:	6ae8      	ldr	r0, [r5, #44]	@ 0x2c
    36e4:	6160      	str	r0, [r4, #20]
    36e6:	f000 fc45 	bl	3f74 <sark_heap_init>
    36ea:	4b33      	ldr	r3, [pc, #204]	@ (37b8 <sark_init+0x108>)
    36ec:	4a33      	ldr	r2, [pc, #204]	@ (37bc <sark_init+0x10c>)
    36ee:	681b      	ldr	r3, [r3, #0]
    36f0:	4d33      	ldr	r5, [pc, #204]	@ (37c0 <sark_init+0x110>)
    36f2:	0e1b      	lsrs	r3, r3, #24
    36f4:	6063      	str	r3, [r4, #4]
    36f6:	189b      	adds	r3, r3, r2
    36f8:	2192      	movs	r1, #146	@ 0x92
    36fa:	0049      	lsls	r1, r1, #1
    36fc:	61a0      	str	r0, [r4, #24]
    36fe:	781b      	ldrb	r3, [r3, #0]
    3700:	6023      	str	r3, [r4, #0]
    3702:	8cab      	ldrh	r3, [r5, #36]	@ 0x24
    3704:	8623      	strh	r3, [r4, #48]	@ 0x30
    3706:	4b2f      	ldr	r3, [pc, #188]	@ (37c4 <sark_init+0x114>)
    3708:	60a3      	str	r3, [r4, #8]
    370a:	7830      	ldrb	r0, [r6, #0]
    370c:	f000 fbca 	bl	3ea4 <sark_alloc>
    3710:	2292      	movs	r2, #146	@ 0x92
    3712:	0052      	lsls	r2, r2, #1
    3714:	6220      	str	r0, [r4, #32]
    3716:	7831      	ldrb	r1, [r6, #0]
    3718:	f7ff ff58 	bl	35cc <sark_block_init>
    371c:	4b2a      	ldr	r3, [pc, #168]	@ (37c8 <sark_init+0x118>)
    371e:	221f      	movs	r2, #31
    3720:	681b      	ldr	r3, [r3, #0]
    3722:	4013      	ands	r3, r2
    3724:	6862      	ldr	r2, [r4, #4]
    3726:	429a      	cmp	r2, r3
    3728:	d02c      	beq.n	3784 <sark_init+0xd4>
    372a:	6822      	ldr	r2, [r4, #0]
    372c:	4b27      	ldr	r3, [pc, #156]	@ (37cc <sark_init+0x11c>)
    372e:	01d0      	lsls	r0, r2, #7
    3730:	18c0      	adds	r0, r0, r3
    3732:	6dab      	ldr	r3, [r5, #88]	@ 0x58
    3734:	2100      	movs	r1, #0
    3736:	4353      	muls	r3, r2
    3738:	6d6a      	ldr	r2, [r5, #84]	@ 0x54
    373a:	009b      	lsls	r3, r3, #2
    373c:	18d3      	adds	r3, r2, r3
    373e:	2270      	movs	r2, #112	@ 0x70
    3740:	61e0      	str	r0, [r4, #28]
    3742:	6363      	str	r3, [r4, #52]	@ 0x34
    3744:	f7fc ed78 	blx	238 <sark_word_set>
    3748:	69e0      	ldr	r0, [r4, #28]
    374a:	2205      	movs	r2, #5
    374c:	0003      	movs	r3, r0
    374e:	332e      	adds	r3, #46	@ 0x2e
    3750:	701a      	strb	r2, [r3, #0]
    3752:	6862      	ldr	r2, [r4, #4]
    3754:	3b01      	subs	r3, #1
    3756:	701a      	strb	r2, [r3, #0]
    3758:	225c      	movs	r2, #92	@ 0x5c
    375a:	7812      	ldrb	r2, [r2, #0]
    375c:	2480      	movs	r4, #128	@ 0x80
    375e:	709a      	strb	r2, [r3, #2]
    3760:	02e4      	lsls	r4, r4, #11
    3762:	69eb      	ldr	r3, [r5, #28]
    3764:	6443      	str	r3, [r0, #68]	@ 0x44
    3766:	65c4      	str	r4, [r0, #92]	@ 0x5c
    3768:	4919      	ldr	r1, [pc, #100]	@ (37d0 <sark_init+0x120>)
    376a:	3048      	adds	r0, #72	@ 0x48
    376c:	f7fc ed5a 	blx	224 <sark_str_cpy>
    3770:	4b18      	ldr	r3, [pc, #96]	@ (37d4 <sark_init+0x124>)
    3772:	22ff      	movs	r2, #255	@ 0xff
    3774:	681b      	ldr	r3, [r3, #0]
    3776:	0412      	lsls	r2, r2, #16
    3778:	4013      	ands	r3, r2
    377a:	42a3      	cmp	r3, r4
    377c:	d002      	beq.n	3784 <sark_init+0xd4>
    377e:	2014      	movs	r0, #20
    3780:	f7fc ecd4 	blx	12c <rt_error>
    3784:	f000 fa3e 	bl	3c04 <sark_vic_init>
    3788:	2259      	movs	r2, #89	@ 0x59
    378a:	7810      	ldrb	r0, [r2, #0]
    378c:	4b12      	ldr	r3, [pc, #72]	@ (37d8 <sark_init+0x128>)
    378e:	3a58      	subs	r2, #88	@ 0x58
    3790:	2112      	movs	r1, #18
    3792:	f000 fa5f 	bl	3c54 <sark_vic_set>
    3796:	2201      	movs	r2, #1
    3798:	2106      	movs	r1, #6
    379a:	4b10      	ldr	r3, [pc, #64]	@ (37dc <sark_init+0x12c>)
    379c:	2010      	movs	r0, #16
    379e:	f000 fa59 	bl	3c54 <sark_vic_set>
    37a2:	235a      	movs	r3, #90	@ 0x5a
    37a4:	7818      	ldrb	r0, [r3, #0]
    37a6:	f000 f9fd 	bl	3ba4 <event_alloc>
    37aa:	f000 fa21 	bl	3bf0 <timer_cancel_init>
    37ae:	201f      	movs	r0, #31
    37b0:	bd70      	pop	{r4, r5, r6, pc}
    37b2:	46c0      	nop			@ (mov r8, r8)
    37b4:	00400934 	.word	0x00400934
    37b8:	40000014 	.word	0x40000014
    37bc:	e5007f94 	.word	0xe5007f94
    37c0:	e5007f00 	.word	0xe5007f00
    37c4:	deaddead 	.word	0xdeaddead
    37c8:	e2000034 	.word	0xe2000034
    37cc:	e5007000 	.word	0xe5007000
    37d0:	000054e8 	.word	0x000054e8
    37d4:	e5007ffc 	.word	0xe5007ffc
    37d8:	000002f0 	.word	0x000002f0
    37dc:	00003d90 	.word	0x00003d90

000037e0 <sark_msg_send>:
    37e0:	b570      	push	{r4, r5, r6, lr}
    37e2:	4d1d      	ldr	r5, [pc, #116]	@ (3858 <sark_msg_send+0x78>)
    37e4:	0006      	movs	r6, r0
    37e6:	481d      	ldr	r0, [pc, #116]	@ (385c <sark_msg_send+0x7c>)
    37e8:	69eb      	ldr	r3, [r5, #28]
    37ea:	6804      	ldr	r4, [r0, #0]
    37ec:	3339      	adds	r3, #57	@ 0x39
    37ee:	781a      	ldrb	r2, [r3, #0]
    37f0:	2a00      	cmp	r2, #0
    37f2:	d003      	beq.n	37fc <sark_msg_send+0x1c>
    37f4:	6802      	ldr	r2, [r0, #0]
    37f6:	1b12      	subs	r2, r2, r4
    37f8:	428a      	cmp	r2, r1
    37fa:	d9f8      	bls.n	37ee <sark_msg_send+0xe>
    37fc:	781b      	ldrb	r3, [r3, #0]
    37fe:	2b00      	cmp	r3, #0
    3800:	d001      	beq.n	3806 <sark_msg_send+0x26>
    3802:	2000      	movs	r0, #0
    3804:	bd70      	pop	{r4, r5, r6, pc}
    3806:	f7ff ff19 	bl	363c <sark_shmsg_get>
    380a:	1e04      	subs	r4, r0, #0
    380c:	d0f9      	beq.n	3802 <sark_msg_send+0x22>
    380e:	0031      	movs	r1, r6
    3810:	f7fc ed24 	blx	25c <sark_msg_cpy>
    3814:	69eb      	ldr	r3, [r5, #28]
    3816:	635c      	str	r4, [r3, #52]	@ 0x34
    3818:	3339      	adds	r3, #57	@ 0x39
    381a:	2401      	movs	r4, #1
    381c:	701c      	strb	r4, [r3, #0]
    381e:	0020      	movs	r0, r4
    3820:	f7fc ecda 	blx	1d8 <sark_lock_get>
    3824:	682b      	ldr	r3, [r5, #0]
    3826:	490e      	ldr	r1, [pc, #56]	@ (3860 <sark_msg_send+0x80>)
    3828:	0026      	movs	r6, r4
    382a:	680a      	ldr	r2, [r1, #0]
    382c:	409e      	lsls	r6, r3
    382e:	0033      	movs	r3, r6
    3830:	4313      	orrs	r3, r2
    3832:	600b      	str	r3, [r1, #0]
    3834:	2a00      	cmp	r2, #0
    3836:	d106      	bne.n	3846 <sark_msg_send+0x66>
    3838:	4b0a      	ldr	r3, [pc, #40]	@ (3864 <sark_msg_send+0x84>)
    383a:	781b      	ldrb	r3, [r3, #0]
    383c:	409c      	lsls	r4, r3
    383e:	4b0a      	ldr	r3, [pc, #40]	@ (3868 <sark_msg_send+0x88>)
    3840:	18e4      	adds	r4, r4, r3
    3842:	4b0a      	ldr	r3, [pc, #40]	@ (386c <sark_msg_send+0x8c>)
    3844:	601c      	str	r4, [r3, #0]
    3846:	2101      	movs	r1, #1
    3848:	f7fc ecd8 	blx	1fc <sark_lock_free>
    384c:	6aeb      	ldr	r3, [r5, #44]	@ 0x2c
    384e:	2001      	movs	r0, #1
    3850:	3301      	adds	r3, #1
    3852:	62eb      	str	r3, [r5, #44]	@ 0x2c
    3854:	e7d6      	b.n	3804 <sark_msg_send+0x24>
    3856:	46c0      	nop			@ (mov r8, r8)
    3858:	00400934 	.word	0x00400934
    385c:	e5007f10 	.word	0xe5007f10
    3860:	e5007fec 	.word	0xe5007fec
    3864:	e5007fa8 	.word	0xe5007fa8
    3868:	5ec00000 	.word	0x5ec00000
    386c:	e2000008 	.word	0xe2000008

00003870 <sark_cmd_ver>:
    3870:	4a0d      	ldr	r2, [pc, #52]	@ (38a8 <sark_cmd_ver+0x38>)
    3872:	b510      	push	{r4, lr}
    3874:	6853      	ldr	r3, [r2, #4]
    3876:	6812      	ldr	r2, [r2, #0]
    3878:	021b      	lsls	r3, r3, #8
    387a:	189b      	adds	r3, r3, r2
    387c:	4a0b      	ldr	r2, [pc, #44]	@ (38ac <sark_cmd_ver+0x3c>)
    387e:	0004      	movs	r4, r0
    3880:	8812      	ldrh	r2, [r2, #0]
    3882:	490b      	ldr	r1, [pc, #44]	@ (38b0 <sark_cmd_ver+0x40>)
    3884:	0412      	lsls	r2, r2, #16
    3886:	189b      	adds	r3, r3, r2
    3888:	6143      	str	r3, [r0, #20]
    388a:	4b0a      	ldr	r3, [pc, #40]	@ (38b4 <sark_cmd_ver+0x44>)
    388c:	6183      	str	r3, [r0, #24]
    388e:	4b0a      	ldr	r3, [pc, #40]	@ (38b8 <sark_cmd_ver+0x48>)
    3890:	681b      	ldr	r3, [r3, #0]
    3892:	61c3      	str	r3, [r0, #28]
    3894:	3020      	adds	r0, #32
    3896:	f7fc ecc6 	blx	224 <sark_str_cpy>
    389a:	0020      	movs	r0, r4
    389c:	4907      	ldr	r1, [pc, #28]	@ (38bc <sark_cmd_ver+0x4c>)
    389e:	302f      	adds	r0, #47	@ 0x2f
    38a0:	f7fc ecc0 	blx	224 <sark_str_cpy>
    38a4:	2021      	movs	r0, #33	@ 0x21
    38a6:	bd10      	pop	{r4, pc}
    38a8:	00400934 	.word	0x00400934
    38ac:	e5007f00 	.word	0xe5007f00
    38b0:	000054f3 	.word	0x000054f3
    38b4:	ffff0100 	.word	0xffff0100
    38b8:	000054e4 	.word	0x000054e4
    38bc:	00005502 	.word	0x00005502

000038c0 <sark_cmd_read>:
    38c0:	0003      	movs	r3, r0
    38c2:	6980      	ldr	r0, [r0, #24]
    38c4:	2280      	movs	r2, #128	@ 0x80
    38c6:	69d9      	ldr	r1, [r3, #28]
    38c8:	0052      	lsls	r2, r2, #1
    38ca:	b510      	push	{r4, lr}
    38cc:	4290      	cmp	r0, r2
    38ce:	d801      	bhi.n	38d4 <sark_cmd_read+0x14>
    38d0:	2902      	cmp	r1, #2
    38d2:	d903      	bls.n	38dc <sark_cmd_read+0x1c>
    38d4:	2284      	movs	r2, #132	@ 0x84
    38d6:	2000      	movs	r0, #0
    38d8:	821a      	strh	r2, [r3, #16]
    38da:	bd10      	pop	{r4, pc}
    38dc:	695a      	ldr	r2, [r3, #20]
    38de:	2900      	cmp	r1, #0
    38e0:	d107      	bne.n	38f2 <sark_cmd_read+0x32>
    38e2:	1819      	adds	r1, r3, r0
    38e4:	1ad2      	subs	r2, r2, r3
    38e6:	428b      	cmp	r3, r1
    38e8:	d0f7      	beq.n	38da <sark_cmd_read+0x1a>
    38ea:	5cd4      	ldrb	r4, [r2, r3]
    38ec:	751c      	strb	r4, [r3, #20]
    38ee:	3301      	adds	r3, #1
    38f0:	e7f9      	b.n	38e6 <sark_cmd_read+0x26>
    38f2:	2901      	cmp	r1, #1
    38f4:	d109      	bne.n	390a <sark_cmd_read+0x4a>
    38f6:	0841      	lsrs	r1, r0, #1
    38f8:	0049      	lsls	r1, r1, #1
    38fa:	1859      	adds	r1, r3, r1
    38fc:	1ad2      	subs	r2, r2, r3
    38fe:	428b      	cmp	r3, r1
    3900:	d0eb      	beq.n	38da <sark_cmd_read+0x1a>
    3902:	5ad4      	ldrh	r4, [r2, r3]
    3904:	829c      	strh	r4, [r3, #20]
    3906:	3302      	adds	r3, #2
    3908:	e7f9      	b.n	38fe <sark_cmd_read+0x3e>
    390a:	0881      	lsrs	r1, r0, #2
    390c:	0089      	lsls	r1, r1, #2
    390e:	1859      	adds	r1, r3, r1
    3910:	1ad2      	subs	r2, r2, r3
    3912:	428b      	cmp	r3, r1
    3914:	d0e1      	beq.n	38da <sark_cmd_read+0x1a>
    3916:	58d4      	ldr	r4, [r2, r3]
    3918:	615c      	str	r4, [r3, #20]
    391a:	3304      	adds	r3, #4
    391c:	e7f9      	b.n	3912 <sark_cmd_read+0x52>

0000391e <sark_cmd_write>:
    391e:	6983      	ldr	r3, [r0, #24]
    3920:	2280      	movs	r2, #128	@ 0x80
    3922:	69c1      	ldr	r1, [r0, #28]
    3924:	0052      	lsls	r2, r2, #1
    3926:	b510      	push	{r4, lr}
    3928:	4293      	cmp	r3, r2
    392a:	d801      	bhi.n	3930 <sark_cmd_write+0x12>
    392c:	2902      	cmp	r1, #2
    392e:	d903      	bls.n	3938 <sark_cmd_write+0x1a>
    3930:	2384      	movs	r3, #132	@ 0x84
    3932:	8203      	strh	r3, [r0, #16]
    3934:	2000      	movs	r0, #0
    3936:	bd10      	pop	{r4, pc}
    3938:	6942      	ldr	r2, [r0, #20]
    393a:	2900      	cmp	r1, #0
    393c:	d106      	bne.n	394c <sark_cmd_write+0x2e>
    393e:	3020      	adds	r0, #32
    3940:	4299      	cmp	r1, r3
    3942:	d0f7      	beq.n	3934 <sark_cmd_write+0x16>
    3944:	5c44      	ldrb	r4, [r0, r1]
    3946:	548c      	strb	r4, [r1, r2]
    3948:	3101      	adds	r1, #1
    394a:	e7f9      	b.n	3940 <sark_cmd_write+0x22>
    394c:	2901      	cmp	r1, #1
    394e:	d109      	bne.n	3964 <sark_cmd_write+0x46>
    3950:	085b      	lsrs	r3, r3, #1
    3952:	005b      	lsls	r3, r3, #1
    3954:	18c3      	adds	r3, r0, r3
    3956:	1a12      	subs	r2, r2, r0
    3958:	4298      	cmp	r0, r3
    395a:	d0eb      	beq.n	3934 <sark_cmd_write+0x16>
    395c:	8c01      	ldrh	r1, [r0, #32]
    395e:	5211      	strh	r1, [r2, r0]
    3960:	3002      	adds	r0, #2
    3962:	e7f9      	b.n	3958 <sark_cmd_write+0x3a>
    3964:	089b      	lsrs	r3, r3, #2
    3966:	009b      	lsls	r3, r3, #2
    3968:	18c3      	adds	r3, r0, r3
    396a:	1a12      	subs	r2, r2, r0
    396c:	4298      	cmp	r0, r3
    396e:	d0e1      	beq.n	3934 <sark_cmd_write+0x16>
    3970:	6a01      	ldr	r1, [r0, #32]
    3972:	5011      	str	r1, [r2, r0]
    3974:	3004      	adds	r0, #4
    3976:	e7f9      	b.n	396c <sark_cmd_write+0x4e>

00003978 <sark_cmd_fill>:
    3978:	3014      	adds	r0, #20
    397a:	c807      	ldmia	r0, {r0, r1, r2}
    397c:	b510      	push	{r4, lr}
    397e:	f7fc ec5c 	blx	238 <sark_word_set>
    3982:	2000      	movs	r0, #0
    3984:	bd10      	pop	{r4, pc}

00003986 <sark_wait>:
    3986:	b570      	push	{r4, r5, r6, lr}
    3988:	255d      	movs	r5, #93	@ 0x5d
    398a:	2401      	movs	r4, #1
    398c:	782b      	ldrb	r3, [r5, #0]
    398e:	4223      	tst	r3, r4
    3990:	d100      	bne.n	3994 <sark_wait+0xe>
    3992:	bd70      	pop	{r4, r5, r6, pc}
    3994:	f7fc ec1c 	blx	1d0 <cpu_wfi>
    3998:	e7f8      	b.n	398c <sark_wait+0x6>
	...

0000399c <sark_int>:
    399c:	b570      	push	{r4, r5, r6, lr}
    399e:	4d53      	ldr	r5, [pc, #332]	@ (3aec <sark_int+0x150>)
    39a0:	2301      	movs	r3, #1
    39a2:	686a      	ldr	r2, [r5, #4]
    39a4:	69e9      	ldr	r1, [r5, #28]
    39a6:	4093      	lsls	r3, r2
    39a8:	4a51      	ldr	r2, [pc, #324]	@ (3af0 <sark_int+0x154>)
    39aa:	189b      	adds	r3, r3, r2
    39ac:	4a51      	ldr	r2, [pc, #324]	@ (3af4 <sark_int+0x158>)
    39ae:	6013      	str	r3, [r2, #0]
    39b0:	000a      	movs	r2, r1
    39b2:	3238      	adds	r2, #56	@ 0x38
    39b4:	7813      	ldrb	r3, [r2, #0]
    39b6:	2b00      	cmp	r3, #0
    39b8:	d005      	beq.n	39c6 <sark_int+0x2a>
    39ba:	6b0e      	ldr	r6, [r1, #48]	@ 0x30
    39bc:	2400      	movs	r4, #0
    39be:	2b02      	cmp	r3, #2
    39c0:	d102      	bne.n	39c8 <sark_int+0x2c>
    39c2:	6308      	str	r0, [r1, #48]	@ 0x30
    39c4:	7014      	strb	r4, [r2, #0]
    39c6:	bd70      	pop	{r4, r5, r6, pc}
    39c8:	7014      	strb	r4, [r2, #0]
    39ca:	2b03      	cmp	r3, #3
    39cc:	d124      	bne.n	3a18 <sark_int+0x7c>
    39ce:	1ef0      	subs	r0, r6, #3
    39d0:	280a      	cmp	r0, #10
    39d2:	d8f8      	bhi.n	39c6 <sark_int+0x2a>
    39d4:	f001 fc44 	bl	5260 <__gnu_thumb1_case_sqi>
    39d8:	06f7f710 	.word	0x06f7f710
    39dc:	161d0c0a 	.word	0x161d0c0a
    39e0:	1616      	.short	0x1616
    39e2:	16          	.byte	0x16
    39e3:	00          	.byte	0x00
    39e4:	2001      	movs	r0, #1
    39e6:	f000 f8bb 	bl	3b60 <event_pause>
    39ea:	e7ec      	b.n	39c6 <sark_int+0x2a>
    39ec:	2000      	movs	r0, #0
    39ee:	e7fa      	b.n	39e6 <sark_int+0x4a>
    39f0:	20ff      	movs	r0, #255	@ 0xff
    39f2:	f000 f8cb 	bl	3b8c <event_stop>
    39f6:	e7e6      	b.n	39c6 <sark_int+0x2a>
    39f8:	225d      	movs	r2, #93	@ 0x5d
    39fa:	7813      	ldrb	r3, [r2, #0]
    39fc:	2101      	movs	r1, #1
    39fe:	438b      	bics	r3, r1
    3a00:	7013      	strb	r3, [r2, #0]
    3a02:	e7e0      	b.n	39c6 <sark_int+0x2a>
    3a04:	4b3c      	ldr	r3, [pc, #240]	@ (3af8 <sark_int+0x15c>)
    3a06:	2280      	movs	r2, #128	@ 0x80
    3a08:	62de      	str	r6, [r3, #44]	@ 0x2c
    3a0a:	4b3c      	ldr	r3, [pc, #240]	@ (3afc <sark_int+0x160>)
    3a0c:	0592      	lsls	r2, r2, #22
    3a0e:	601a      	str	r2, [r3, #0]
    3a10:	e7d9      	b.n	39c6 <sark_int+0x2a>
    3a12:	4b3a      	ldr	r3, [pc, #232]	@ (3afc <sark_int+0x160>)
    3a14:	2210      	movs	r2, #16
    3a16:	e7fa      	b.n	3a0e <sark_int+0x72>
    3a18:	2b01      	cmp	r3, #1
    3a1a:	d1d4      	bne.n	39c6 <sark_int+0x2a>
    3a1c:	f7ff fde6 	bl	35ec <sark_msg_get>
    3a20:	1e04      	subs	r4, r0, #0
    3a22:	d05f      	beq.n	3ae4 <sark_int+0x148>
    3a24:	0031      	movs	r1, r6
    3a26:	f7fc ec1a 	blx	25c <sark_msg_cpy>
    3a2a:	0030      	movs	r0, r6
    3a2c:	f7ff fe20 	bl	3670 <sark_shmsg_free>
    3a30:	6aab      	ldr	r3, [r5, #40]	@ 0x28
    3a32:	3301      	adds	r3, #1
    3a34:	62ab      	str	r3, [r5, #40]	@ 0x28
    3a36:	7aa5      	ldrb	r5, [r4, #10]
    3a38:	2d1f      	cmp	r5, #31
    3a3a:	d834      	bhi.n	3aa6 <sark_int+0x10a>
    3a3c:	88a3      	ldrh	r3, [r4, #4]
    3a3e:	2b17      	cmp	r3, #23
    3a40:	d803      	bhi.n	3a4a <sark_int+0xae>
    3a42:	2381      	movs	r3, #129	@ 0x81
    3a44:	2000      	movs	r0, #0
    3a46:	8223      	strh	r3, [r4, #16]
    3a48:	e00c      	b.n	3a64 <sark_int+0xc8>
    3a4a:	8a20      	ldrh	r0, [r4, #16]
    3a4c:	2380      	movs	r3, #128	@ 0x80
    3a4e:	8223      	strh	r3, [r4, #16]
    3a50:	2805      	cmp	r0, #5
    3a52:	d826      	bhi.n	3aa2 <sark_int+0x106>
    3a54:	f7fc fc7e 	bl	354 <__gnu_thumb1_case_uqi>
    3a58:	1d192503 	.word	0x1d192503
    3a5c:	2125      	.short	0x2125
    3a5e:	0020      	movs	r0, r4
    3a60:	f7ff ff06 	bl	3870 <sark_cmd_ver>
    3a64:	8963      	ldrh	r3, [r4, #10]
    3a66:	89a1      	ldrh	r1, [r4, #12]
    3a68:	021a      	lsls	r2, r3, #8
    3a6a:	0a1b      	lsrs	r3, r3, #8
    3a6c:	4313      	orrs	r3, r2
    3a6e:	300c      	adds	r0, #12
    3a70:	8163      	strh	r3, [r4, #10]
    3a72:	89e3      	ldrh	r3, [r4, #14]
    3a74:	80a0      	strh	r0, [r4, #4]
    3a76:	81e1      	strh	r1, [r4, #14]
    3a78:	0020      	movs	r0, r4
    3a7a:	210a      	movs	r1, #10
    3a7c:	81a3      	strh	r3, [r4, #12]
    3a7e:	f7ff feaf 	bl	37e0 <sark_msg_send>
    3a82:	0020      	movs	r0, r4
    3a84:	f7ff fdca 	bl	361c <sark_msg_free>
    3a88:	e79d      	b.n	39c6 <sark_int+0x2a>
    3a8a:	0020      	movs	r0, r4
    3a8c:	f7ff ff18 	bl	38c0 <sark_cmd_read>
    3a90:	e7e8      	b.n	3a64 <sark_int+0xc8>
    3a92:	0020      	movs	r0, r4
    3a94:	f7ff ff43 	bl	391e <sark_cmd_write>
    3a98:	e7e4      	b.n	3a64 <sark_int+0xc8>
    3a9a:	0020      	movs	r0, r4
    3a9c:	f7ff ff6c 	bl	3978 <sark_cmd_fill>
    3aa0:	e7e0      	b.n	3a64 <sark_int+0xc8>
    3aa2:	2383      	movs	r3, #131	@ 0x83
    3aa4:	e7ce      	b.n	3a44 <sark_int+0xa8>
    3aa6:	235b      	movs	r3, #91	@ 0x5b
    3aa8:	781b      	ldrb	r3, [r3, #0]
    3aaa:	2b00      	cmp	r3, #0
    3aac:	d00f      	beq.n	3ace <sark_int+0x132>
    3aae:	4b14      	ldr	r3, [pc, #80]	@ (3b00 <sark_int+0x164>)
    3ab0:	699b      	ldr	r3, [r3, #24]
    3ab2:	2b00      	cmp	r3, #0
    3ab4:	d0e5      	beq.n	3a82 <sark_int+0xe6>
    3ab6:	f7fc eb80 	blx	1b8 <cpu_int_disable>
    3aba:	096a      	lsrs	r2, r5, #5
    3abc:	0021      	movs	r1, r4
    3abe:	0006      	movs	r6, r0
    3ac0:	2003      	movs	r0, #3
    3ac2:	f001 f8cd 	bl	4c60 <schedule_sysmode>
    3ac6:	0030      	movs	r0, r6
    3ac8:	f7fc eb7e 	blx	1c8 <cpu_int_restore>
    3acc:	e77b      	b.n	39c6 <sark_int+0x2a>
    3ace:	4b0d      	ldr	r3, [pc, #52]	@ (3b04 <sark_int+0x168>)
    3ad0:	681a      	ldr	r2, [r3, #0]
    3ad2:	2380      	movs	r3, #128	@ 0x80
    3ad4:	055b      	lsls	r3, r3, #21
    3ad6:	421a      	tst	r2, r3
    3ad8:	d0d3      	beq.n	3a82 <sark_int+0xe6>
    3ada:	4a07      	ldr	r2, [pc, #28]	@ (3af8 <sark_int+0x15c>)
    3adc:	6294      	str	r4, [r2, #40]	@ 0x28
    3ade:	4a07      	ldr	r2, [pc, #28]	@ (3afc <sark_int+0x160>)
    3ae0:	6013      	str	r3, [r2, #0]
    3ae2:	e770      	b.n	39c6 <sark_int+0x2a>
    3ae4:	0030      	movs	r0, r6
    3ae6:	f7ff fdc3 	bl	3670 <sark_shmsg_free>
    3aea:	e76c      	b.n	39c6 <sark_int+0x2a>
    3aec:	00400934 	.word	0x00400934
    3af0:	5ec00000 	.word	0x5ec00000
    3af4:	e200000c 	.word	0xe200000c
    3af8:	00400970 	.word	0x00400970
    3afc:	1f000018 	.word	0x1f000018
    3b00:	00400a80 	.word	0x00400a80
    3b04:	1f000010 	.word	0x1f000010

00003b08 <event_wait>:
    3b08:	4b12      	ldr	r3, [pc, #72]	@ (3b54 <event_wait+0x4c>)
    3b0a:	b570      	push	{r4, r5, r6, lr}
    3b0c:	681b      	ldr	r3, [r3, #0]
    3b0e:	4d12      	ldr	r5, [pc, #72]	@ (3b58 <event_wait+0x50>)
    3b10:	2401      	movs	r4, #1
    3b12:	409c      	lsls	r4, r3
    3b14:	7eab      	ldrb	r3, [r5, #26]
    3b16:	4e11      	ldr	r6, [pc, #68]	@ (3b5c <event_wait+0x54>)
    3b18:	2b00      	cmp	r3, #0
    3b1a:	d011      	beq.n	3b40 <event_wait+0x38>
    3b1c:	2009      	movs	r0, #9
    3b1e:	f7ff fd43 	bl	35a8 <sark_cpu_state>
    3b22:	6833      	ldr	r3, [r6, #0]
    3b24:	0022      	movs	r2, r4
    3b26:	439a      	bics	r2, r3
    3b28:	d107      	bne.n	3b3a <event_wait+0x32>
    3b2a:	7eaa      	ldrb	r2, [r5, #26]
    3b2c:	2301      	movs	r3, #1
    3b2e:	4053      	eors	r3, r2
    3b30:	2007      	movs	r0, #7
    3b32:	76ab      	strb	r3, [r5, #26]
    3b34:	f7ff fd38 	bl	35a8 <sark_cpu_state>
    3b38:	bd70      	pop	{r4, r5, r6, pc}
    3b3a:	f7fc eb4a 	blx	1d0 <cpu_wfi>
    3b3e:	e7f0      	b.n	3b22 <event_wait+0x1a>
    3b40:	2008      	movs	r0, #8
    3b42:	f7ff fd31 	bl	35a8 <sark_cpu_state>
    3b46:	6833      	ldr	r3, [r6, #0]
    3b48:	421c      	tst	r4, r3
    3b4a:	d0ee      	beq.n	3b2a <event_wait+0x22>
    3b4c:	f7fc eb40 	blx	1d0 <cpu_wfi>
    3b50:	e7f9      	b.n	3b46 <event_wait+0x3e>
    3b52:	46c0      	nop			@ (mov r8, r8)
    3b54:	00400934 	.word	0x00400934
    3b58:	00400970 	.word	0x00400970
    3b5c:	e2000058 	.word	0xe2000058

00003b60 <event_pause>:
    3b60:	b570      	push	{r4, r5, r6, lr}
    3b62:	4d09      	ldr	r5, [pc, #36]	@ (3b88 <event_pause+0x28>)
    3b64:	1e04      	subs	r4, r0, #0
    3b66:	d00b      	beq.n	3b80 <event_pause+0x20>
    3b68:	2301      	movs	r3, #1
    3b6a:	200a      	movs	r0, #10
    3b6c:	762b      	strb	r3, [r5, #24]
    3b6e:	f7ff fd1b 	bl	35a8 <sark_cpu_state>
    3b72:	6b2b      	ldr	r3, [r5, #48]	@ 0x30
    3b74:	2b00      	cmp	r3, #0
    3b76:	d002      	beq.n	3b7e <event_pause+0x1e>
    3b78:	6b69      	ldr	r1, [r5, #52]	@ 0x34
    3b7a:	0020      	movs	r0, r4
    3b7c:	4798      	blx	r3
    3b7e:	bd70      	pop	{r4, r5, r6, pc}
    3b80:	7628      	strb	r0, [r5, #24]
    3b82:	2007      	movs	r0, #7
    3b84:	e7f3      	b.n	3b6e <event_pause+0xe>
    3b86:	46c0      	nop			@ (mov r8, r8)
    3b88:	00400970 	.word	0x00400970

00003b8c <event_stop>:
    3b8c:	4b03      	ldr	r3, [pc, #12]	@ (3b9c <event_stop+0x10>)
    3b8e:	2202      	movs	r2, #2
    3b90:	761a      	strb	r2, [r3, #24]
    3b92:	4a03      	ldr	r2, [pc, #12]	@ (3ba0 <event_stop+0x14>)
    3b94:	6cd9      	ldr	r1, [r3, #76]	@ 0x4c
    3b96:	6011      	str	r1, [r2, #0]
    3b98:	6398      	str	r0, [r3, #56]	@ 0x38
    3b9a:	4770      	bx	lr
    3b9c:	00400970 	.word	0x00400970
    3ba0:	1f000014 	.word	0x1f000014

00003ba4 <event_alloc>:
    3ba4:	b570      	push	{r4, r5, r6, lr}
    3ba6:	211c      	movs	r1, #28
    3ba8:	0005      	movs	r5, r0
    3baa:	f000 f97b 	bl	3ea4 <sark_alloc>
    3bae:	1e04      	subs	r4, r0, #0
    3bb0:	d015      	beq.n	3bde <event_alloc+0x3a>
    3bb2:	221c      	movs	r2, #28
    3bb4:	0029      	movs	r1, r5
    3bb6:	f7ff fd09 	bl	35cc <sark_block_init>
    3bba:	0023      	movs	r3, r4
    3bbc:	2200      	movs	r2, #0
    3bbe:	0006      	movs	r6, r0
    3bc0:	3d01      	subs	r5, #1
    3bc2:	d209      	bcs.n	3bd8 <event_alloc+0x34>
    3bc4:	f7fc eaf8 	blx	1b8 <cpu_int_disable>
    3bc8:	4b08      	ldr	r3, [pc, #32]	@ (3bec <event_alloc+0x48>)
    3bca:	681a      	ldr	r2, [r3, #0]
    3bcc:	6032      	str	r2, [r6, #0]
    3bce:	601c      	str	r4, [r3, #0]
    3bd0:	f7fc eafa 	blx	1c8 <cpu_int_restore>
    3bd4:	2001      	movs	r0, #1
    3bd6:	bd70      	pop	{r4, r5, r6, pc}
    3bd8:	761a      	strb	r2, [r3, #24]
    3bda:	681b      	ldr	r3, [r3, #0]
    3bdc:	e7f0      	b.n	3bc0 <event_alloc+0x1c>
    3bde:	4a03      	ldr	r2, [pc, #12]	@ (3bec <event_alloc+0x48>)
    3be0:	2308      	movs	r3, #8
    3be2:	6951      	ldr	r1, [r2, #20]
    3be4:	430b      	orrs	r3, r1
    3be6:	6153      	str	r3, [r2, #20]
    3be8:	e7f5      	b.n	3bd6 <event_alloc+0x32>
    3bea:	46c0      	nop			@ (mov r8, r8)
    3bec:	00400970 	.word	0x00400970

00003bf0 <timer_cancel_init>:
    3bf0:	4b03      	ldr	r3, [pc, #12]	@ (3c00 <timer_cancel_init+0x10>)
    3bf2:	2200      	movs	r2, #0
    3bf4:	605a      	str	r2, [r3, #4]
    3bf6:	615a      	str	r2, [r3, #20]
    3bf8:	611a      	str	r2, [r3, #16]
    3bfa:	3201      	adds	r2, #1
    3bfc:	761a      	strb	r2, [r3, #24]
    3bfe:	4770      	bx	lr
    3c00:	00400a08 	.word	0x00400a08

00003c04 <sark_vic_init>:
    3c04:	4b0b      	ldr	r3, [pc, #44]	@ (3c34 <sark_vic_init+0x30>)
    3c06:	2201      	movs	r2, #1
    3c08:	4252      	negs	r2, r2
    3c0a:	b510      	push	{r4, lr}
    3c0c:	601a      	str	r2, [r3, #0]
    3c0e:	4b0a      	ldr	r3, [pc, #40]	@ (3c38 <sark_vic_init+0x34>)
    3c10:	2200      	movs	r2, #0
    3c12:	601a      	str	r2, [r3, #0]
    3c14:	4b09      	ldr	r3, [pc, #36]	@ (3c3c <sark_vic_init+0x38>)
    3c16:	4c0a      	ldr	r4, [pc, #40]	@ (3c40 <sark_vic_init+0x3c>)
    3c18:	601a      	str	r2, [r3, #0]
    3c1a:	490a      	ldr	r1, [pc, #40]	@ (3c44 <sark_vic_init+0x40>)
    3c1c:	4b0a      	ldr	r3, [pc, #40]	@ (3c48 <sark_vic_init+0x44>)
    3c1e:	1e58      	subs	r0, r3, #1
    3c20:	601a      	str	r2, [r3, #0]
    3c22:	38ff      	subs	r0, #255	@ 0xff
    3c24:	3304      	adds	r3, #4
    3c26:	6004      	str	r4, [r0, #0]
    3c28:	428b      	cmp	r3, r1
    3c2a:	d1f8      	bne.n	3c1e <sark_vic_init+0x1a>
    3c2c:	4a07      	ldr	r2, [pc, #28]	@ (3c4c <sark_vic_init+0x48>)
    3c2e:	4b08      	ldr	r3, [pc, #32]	@ (3c50 <sark_vic_init+0x4c>)
    3c30:	6013      	str	r3, [r2, #0]
    3c32:	bd10      	pop	{r4, pc}
    3c34:	1f000014 	.word	0x1f000014
    3c38:	1f00000c 	.word	0x1f00000c
    3c3c:	1f000030 	.word	0x1f000030
    3c40:	00000108 	.word	0x00000108
    3c44:	1f000240 	.word	0x1f000240
    3c48:	1f000200 	.word	0x1f000200
    3c4c:	1f000034 	.word	0x1f000034
    3c50:	00000320 	.word	0x00000320

00003c54 <sark_vic_set>:
    3c54:	b510      	push	{r4, lr}
    3c56:	2810      	cmp	r0, #16
    3c58:	d10b      	bne.n	3c72 <sark_vic_set+0x1e>
    3c5a:	62c3      	str	r3, [r0, #44]	@ 0x2c
    3c5c:	2301      	movs	r3, #1
    3c5e:	480a      	ldr	r0, [pc, #40]	@ (3c88 <sark_vic_set+0x34>)
    3c60:	408b      	lsls	r3, r1
    3c62:	6003      	str	r3, [r0, #0]
    3c64:	2a00      	cmp	r2, #0
    3c66:	d003      	beq.n	3c70 <sark_vic_set+0x1c>
    3c68:	4a08      	ldr	r2, [pc, #32]	@ (3c8c <sark_vic_set+0x38>)
    3c6a:	2301      	movs	r3, #1
    3c6c:	408b      	lsls	r3, r1
    3c6e:	6013      	str	r3, [r2, #0]
    3c70:	bd10      	pop	{r4, pc}
    3c72:	3040      	adds	r0, #64	@ 0x40
    3c74:	24f8      	movs	r4, #248	@ 0xf8
    3c76:	0080      	lsls	r0, r0, #2
    3c78:	0564      	lsls	r4, r4, #21
    3c7a:	1904      	adds	r4, r0, r4
    3c7c:	6023      	str	r3, [r4, #0]
    3c7e:	4b04      	ldr	r3, [pc, #16]	@ (3c90 <sark_vic_set+0x3c>)
    3c80:	18c0      	adds	r0, r0, r3
    3c82:	2320      	movs	r3, #32
    3c84:	430b      	orrs	r3, r1
    3c86:	e7ec      	b.n	3c62 <sark_vic_set+0xe>
    3c88:	1f00000c 	.word	0x1f00000c
    3c8c:	1f000010 	.word	0x1f000010
    3c90:	1f000100 	.word	0x1f000100

00003c94 <v2p_mask>:
    3c94:	2300      	movs	r3, #0
    3c96:	0002      	movs	r2, r0
    3c98:	2101      	movs	r1, #1
    3c9a:	0018      	movs	r0, r3
    3c9c:	b530      	push	{r4, r5, lr}
    3c9e:	000c      	movs	r4, r1
    3ca0:	409c      	lsls	r4, r3
    3ca2:	4222      	tst	r2, r4
    3ca4:	d005      	beq.n	3cb2 <v2p_mask+0x1e>
    3ca6:	4c05      	ldr	r4, [pc, #20]	@ (3cbc <v2p_mask+0x28>)
    3ca8:	000d      	movs	r5, r1
    3caa:	191c      	adds	r4, r3, r4
    3cac:	7824      	ldrb	r4, [r4, #0]
    3cae:	40a5      	lsls	r5, r4
    3cb0:	4328      	orrs	r0, r5
    3cb2:	3301      	adds	r3, #1
    3cb4:	2b12      	cmp	r3, #18
    3cb6:	d1f2      	bne.n	3c9e <v2p_mask+0xa>
    3cb8:	bd30      	pop	{r4, r5, pc}
    3cba:	46c0      	nop			@ (mov r8, r8)
    3cbc:	e5007fa8 	.word	0xe5007fa8

00003cc0 <rtr_mc_clear>:
    3cc0:	1841      	adds	r1, r0, r1
    3cc2:	2280      	movs	r2, #128	@ 0x80
    3cc4:	0003      	movs	r3, r0
    3cc6:	00d2      	lsls	r2, r2, #3
    3cc8:	2000      	movs	r0, #0
    3cca:	b5f0      	push	{r4, r5, r6, r7, lr}
    3ccc:	4291      	cmp	r1, r2
    3cce:	d812      	bhi.n	3cf6 <rtr_mc_clear+0x36>
    3cd0:	480f      	ldr	r0, [pc, #60]	@ (3d10 <rtr_mc_clear+0x50>)
    3cd2:	009a      	lsls	r2, r3, #2
    3cd4:	1812      	adds	r2, r2, r0
    3cd6:	480f      	ldr	r0, [pc, #60]	@ (3d14 <rtr_mc_clear+0x54>)
    3cd8:	2580      	movs	r5, #128	@ 0x80
    3cda:	6800      	ldr	r0, [r0, #0]
    3cdc:	011c      	lsls	r4, r3, #4
    3cde:	01ed      	lsls	r5, r5, #7
    3ce0:	1900      	adds	r0, r0, r4
    3ce2:	2780      	movs	r7, #128	@ 0x80
    3ce4:	24ff      	movs	r4, #255	@ 0xff
    3ce6:	46ac      	mov	ip, r5
    3ce8:	2501      	movs	r5, #1
    3cea:	0624      	lsls	r4, r4, #24
    3cec:	023f      	lsls	r7, r7, #8
    3cee:	426d      	negs	r5, r5
    3cf0:	4299      	cmp	r1, r3
    3cf2:	d801      	bhi.n	3cf8 <rtr_mc_clear+0x38>
    3cf4:	2001      	movs	r0, #1
    3cf6:	bdf0      	pop	{r4, r5, r6, r7, pc}
    3cf8:	2600      	movs	r6, #0
    3cfa:	6014      	str	r4, [r2, #0]
    3cfc:	6044      	str	r4, [r0, #4]
    3cfe:	51d6      	str	r6, [r2, r7]
    3d00:	60c6      	str	r6, [r0, #12]
    3d02:	4666      	mov	r6, ip
    3d04:	5195      	str	r5, [r2, r6]
    3d06:	3301      	adds	r3, #1
    3d08:	6085      	str	r5, [r0, #8]
    3d0a:	3204      	adds	r2, #4
    3d0c:	3010      	adds	r0, #16
    3d0e:	e7ef      	b.n	3cf0 <rtr_mc_clear+0x30>
    3d10:	e1004000 	.word	0xe1004000
    3d14:	e5007fd4 	.word	0xe5007fd4

00003d18 <rtr_mc_set>:
    3d18:	b5f7      	push	{r0, r1, r2, r4, r5, r6, r7, lr}
    3d1a:	001d      	movs	r5, r3
    3d1c:	2380      	movs	r3, #128	@ 0x80
    3d1e:	0004      	movs	r4, r0
    3d20:	000f      	movs	r7, r1
    3d22:	00db      	lsls	r3, r3, #3
    3d24:	2000      	movs	r0, #0
    3d26:	9201      	str	r2, [sp, #4]
    3d28:	429c      	cmp	r4, r3
    3d2a:	d224      	bcs.n	3d76 <rtr_mc_set+0x5e>
    3d2c:	4a12      	ldr	r2, [pc, #72]	@ (3d78 <rtr_mc_set+0x60>)
    3d2e:	0123      	lsls	r3, r4, #4
    3d30:	6816      	ldr	r6, [r2, #0]
    3d32:	0e2a      	lsrs	r2, r5, #24
    3d34:	18f6      	adds	r6, r6, r3
    3d36:	4282      	cmp	r2, r0
    3d38:	d101      	bne.n	3d3e <rtr_mc_set+0x26>
    3d3a:	235c      	movs	r3, #92	@ 0x5c
    3d3c:	781a      	ldrb	r2, [r3, #0]
    3d3e:	0228      	lsls	r0, r5, #8
    3d40:	0a03      	lsrs	r3, r0, #8
    3d42:	6073      	str	r3, [r6, #4]
    3d44:	4b0d      	ldr	r3, [pc, #52]	@ (3d7c <rtr_mc_set+0x64>)
    3d46:	490e      	ldr	r1, [pc, #56]	@ (3d80 <rtr_mc_set+0x68>)
    3d48:	681b      	ldr	r3, [r3, #0]
    3d4a:	0b80      	lsrs	r0, r0, #14
    3d4c:	021b      	lsls	r3, r3, #8
    3d4e:	185b      	adds	r3, r3, r1
    3d50:	189b      	adds	r3, r3, r2
    3d52:	8073      	strh	r3, [r6, #2]
    3d54:	f7ff ff9e 	bl	3c94 <v2p_mask>
    3d58:	233f      	movs	r3, #63	@ 0x3f
    3d5a:	401d      	ands	r5, r3
    3d5c:	4b09      	ldr	r3, [pc, #36]	@ (3d84 <rtr_mc_set+0x6c>)
    3d5e:	00a4      	lsls	r4, r4, #2
    3d60:	9a01      	ldr	r2, [sp, #4]
    3d62:	0180      	lsls	r0, r0, #6
    3d64:	4305      	orrs	r5, r0
    3d66:	50e5      	str	r5, [r4, r3]
    3d68:	4b07      	ldr	r3, [pc, #28]	@ (3d88 <rtr_mc_set+0x70>)
    3d6a:	2001      	movs	r0, #1
    3d6c:	50e7      	str	r7, [r4, r3]
    3d6e:	4b07      	ldr	r3, [pc, #28]	@ (3d8c <rtr_mc_set+0x74>)
    3d70:	60b7      	str	r7, [r6, #8]
    3d72:	50e2      	str	r2, [r4, r3]
    3d74:	60f2      	str	r2, [r6, #12]
    3d76:	bdfe      	pop	{r1, r2, r3, r4, r5, r6, r7, pc}
    3d78:	e5007fd4 	.word	0xe5007fd4
    3d7c:	00400934 	.word	0x00400934
    3d80:	ffff8000 	.word	0xffff8000
    3d84:	e1004000 	.word	0xe1004000
    3d88:	e1008000 	.word	0xe1008000
    3d8c:	e100c000 	.word	0xe100c000

00003d90 <sark_fiq_han>:
    3d90:	e92d000c 	push	{r2, r3}
    3d94:	e59f2018 	ldr	r2, [pc, #24]	@ 3db4 <sark_fiq_han+0x24>
    3d98:	e3a03202 	mov	r3, #536870912	@ 0x20000000
    3d9c:	e5933014 	ldr	r3, [r3, #20]
    3da0:	e5923038 	ldr	r3, [r2, #56]	@ 0x38
    3da4:	e2833001 	add	r3, r3, #1
    3da8:	e5823038 	str	r3, [r2, #56]	@ 0x38
    3dac:	e8bd000c 	pop	{r2, r3}
    3db0:	e25ef004 	subs	pc, lr, #4
    3db4:	00400934 	.word	0x00400934

00003db8 <sark_xalloc>:
    3db8:	b5f0      	push	{r4, r5, r6, r7, lr}
    3dba:	0006      	movs	r6, r0
    3dbc:	b085      	sub	sp, #20
    3dbe:	0017      	movs	r7, r2
    3dc0:	2900      	cmp	r1, #0
    3dc2:	d102      	bne.n	3dca <sark_xalloc+0x12>
    3dc4:	2000      	movs	r0, #0
    3dc6:	b005      	add	sp, #20
    3dc8:	bdf0      	pop	{r4, r5, r6, r7, pc}
    3dca:	2aff      	cmp	r2, #255	@ 0xff
    3dcc:	d8fa      	bhi.n	3dc4 <sark_xalloc+0xc>
    3dce:	0a1d      	lsrs	r5, r3, #8
    3dd0:	079a      	lsls	r2, r3, #30
    3dd2:	d401      	bmi.n	3dd8 <sark_xalloc+0x20>
    3dd4:	225c      	movs	r2, #92	@ 0x5c
    3dd6:	7815      	ldrb	r5, [r2, #0]
    3dd8:	022d      	lsls	r5, r5, #8
    3dda:	19ed      	adds	r5, r5, r7
    3ddc:	2f00      	cmp	r7, #0
    3dde:	d00f      	beq.n	3e00 <sark_xalloc+0x48>
    3de0:	4a2e      	ldr	r2, [pc, #184]	@ (3e9c <sark_xalloc+0xe4>)
    3de2:	00a8      	lsls	r0, r5, #2
    3de4:	6812      	ldr	r2, [r2, #0]
    3de6:	5880      	ldr	r0, [r0, r2]
    3de8:	2800      	cmp	r0, #0
    3dea:	d009      	beq.n	3e00 <sark_xalloc+0x48>
    3dec:	075b      	lsls	r3, r3, #29
    3dee:	d5e9      	bpl.n	3dc4 <sark_xalloc+0xc>
    3df0:	0002      	movs	r2, r0
    3df2:	3a08      	subs	r2, #8
    3df4:	6813      	ldr	r3, [r2, #0]
    3df6:	1a9b      	subs	r3, r3, r2
    3df8:	3b08      	subs	r3, #8
    3dfa:	4299      	cmp	r1, r3
    3dfc:	d0e3      	beq.n	3dc6 <sark_xalloc+0xe>
    3dfe:	e7e1      	b.n	3dc4 <sark_xalloc+0xc>
    3e00:	2203      	movs	r2, #3
    3e02:	3103      	adds	r1, #3
    3e04:	4391      	bics	r1, r2
    3e06:	3108      	adds	r1, #8
    3e08:	3a02      	subs	r2, #2
    3e0a:	9103      	str	r1, [sp, #12]
    3e0c:	0019      	movs	r1, r3
    3e0e:	4011      	ands	r1, r2
    3e10:	2000      	movs	r0, #0
    3e12:	9102      	str	r1, [sp, #8]
    3e14:	4213      	tst	r3, r2
    3e16:	d002      	beq.n	3e1e <sark_xalloc+0x66>
    3e18:	3006      	adds	r0, #6
    3e1a:	f7fc e9de 	blx	1d8 <sark_lock_get>
    3e1e:	6834      	ldr	r4, [r6, #0]
    3e20:	2300      	movs	r3, #0
    3e22:	9301      	str	r3, [sp, #4]
    3e24:	2c00      	cmp	r4, #0
    3e26:	d106      	bne.n	3e36 <sark_xalloc+0x7e>
    3e28:	9b02      	ldr	r3, [sp, #8]
    3e2a:	2b00      	cmp	r3, #0
    3e2c:	d0ca      	beq.n	3dc4 <sark_xalloc+0xc>
    3e2e:	2106      	movs	r1, #6
    3e30:	f7fc e9e4 	blx	1fc <sark_lock_free>
    3e34:	e7c6      	b.n	3dc4 <sark_xalloc+0xc>
    3e36:	9b03      	ldr	r3, [sp, #12]
    3e38:	6821      	ldr	r1, [r4, #0]
    3e3a:	18e3      	adds	r3, r4, r3
    3e3c:	429c      	cmp	r4, r3
    3e3e:	d2f3      	bcs.n	3e28 <sark_xalloc+0x70>
    3e40:	6862      	ldr	r2, [r4, #4]
    3e42:	4694      	mov	ip, r2
    3e44:	4299      	cmp	r1, r3
    3e46:	d325      	bcc.n	3e94 <sark_xalloc+0xdc>
    3e48:	001a      	movs	r2, r3
    3e4a:	3208      	adds	r2, #8
    3e4c:	4291      	cmp	r1, r2
    3e4e:	d904      	bls.n	3e5a <sark_xalloc+0xa2>
    3e50:	4662      	mov	r2, ip
    3e52:	6019      	str	r1, [r3, #0]
    3e54:	6023      	str	r3, [r4, #0]
    3e56:	605a      	str	r2, [r3, #4]
    3e58:	6063      	str	r3, [r4, #4]
    3e5a:	9a01      	ldr	r2, [sp, #4]
    3e5c:	6863      	ldr	r3, [r4, #4]
    3e5e:	2a00      	cmp	r2, #0
    3e60:	d016      	beq.n	3e90 <sark_xalloc+0xd8>
    3e62:	6053      	str	r3, [r2, #4]
    3e64:	68f3      	ldr	r3, [r6, #12]
    3e66:	9a03      	ldr	r2, [sp, #12]
    3e68:	1a9b      	subs	r3, r3, r2
    3e6a:	60f3      	str	r3, [r6, #12]
    3e6c:	9b02      	ldr	r3, [sp, #8]
    3e6e:	2b00      	cmp	r3, #0
    3e70:	d002      	beq.n	3e78 <sark_xalloc+0xc0>
    3e72:	2106      	movs	r1, #6
    3e74:	f7fc e9c2 	blx	1fc <sark_lock_free>
    3e78:	4b09      	ldr	r3, [pc, #36]	@ (3ea0 <sark_xalloc+0xe8>)
    3e7a:	0020      	movs	r0, r4
    3e7c:	18eb      	adds	r3, r5, r3
    3e7e:	3008      	adds	r0, #8
    3e80:	6063      	str	r3, [r4, #4]
    3e82:	2f00      	cmp	r7, #0
    3e84:	d09f      	beq.n	3dc6 <sark_xalloc+0xe>
    3e86:	4b05      	ldr	r3, [pc, #20]	@ (3e9c <sark_xalloc+0xe4>)
    3e88:	00ad      	lsls	r5, r5, #2
    3e8a:	681b      	ldr	r3, [r3, #0]
    3e8c:	50e8      	str	r0, [r5, r3]
    3e8e:	e79a      	b.n	3dc6 <sark_xalloc+0xe>
    3e90:	6033      	str	r3, [r6, #0]
    3e92:	e7e7      	b.n	3e64 <sark_xalloc+0xac>
    3e94:	9401      	str	r4, [sp, #4]
    3e96:	0014      	movs	r4, r2
    3e98:	e7c4      	b.n	3e24 <sark_xalloc+0x6c>
    3e9a:	46c0      	nop			@ (mov r8, r8)
    3e9c:	e5007fdc 	.word	0xe5007fdc
    3ea0:	ffff0000 	.word	0xffff0000

00003ea4 <sark_alloc>:
    3ea4:	b510      	push	{r4, lr}
    3ea6:	4c04      	ldr	r4, [pc, #16]	@ (3eb8 <sark_alloc+0x14>)
    3ea8:	2300      	movs	r3, #0
    3eaa:	4341      	muls	r1, r0
    3eac:	001a      	movs	r2, r3
    3eae:	69a0      	ldr	r0, [r4, #24]
    3eb0:	f7ff ff82 	bl	3db8 <sark_xalloc>
    3eb4:	bd10      	pop	{r4, pc}
    3eb6:	46c0      	nop			@ (mov r8, r8)
    3eb8:	00400934 	.word	0x00400934

00003ebc <sark_xfree>:
    3ebc:	b5f7      	push	{r0, r1, r2, r4, r5, r6, r7, lr}
    3ebe:	2301      	movs	r3, #1
    3ec0:	0016      	movs	r6, r2
    3ec2:	401e      	ands	r6, r3
    3ec4:	0005      	movs	r5, r0
    3ec6:	000c      	movs	r4, r1
    3ec8:	2000      	movs	r0, #0
    3eca:	9601      	str	r6, [sp, #4]
    3ecc:	421a      	tst	r2, r3
    3ece:	d002      	beq.n	3ed6 <sark_xfree+0x1a>
    3ed0:	3006      	adds	r0, #6
    3ed2:	f7fc e982 	blx	1d8 <sark_lock_get>
    3ed6:	0021      	movs	r1, r4
    3ed8:	3908      	subs	r1, #8
    3eda:	684a      	ldr	r2, [r1, #4]
    3edc:	682b      	ldr	r3, [r5, #0]
    3ede:	0617      	lsls	r7, r2, #24
    3ee0:	0e3f      	lsrs	r7, r7, #24
    3ee2:	d007      	beq.n	3ef4 <sark_xfree+0x38>
    3ee4:	4f1d      	ldr	r7, [pc, #116]	@ (3f5c <sark_xfree+0xa0>)
    3ee6:	0412      	lsls	r2, r2, #16
    3ee8:	0c12      	lsrs	r2, r2, #16
    3eea:	0092      	lsls	r2, r2, #2
    3eec:	683f      	ldr	r7, [r7, #0]
    3eee:	0016      	movs	r6, r2
    3ef0:	2200      	movs	r2, #0
    3ef2:	51f2      	str	r2, [r6, r7]
    3ef4:	3c08      	subs	r4, #8
    3ef6:	6827      	ldr	r7, [r4, #0]
    3ef8:	1a7a      	subs	r2, r7, r1
    3efa:	4694      	mov	ip, r2
    3efc:	68ea      	ldr	r2, [r5, #12]
    3efe:	4462      	add	r2, ip
    3f00:	60ea      	str	r2, [r5, #12]
    3f02:	2200      	movs	r2, #0
    3f04:	2b00      	cmp	r3, #0
    3f06:	d10d      	bne.n	3f24 <sark_xfree+0x68>
    3f08:	6063      	str	r3, [r4, #4]
    3f0a:	2a00      	cmp	r2, #0
    3f0c:	d00f      	beq.n	3f2e <sark_xfree+0x72>
    3f0e:	6051      	str	r1, [r2, #4]
    3f10:	2b00      	cmp	r3, #0
    3f12:	d11f      	bne.n	3f54 <sark_xfree+0x98>
    3f14:	6813      	ldr	r3, [r2, #0]
    3f16:	428b      	cmp	r3, r1
    3f18:	d10c      	bne.n	3f34 <sark_xfree+0x78>
    3f1a:	6823      	ldr	r3, [r4, #0]
    3f1c:	6013      	str	r3, [r2, #0]
    3f1e:	6863      	ldr	r3, [r4, #4]
    3f20:	6053      	str	r3, [r2, #4]
    3f22:	e007      	b.n	3f34 <sark_xfree+0x78>
    3f24:	428b      	cmp	r3, r1
    3f26:	d8ef      	bhi.n	3f08 <sark_xfree+0x4c>
    3f28:	001a      	movs	r2, r3
    3f2a:	685b      	ldr	r3, [r3, #4]
    3f2c:	e7ea      	b.n	3f04 <sark_xfree+0x48>
    3f2e:	6029      	str	r1, [r5, #0]
    3f30:	2b00      	cmp	r3, #0
    3f32:	d106      	bne.n	3f42 <sark_xfree+0x86>
    3f34:	9b01      	ldr	r3, [sp, #4]
    3f36:	2b00      	cmp	r3, #0
    3f38:	d002      	beq.n	3f40 <sark_xfree+0x84>
    3f3a:	2106      	movs	r1, #6
    3f3c:	f7fc e95e 	blx	1fc <sark_lock_free>
    3f40:	bdf7      	pop	{r0, r1, r2, r4, r5, r6, r7, pc}
    3f42:	429f      	cmp	r7, r3
    3f44:	d1f6      	bne.n	3f34 <sark_xfree+0x78>
    3f46:	681d      	ldr	r5, [r3, #0]
    3f48:	685b      	ldr	r3, [r3, #4]
    3f4a:	6025      	str	r5, [r4, #0]
    3f4c:	6063      	str	r3, [r4, #4]
    3f4e:	2a00      	cmp	r2, #0
    3f50:	d1e0      	bne.n	3f14 <sark_xfree+0x58>
    3f52:	e7ef      	b.n	3f34 <sark_xfree+0x78>
    3f54:	429f      	cmp	r7, r3
    3f56:	d1dd      	bne.n	3f14 <sark_xfree+0x58>
    3f58:	e7f5      	b.n	3f46 <sark_xfree+0x8a>
    3f5a:	46c0      	nop			@ (mov r8, r8)
    3f5c:	e5007fdc 	.word	0xe5007fdc

00003f60 <sark_free>:
    3f60:	4b03      	ldr	r3, [pc, #12]	@ (3f70 <sark_free+0x10>)
    3f62:	0001      	movs	r1, r0
    3f64:	b510      	push	{r4, lr}
    3f66:	6998      	ldr	r0, [r3, #24]
    3f68:	2200      	movs	r2, #0
    3f6a:	f7ff ffa7 	bl	3ebc <sark_xfree>
    3f6e:	bd10      	pop	{r4, pc}
    3f70:	00400934 	.word	0x00400934

00003f74 <sark_heap_init>:
    3f74:	0003      	movs	r3, r0
    3f76:	3908      	subs	r1, #8
    3f78:	3310      	adds	r3, #16
    3f7a:	6043      	str	r3, [r0, #4]
    3f7c:	6003      	str	r3, [r0, #0]
    3f7e:	1acb      	subs	r3, r1, r3
    3f80:	3b08      	subs	r3, #8
    3f82:	60c3      	str	r3, [r0, #12]
    3f84:	2300      	movs	r3, #0
    3f86:	6101      	str	r1, [r0, #16]
    3f88:	6081      	str	r1, [r0, #8]
    3f8a:	600b      	str	r3, [r1, #0]
    3f8c:	6143      	str	r3, [r0, #20]
    3f8e:	604b      	str	r3, [r1, #4]
    3f90:	4770      	bx	lr
	...

00003f94 <rtr_alloc_id>:
    3f94:	b5f7      	push	{r0, r1, r2, r4, r5, r6, r7, lr}
    3f96:	1e04      	subs	r4, r0, #0
    3f98:	9101      	str	r1, [sp, #4]
    3f9a:	d02d      	beq.n	3ff8 <rtr_alloc_id+0x64>
    3f9c:	4b19      	ldr	r3, [pc, #100]	@ (4004 <rtr_alloc_id+0x70>)
    3f9e:	2007      	movs	r0, #7
    3fa0:	681e      	ldr	r6, [r3, #0]
    3fa2:	f7fc e91a 	blx	1d8 <sark_lock_get>
    3fa6:	4b18      	ldr	r3, [pc, #96]	@ (4008 <rtr_alloc_id+0x74>)
    3fa8:	2200      	movs	r2, #0
    3faa:	9000      	str	r0, [sp, #0]
    3fac:	881d      	ldrh	r5, [r3, #0]
    3fae:	2d00      	cmp	r5, #0
    3fb0:	d01d      	beq.n	3fee <rtr_alloc_id+0x5a>
    3fb2:	012b      	lsls	r3, r5, #4
    3fb4:	5af0      	ldrh	r0, [r6, r3]
    3fb6:	18f1      	adds	r1, r6, r3
    3fb8:	1963      	adds	r3, r4, r5
    3fba:	884f      	ldrh	r7, [r1, #2]
    3fbc:	4298      	cmp	r0, r3
    3fbe:	d202      	bcs.n	3fc6 <rtr_alloc_id+0x32>
    3fc0:	002a      	movs	r2, r5
    3fc2:	003d      	movs	r5, r7
    3fc4:	e7f3      	b.n	3fae <rtr_alloc_id+0x1a>
    3fc6:	4298      	cmp	r0, r3
    3fc8:	d907      	bls.n	3fda <rtr_alloc_id+0x46>
    3fca:	011c      	lsls	r4, r3, #4
    3fcc:	041b      	lsls	r3, r3, #16
    3fce:	1934      	adds	r4, r6, r4
    3fd0:	0c1b      	lsrs	r3, r3, #16
    3fd2:	8020      	strh	r0, [r4, #0]
    3fd4:	800b      	strh	r3, [r1, #0]
    3fd6:	8067      	strh	r7, [r4, #2]
    3fd8:	804b      	strh	r3, [r1, #2]
    3fda:	884b      	ldrh	r3, [r1, #2]
    3fdc:	2a00      	cmp	r2, #0
    3fde:	d00d      	beq.n	3ffc <rtr_alloc_id+0x68>
    3fe0:	0112      	lsls	r2, r2, #4
    3fe2:	18b2      	adds	r2, r6, r2
    3fe4:	8053      	strh	r3, [r2, #2]
    3fe6:	4b09      	ldr	r3, [pc, #36]	@ (400c <rtr_alloc_id+0x78>)
    3fe8:	9a01      	ldr	r2, [sp, #4]
    3fea:	4313      	orrs	r3, r2
    3fec:	804b      	strh	r3, [r1, #2]
    3fee:	9800      	ldr	r0, [sp, #0]
    3ff0:	2107      	movs	r1, #7
    3ff2:	f7fc e904 	blx	1fc <sark_lock_free>
    3ff6:	002c      	movs	r4, r5
    3ff8:	0020      	movs	r0, r4
    3ffa:	bdfe      	pop	{r1, r2, r3, r4, r5, r6, r7, pc}
    3ffc:	4a02      	ldr	r2, [pc, #8]	@ (4008 <rtr_alloc_id+0x74>)
    3ffe:	8013      	strh	r3, [r2, #0]
    4000:	e7f1      	b.n	3fe6 <rtr_alloc_id+0x52>
    4002:	46c0      	nop			@ (mov r8, r8)
    4004:	e5007fd4 	.word	0xe5007fd4
    4008:	e5007fe0 	.word	0xe5007fe0
    400c:	ffff8000 	.word	0xffff8000

00004010 <rtr_alloc>:
    4010:	235c      	movs	r3, #92	@ 0x5c
    4012:	b510      	push	{r4, lr}
    4014:	7819      	ldrb	r1, [r3, #0]
    4016:	f7ff ffbd 	bl	3f94 <rtr_alloc_id>
    401a:	bd10      	pop	{r4, pc}

0000401c <rtr_free>:
    401c:	4b25      	ldr	r3, [pc, #148]	@ (40b4 <rtr_free+0x98>)
    401e:	b5f7      	push	{r0, r1, r2, r4, r5, r6, r7, lr}
    4020:	1e42      	subs	r2, r0, #1
    4022:	0006      	movs	r6, r0
    4024:	9101      	str	r1, [sp, #4]
    4026:	429a      	cmp	r2, r3
    4028:	d843      	bhi.n	40b2 <rtr_free+0x96>
    402a:	4b23      	ldr	r3, [pc, #140]	@ (40b8 <rtr_free+0x9c>)
    402c:	2007      	movs	r0, #7
    402e:	681f      	ldr	r7, [r3, #0]
    4030:	f7fc e8d2 	blx	1d8 <sark_lock_get>
    4034:	4b21      	ldr	r3, [pc, #132]	@ (40bc <rtr_free+0xa0>)
    4036:	0135      	lsls	r5, r6, #4
    4038:	197d      	adds	r5, r7, r5
    403a:	9000      	str	r0, [sp, #0]
    403c:	881c      	ldrh	r4, [r3, #0]
    403e:	9b01      	ldr	r3, [sp, #4]
    4040:	2b00      	cmp	r3, #0
    4042:	d004      	beq.n	404e <rtr_free+0x32>
    4044:	8829      	ldrh	r1, [r5, #0]
    4046:	0030      	movs	r0, r6
    4048:	1b89      	subs	r1, r1, r6
    404a:	f7ff fe39 	bl	3cc0 <rtr_mc_clear>
    404e:	2300      	movs	r3, #0
    4050:	2c00      	cmp	r4, #0
    4052:	d113      	bne.n	407c <rtr_free+0x60>
    4054:	0432      	lsls	r2, r6, #16
    4056:	0c12      	lsrs	r2, r2, #16
    4058:	806c      	strh	r4, [r5, #2]
    405a:	2b00      	cmp	r3, #0
    405c:	d021      	beq.n	40a2 <rtr_free+0x86>
    405e:	0119      	lsls	r1, r3, #4
    4060:	1879      	adds	r1, r7, r1
    4062:	804a      	strh	r2, [r1, #2]
    4064:	2c00      	cmp	r4, #0
    4066:	d110      	bne.n	408a <rtr_free+0x6e>
    4068:	011b      	lsls	r3, r3, #4
    406a:	18fa      	adds	r2, r7, r3
    406c:	5afb      	ldrh	r3, [r7, r3]
    406e:	429e      	cmp	r6, r3
    4070:	d11b      	bne.n	40aa <rtr_free+0x8e>
    4072:	882b      	ldrh	r3, [r5, #0]
    4074:	8013      	strh	r3, [r2, #0]
    4076:	886b      	ldrh	r3, [r5, #2]
    4078:	8053      	strh	r3, [r2, #2]
    407a:	e016      	b.n	40aa <rtr_free+0x8e>
    407c:	42a6      	cmp	r6, r4
    407e:	d3e9      	bcc.n	4054 <rtr_free+0x38>
    4080:	0122      	lsls	r2, r4, #4
    4082:	18ba      	adds	r2, r7, r2
    4084:	0023      	movs	r3, r4
    4086:	8854      	ldrh	r4, [r2, #2]
    4088:	e7e2      	b.n	4050 <rtr_free+0x34>
    408a:	882a      	ldrh	r2, [r5, #0]
    408c:	4294      	cmp	r4, r2
    408e:	d105      	bne.n	409c <rtr_free+0x80>
    4090:	0124      	lsls	r4, r4, #4
    4092:	5b39      	ldrh	r1, [r7, r4]
    4094:	193a      	adds	r2, r7, r4
    4096:	8029      	strh	r1, [r5, #0]
    4098:	8852      	ldrh	r2, [r2, #2]
    409a:	806a      	strh	r2, [r5, #2]
    409c:	2b00      	cmp	r3, #0
    409e:	d004      	beq.n	40aa <rtr_free+0x8e>
    40a0:	e7e2      	b.n	4068 <rtr_free+0x4c>
    40a2:	4906      	ldr	r1, [pc, #24]	@ (40bc <rtr_free+0xa0>)
    40a4:	800a      	strh	r2, [r1, #0]
    40a6:	2c00      	cmp	r4, #0
    40a8:	d1ef      	bne.n	408a <rtr_free+0x6e>
    40aa:	9800      	ldr	r0, [sp, #0]
    40ac:	2107      	movs	r1, #7
    40ae:	f7fc e8a6 	blx	1fc <sark_lock_free>
    40b2:	bdf7      	pop	{r0, r1, r2, r4, r5, r6, r7, pc}
    40b4:	000003fe 	.word	0x000003fe
    40b8:	e5007fd4 	.word	0xe5007fd4
    40bc:	e5007fe0 	.word	0xe5007fe0

000040c0 <io_buf_init>:
    40c0:	b510      	push	{r4, lr}
    40c2:	4c0c      	ldr	r4, [pc, #48]	@ (40f4 <io_buf_init+0x34>)
    40c4:	480c      	ldr	r0, [pc, #48]	@ (40f8 <io_buf_init+0x38>)
    40c6:	6d21      	ldr	r1, [r4, #80]	@ 0x50
    40c8:	6800      	ldr	r0, [r0, #0]
    40ca:	3110      	adds	r1, #16
    40cc:	2301      	movs	r3, #1
    40ce:	2200      	movs	r2, #0
    40d0:	f7ff fe72 	bl	3db8 <sark_xalloc>
    40d4:	2800      	cmp	r0, #0
    40d6:	d102      	bne.n	40de <io_buf_init+0x1e>
    40d8:	300e      	adds	r0, #14
    40da:	f7fc e828 	blx	12c <rt_error>
    40de:	69e3      	ldr	r3, [r4, #28]
    40e0:	4a06      	ldr	r2, [pc, #24]	@ (40fc <io_buf_init+0x3c>)
    40e2:	6043      	str	r3, [r0, #4]
    40e4:	8b23      	ldrh	r3, [r4, #24]
    40e6:	6083      	str	r3, [r0, #8]
    40e8:	2300      	movs	r3, #0
    40ea:	6003      	str	r3, [r0, #0]
    40ec:	6013      	str	r3, [r2, #0]
    40ee:	60c3      	str	r3, [r0, #12]
    40f0:	bd10      	pop	{r4, pc}
    40f2:	46c0      	nop			@ (mov r8, r8)
    40f4:	e5007f00 	.word	0xe5007f00
    40f8:	e5007fd0 	.word	0xe5007fd0
    40fc:	00400a2c 	.word	0x00400a2c

00004100 <io_put_char>:
    4100:	b570      	push	{r4, r5, r6, lr}
    4102:	000c      	movs	r4, r1
    4104:	2803      	cmp	r0, #3
    4106:	d907      	bls.n	4118 <io_put_char+0x18>
    4108:	4931      	ldr	r1, [pc, #196]	@ (41d0 <io_put_char+0xd0>)
    410a:	680a      	ldr	r2, [r1, #0]
    410c:	1c53      	adds	r3, r2, #1
    410e:	5484      	strb	r4, [r0, r2]
    4110:	2200      	movs	r2, #0
    4112:	600b      	str	r3, [r1, #0]
    4114:	54c2      	strb	r2, [r0, r3]
    4116:	bd70      	pop	{r4, r5, r6, pc}
    4118:	2800      	cmp	r0, #0
    411a:	d134      	bne.n	4186 <io_put_char+0x86>
    411c:	4d2d      	ldr	r5, [pc, #180]	@ (41d4 <io_put_char+0xd4>)
    411e:	682b      	ldr	r3, [r5, #0]
    4120:	2b00      	cmp	r3, #0
    4122:	d11a      	bne.n	415a <io_put_char+0x5a>
    4124:	2192      	movs	r1, #146	@ 0x92
    4126:	0049      	lsls	r1, r1, #1
    4128:	3001      	adds	r0, #1
    412a:	f7ff febb 	bl	3ea4 <sark_alloc>
    412e:	2800      	cmp	r0, #0
    4130:	d102      	bne.n	4138 <io_put_char+0x38>
    4132:	300e      	adds	r0, #14
    4134:	f7fb effa 	blx	12c <rt_error>
    4138:	2307      	movs	r3, #7
    413a:	8103      	strh	r3, [r0, #8]
    413c:	33f8      	adds	r3, #248	@ 0xf8
    413e:	7283      	strb	r3, [r0, #10]
    4140:	4b25      	ldr	r3, [pc, #148]	@ (41d8 <io_put_char+0xd8>)
    4142:	889a      	ldrh	r2, [r3, #4]
    4144:	8182      	strh	r2, [r0, #12]
    4146:	4a25      	ldr	r2, [pc, #148]	@ (41dc <io_put_char+0xdc>)
    4148:	6812      	ldr	r2, [r2, #0]
    414a:	72c2      	strb	r2, [r0, #11]
    414c:	881b      	ldrh	r3, [r3, #0]
    414e:	81c3      	strh	r3, [r0, #14]
    4150:	2340      	movs	r3, #64	@ 0x40
    4152:	8203      	strh	r3, [r0, #16]
    4154:	3b34      	subs	r3, #52	@ 0x34
    4156:	8083      	strh	r3, [r0, #4]
    4158:	6028      	str	r0, [r5, #0]
    415a:	6828      	ldr	r0, [r5, #0]
    415c:	8883      	ldrh	r3, [r0, #4]
    415e:	1c5a      	adds	r2, r3, #1
    4160:	18c3      	adds	r3, r0, r3
    4162:	8082      	strh	r2, [r0, #4]
    4164:	721c      	strb	r4, [r3, #8]
    4166:	2c0a      	cmp	r4, #10
    4168:	d006      	beq.n	4178 <io_put_char+0x78>
    416a:	2c00      	cmp	r4, #0
    416c:	d004      	beq.n	4178 <io_put_char+0x78>
    416e:	8882      	ldrh	r2, [r0, #4]
    4170:	2386      	movs	r3, #134	@ 0x86
    4172:	005b      	lsls	r3, r3, #1
    4174:	429a      	cmp	r2, r3
    4176:	d1ce      	bne.n	4116 <io_put_char+0x16>
    4178:	210a      	movs	r1, #10
    417a:	f7ff fb31 	bl	37e0 <sark_msg_send>
    417e:	682b      	ldr	r3, [r5, #0]
    4180:	220c      	movs	r2, #12
    4182:	809a      	strh	r2, [r3, #4]
    4184:	e7c7      	b.n	4116 <io_put_char+0x16>
    4186:	2802      	cmp	r0, #2
    4188:	d1c5      	bne.n	4116 <io_put_char+0x16>
    418a:	4d15      	ldr	r5, [pc, #84]	@ (41e0 <io_put_char+0xe0>)
    418c:	682b      	ldr	r3, [r5, #0]
    418e:	2b00      	cmp	r3, #0
    4190:	d105      	bne.n	419e <io_put_char+0x9e>
    4192:	4b12      	ldr	r3, [pc, #72]	@ (41dc <io_put_char+0xdc>)
    4194:	69de      	ldr	r6, [r3, #28]
    4196:	f7ff ff93 	bl	40c0 <io_buf_init>
    419a:	65b0      	str	r0, [r6, #88]	@ 0x58
    419c:	6028      	str	r0, [r5, #0]
    419e:	4911      	ldr	r1, [pc, #68]	@ (41e4 <io_put_char+0xe4>)
    41a0:	682e      	ldr	r6, [r5, #0]
    41a2:	680a      	ldr	r2, [r1, #0]
    41a4:	1c53      	adds	r3, r2, #1
    41a6:	18b2      	adds	r2, r6, r2
    41a8:	7414      	strb	r4, [r2, #16]
    41aa:	4a0b      	ldr	r2, [pc, #44]	@ (41d8 <io_put_char+0xd8>)
    41ac:	600b      	str	r3, [r1, #0]
    41ae:	6d12      	ldr	r2, [r2, #80]	@ 0x50
    41b0:	4293      	cmp	r3, r2
    41b2:	d107      	bne.n	41c4 <io_put_char+0xc4>
    41b4:	60f3      	str	r3, [r6, #12]
    41b6:	f7ff ff83 	bl	40c0 <io_buf_init>
    41ba:	682b      	ldr	r3, [r5, #0]
    41bc:	6030      	str	r0, [r6, #0]
    41be:	681b      	ldr	r3, [r3, #0]
    41c0:	602b      	str	r3, [r5, #0]
    41c2:	e7a8      	b.n	4116 <io_put_char+0x16>
    41c4:	2c0a      	cmp	r4, #10
    41c6:	d001      	beq.n	41cc <io_put_char+0xcc>
    41c8:	2c00      	cmp	r4, #0
    41ca:	d1a4      	bne.n	4116 <io_put_char+0x16>
    41cc:	60f3      	str	r3, [r6, #12]
    41ce:	e7a2      	b.n	4116 <io_put_char+0x16>
    41d0:	00400a30 	.word	0x00400a30
    41d4:	00400a28 	.word	0x00400a28
    41d8:	e5007f00 	.word	0xe5007f00
    41dc:	00400934 	.word	0x00400934
    41e0:	00400a24 	.word	0x00400a24
    41e4:	00400a2c 	.word	0x00400a2c

000041e8 <io_put_fixed>:
    41e8:	b5f0      	push	{r4, r5, r6, r7, lr}
    41ea:	b08d      	sub	sp, #52	@ 0x34
    41ec:	0015      	movs	r5, r2
    41ee:	001f      	movs	r7, r3
    41f0:	9000      	str	r0, [sp, #0]
    41f2:	9101      	str	r1, [sp, #4]
    41f4:	2b0c      	cmp	r3, #12
    41f6:	d900      	bls.n	41fa <io_put_fixed+0x12>
    41f8:	270c      	movs	r7, #12
    41fa:	aa05      	add	r2, sp, #20
    41fc:	19d0      	adds	r0, r2, r7
    41fe:	260a      	movs	r6, #10
    4200:	9a01      	ldr	r2, [sp, #4]
    4202:	2400      	movs	r4, #0
    4204:	46b4      	mov	ip, r6
    4206:	0412      	lsls	r2, r2, #16
    4208:	0c12      	lsrs	r2, r2, #16
    420a:	0016      	movs	r6, r2
    420c:	4662      	mov	r2, ip
    420e:	4372      	muls	r2, r6
    4210:	3801      	subs	r0, #1
    4212:	0c16      	lsrs	r6, r2, #16
    4214:	42a7      	cmp	r7, r4
    4216:	d108      	bne.n	422a <io_put_fixed+0x42>
    4218:	0020      	movs	r0, r4
    421a:	af05      	add	r7, sp, #20
    421c:	2200      	movs	r2, #0
    421e:	2e04      	cmp	r6, #4
    4220:	d913      	bls.n	424a <io_put_fixed+0x62>
    4222:	42a2      	cmp	r2, r4
    4224:	d105      	bne.n	4232 <io_put_fixed+0x4a>
    4226:	2201      	movs	r2, #1
    4228:	e010      	b.n	424c <io_put_fixed+0x64>
    422a:	3630      	adds	r6, #48	@ 0x30
    422c:	3401      	adds	r4, #1
    422e:	7006      	strb	r6, [r0, #0]
    4230:	e7e9      	b.n	4206 <io_put_fixed+0x1e>
    4232:	7839      	ldrb	r1, [r7, #0]
    4234:	2938      	cmp	r1, #56	@ 0x38
    4236:	d904      	bls.n	4242 <io_put_fixed+0x5a>
    4238:	2130      	movs	r1, #48	@ 0x30
    423a:	7039      	strb	r1, [r7, #0]
    423c:	3201      	adds	r2, #1
    423e:	3701      	adds	r7, #1
    4240:	e7ed      	b.n	421e <io_put_fixed+0x36>
    4242:	000e      	movs	r6, r1
    4244:	3601      	adds	r6, #1
    4246:	af05      	add	r7, sp, #20
    4248:	54be      	strb	r6, [r7, r2]
    424a:	2200      	movs	r2, #0
    424c:	ae05      	add	r6, sp, #20
    424e:	2b00      	cmp	r3, #0
    4250:	d002      	beq.n	4258 <io_put_fixed+0x70>
    4252:	232e      	movs	r3, #46	@ 0x2e
    4254:	1c60      	adds	r0, r4, #1
    4256:	5533      	strb	r3, [r6, r4]
    4258:	9b01      	ldr	r3, [sp, #4]
    425a:	0004      	movs	r4, r0
    425c:	0c19      	lsrs	r1, r3, #16
    425e:	1851      	adds	r1, r2, r1
    4260:	a803      	add	r0, sp, #12
    4262:	f7fc e82e 	blx	2c0 <sark_div10>
    4266:	9b04      	ldr	r3, [sp, #16]
    4268:	9903      	ldr	r1, [sp, #12]
    426a:	0022      	movs	r2, r4
    426c:	3330      	adds	r3, #48	@ 0x30
    426e:	3401      	adds	r4, #1
    4270:	54b3      	strb	r3, [r6, r2]
    4272:	2900      	cmp	r1, #0
    4274:	d1f4      	bne.n	4260 <io_put_fixed+0x78>
    4276:	9b13      	ldr	r3, [sp, #76]	@ 0x4c
    4278:	2b00      	cmp	r3, #0
    427a:	d002      	beq.n	4282 <io_put_fixed+0x9a>
    427c:	232d      	movs	r3, #45	@ 0x2d
    427e:	5533      	strb	r3, [r6, r4]
    4280:	1c94      	adds	r4, r2, #2
    4282:	1c63      	adds	r3, r4, #1
    4284:	429d      	cmp	r5, r3
    4286:	d808      	bhi.n	429a <io_put_fixed+0xb2>
    4288:	3c01      	subs	r4, #1
    428a:	5d31      	ldrb	r1, [r6, r4]
    428c:	9800      	ldr	r0, [sp, #0]
    428e:	f7ff ff37 	bl	4100 <io_put_char>
    4292:	2c00      	cmp	r4, #0
    4294:	d1f8      	bne.n	4288 <io_put_fixed+0xa0>
    4296:	b00d      	add	sp, #52	@ 0x34
    4298:	bdf0      	pop	{r4, r5, r6, r7, pc}
    429a:	9912      	ldr	r1, [sp, #72]	@ 0x48
    429c:	9800      	ldr	r0, [sp, #0]
    429e:	f7ff ff2f 	bl	4100 <io_put_char>
    42a2:	3d01      	subs	r5, #1
    42a4:	e7ed      	b.n	4282 <io_put_fixed+0x9a>
	...

000042a8 <io_printf>:
    42a8:	b40e      	push	{r1, r2, r3}
    42aa:	b5f0      	push	{r4, r5, r6, r7, lr}
    42ac:	0007      	movs	r7, r0
    42ae:	b08c      	sub	sp, #48	@ 0x30
    42b0:	2803      	cmp	r0, #3
    42b2:	d04e      	beq.n	4352 <io_printf+0xaa>
    42b4:	d903      	bls.n	42be <io_printf+0x16>
    42b6:	4a9d      	ldr	r2, [pc, #628]	@ (452c <io_printf+0x284>)
    42b8:	2300      	movs	r3, #0
    42ba:	7003      	strb	r3, [r0, #0]
    42bc:	6013      	str	r3, [r2, #0]
    42be:	ab12      	add	r3, sp, #72	@ 0x48
    42c0:	9305      	str	r3, [sp, #20]
    42c2:	9b11      	ldr	r3, [sp, #68]	@ 0x44
    42c4:	7819      	ldrb	r1, [r3, #0]
    42c6:	2900      	cmp	r1, #0
    42c8:	d043      	beq.n	4352 <io_printf+0xaa>
    42ca:	2925      	cmp	r1, #37	@ 0x25
    42cc:	d005      	beq.n	42da <io_printf+0x32>
    42ce:	3301      	adds	r3, #1
    42d0:	9311      	str	r3, [sp, #68]	@ 0x44
    42d2:	0038      	movs	r0, r7
    42d4:	f7ff ff14 	bl	4100 <io_put_char>
    42d8:	e7f3      	b.n	42c2 <io_printf+0x1a>
    42da:	9b11      	ldr	r3, [sp, #68]	@ 0x44
    42dc:	7859      	ldrb	r1, [r3, #1]
    42de:	1c9a      	adds	r2, r3, #2
    42e0:	2900      	cmp	r1, #0
    42e2:	d036      	beq.n	4352 <io_printf+0xaa>
    42e4:	9103      	str	r1, [sp, #12]
    42e6:	2930      	cmp	r1, #48	@ 0x30
    42e8:	d001      	beq.n	42ee <io_printf+0x46>
    42ea:	2320      	movs	r3, #32
    42ec:	9303      	str	r3, [sp, #12]
    42ee:	2400      	movs	r4, #0
    42f0:	000b      	movs	r3, r1
    42f2:	3b30      	subs	r3, #48	@ 0x30
    42f4:	0010      	movs	r0, r2
    42f6:	3201      	adds	r2, #1
    42f8:	2b09      	cmp	r3, #9
    42fa:	d922      	bls.n	4342 <io_printf+0x9a>
    42fc:	2306      	movs	r3, #6
    42fe:	9011      	str	r0, [sp, #68]	@ 0x44
    4300:	292e      	cmp	r1, #46	@ 0x2e
    4302:	d109      	bne.n	4318 <io_printf+0x70>
    4304:	7801      	ldrb	r1, [r0, #0]
    4306:	2300      	movs	r3, #0
    4308:	200a      	movs	r0, #10
    430a:	000d      	movs	r5, r1
    430c:	3d30      	subs	r5, #48	@ 0x30
    430e:	9211      	str	r2, [sp, #68]	@ 0x44
    4310:	2d09      	cmp	r5, #9
    4312:	d923      	bls.n	435c <io_printf+0xb4>
    4314:	2900      	cmp	r1, #0
    4316:	d01c      	beq.n	4352 <io_printf+0xaa>
    4318:	297a      	cmp	r1, #122	@ 0x7a
    431a:	d8da      	bhi.n	42d2 <io_printf+0x2a>
    431c:	2962      	cmp	r1, #98	@ 0x62
    431e:	d823      	bhi.n	4368 <io_printf+0xc0>
    4320:	294b      	cmp	r1, #75	@ 0x4b
    4322:	d001      	beq.n	4328 <io_printf+0x80>
    4324:	2952      	cmp	r1, #82	@ 0x52
    4326:	d1d4      	bne.n	42d2 <io_printf+0x2a>
    4328:	9905      	ldr	r1, [sp, #20]
    432a:	1d0a      	adds	r2, r1, #4
    432c:	9205      	str	r2, [sp, #20]
    432e:	2200      	movs	r2, #0
    4330:	9201      	str	r2, [sp, #4]
    4332:	9a03      	ldr	r2, [sp, #12]
    4334:	9200      	str	r2, [sp, #0]
    4336:	6809      	ldr	r1, [r1, #0]
    4338:	0022      	movs	r2, r4
    433a:	0038      	movs	r0, r7
    433c:	f7ff ff54 	bl	41e8 <io_put_fixed>
    4340:	e7bf      	b.n	42c2 <io_printf+0x1a>
    4342:	230a      	movs	r3, #10
    4344:	4363      	muls	r3, r4
    4346:	185c      	adds	r4, r3, r1
    4348:	1e53      	subs	r3, r2, #1
    434a:	7819      	ldrb	r1, [r3, #0]
    434c:	3c30      	subs	r4, #48	@ 0x30
    434e:	2900      	cmp	r1, #0
    4350:	d1ce      	bne.n	42f0 <io_printf+0x48>
    4352:	b00c      	add	sp, #48	@ 0x30
    4354:	bcf0      	pop	{r4, r5, r6, r7}
    4356:	bc08      	pop	{r3}
    4358:	b003      	add	sp, #12
    435a:	4718      	bx	r3
    435c:	4343      	muls	r3, r0
    435e:	185b      	adds	r3, r3, r1
    4360:	3b30      	subs	r3, #48	@ 0x30
    4362:	7811      	ldrb	r1, [r2, #0]
    4364:	3201      	adds	r2, #1
    4366:	e7d0      	b.n	430a <io_printf+0x62>
    4368:	0008      	movs	r0, r1
    436a:	3863      	subs	r0, #99	@ 0x63
    436c:	2817      	cmp	r0, #23
    436e:	d8b0      	bhi.n	42d2 <io_printf+0x2a>
    4370:	f000 ff80 	bl	5274 <__gnu_thumb1_case_shi>
    4374:	00380018 	.word	0x00380018
    4378:	ffdaffaf 	.word	0xffdaffaf
    437c:	ffafffaf 	.word	0xffafffaf
    4380:	ffafffaf 	.word	0xffafffaf
    4384:	ffaf0091 	.word	0xffaf0091
    4388:	ffafffaf 	.word	0xffafffaf
    438c:	ffafffaf 	.word	0xffafffaf
    4390:	0091ffaf 	.word	0x0091ffaf
    4394:	ffaf001d 	.word	0xffaf001d
    4398:	ffaf006b 	.word	0xffaf006b
    439c:	009fffaf 	.word	0x009fffaf
    43a0:	00c7ffaf 	.word	0x00c7ffaf
    43a4:	9b05      	ldr	r3, [sp, #20]
    43a6:	1d1a      	adds	r2, r3, #4
    43a8:	6819      	ldr	r1, [r3, #0]
    43aa:	9205      	str	r2, [sp, #20]
    43ac:	e791      	b.n	42d2 <io_printf+0x2a>
    43ae:	9b05      	ldr	r3, [sp, #20]
    43b0:	2600      	movs	r6, #0
    43b2:	681d      	ldr	r5, [r3, #0]
    43b4:	1d1a      	adds	r2, r3, #4
    43b6:	9205      	str	r2, [sp, #20]
    43b8:	5dab      	ldrb	r3, [r5, r6]
    43ba:	2b00      	cmp	r3, #0
    43bc:	d10a      	bne.n	43d4 <io_printf+0x12c>
    43be:	42a6      	cmp	r6, r4
    43c0:	db0a      	blt.n	43d8 <io_printf+0x130>
    43c2:	7829      	ldrb	r1, [r5, #0]
    43c4:	2900      	cmp	r1, #0
    43c6:	d100      	bne.n	43ca <io_printf+0x122>
    43c8:	e77b      	b.n	42c2 <io_printf+0x1a>
    43ca:	0038      	movs	r0, r7
    43cc:	3501      	adds	r5, #1
    43ce:	f7ff fe97 	bl	4100 <io_put_char>
    43d2:	e7f6      	b.n	43c2 <io_printf+0x11a>
    43d4:	3601      	adds	r6, #1
    43d6:	e7ef      	b.n	43b8 <io_printf+0x110>
    43d8:	2120      	movs	r1, #32
    43da:	0038      	movs	r0, r7
    43dc:	f7ff fe90 	bl	4100 <io_put_char>
    43e0:	3c01      	subs	r4, #1
    43e2:	e7ec      	b.n	43be <io_printf+0x116>
    43e4:	9b05      	ldr	r3, [sp, #20]
    43e6:	6819      	ldr	r1, [r3, #0]
    43e8:	1d1a      	adds	r2, r3, #4
    43ea:	2300      	movs	r3, #0
    43ec:	9205      	str	r2, [sp, #20]
    43ee:	9303      	str	r3, [sp, #12]
    43f0:	4299      	cmp	r1, r3
    43f2:	da02      	bge.n	43fa <io_printf+0x152>
    43f4:	332d      	adds	r3, #45	@ 0x2d
    43f6:	4249      	negs	r1, r1
    43f8:	9303      	str	r3, [sp, #12]
    43fa:	2500      	movs	r5, #0
    43fc:	a806      	add	r0, sp, #24
    43fe:	f7fb ef60 	blx	2c0 <sark_div10>
    4402:	9a07      	ldr	r2, [sp, #28]
    4404:	9906      	ldr	r1, [sp, #24]
    4406:	ae08      	add	r6, sp, #32
    4408:	3230      	adds	r2, #48	@ 0x30
    440a:	55aa      	strb	r2, [r5, r6]
    440c:	3501      	adds	r5, #1
    440e:	2900      	cmp	r1, #0
    4410:	d1f4      	bne.n	43fc <io_printf+0x154>
    4412:	3d01      	subs	r5, #1
    4414:	5d73      	ldrb	r3, [r6, r5]
    4416:	2b30      	cmp	r3, #48	@ 0x30
    4418:	d101      	bne.n	441e <io_printf+0x176>
    441a:	2d00      	cmp	r5, #0
    441c:	d1f9      	bne.n	4412 <io_printf+0x16a>
    441e:	9b03      	ldr	r3, [sp, #12]
    4420:	2b00      	cmp	r3, #0
    4422:	d002      	beq.n	442a <io_printf+0x182>
    4424:	3501      	adds	r5, #1
    4426:	232d      	movs	r3, #45	@ 0x2d
    4428:	5573      	strb	r3, [r6, r5]
    442a:	1c6b      	adds	r3, r5, #1
    442c:	42a3      	cmp	r3, r4
    442e:	d306      	bcc.n	443e <io_printf+0x196>
    4430:	5d71      	ldrb	r1, [r6, r5]
    4432:	0038      	movs	r0, r7
    4434:	f7ff fe64 	bl	4100 <io_put_char>
    4438:	3d01      	subs	r5, #1
    443a:	d2f9      	bcs.n	4430 <io_printf+0x188>
    443c:	e741      	b.n	42c2 <io_printf+0x1a>
    443e:	2120      	movs	r1, #32
    4440:	0038      	movs	r0, r7
    4442:	f7ff fe5d 	bl	4100 <io_put_char>
    4446:	3c01      	subs	r4, #1
    4448:	e7ef      	b.n	442a <io_printf+0x182>
    444a:	9b05      	ldr	r3, [sp, #20]
    444c:	2500      	movs	r5, #0
    444e:	6819      	ldr	r1, [r3, #0]
    4450:	1d1a      	adds	r2, r3, #4
    4452:	9205      	str	r2, [sp, #20]
    4454:	a806      	add	r0, sp, #24
    4456:	f7fb ef34 	blx	2c0 <sark_div10>
    445a:	9a07      	ldr	r2, [sp, #28]
    445c:	9906      	ldr	r1, [sp, #24]
    445e:	ae08      	add	r6, sp, #32
    4460:	3230      	adds	r2, #48	@ 0x30
    4462:	55aa      	strb	r2, [r5, r6]
    4464:	3501      	adds	r5, #1
    4466:	2900      	cmp	r1, #0
    4468:	d1f4      	bne.n	4454 <io_printf+0x1ac>
    446a:	3d01      	subs	r5, #1
    446c:	5d73      	ldrb	r3, [r6, r5]
    446e:	2b30      	cmp	r3, #48	@ 0x30
    4470:	d101      	bne.n	4476 <io_printf+0x1ce>
    4472:	2d00      	cmp	r5, #0
    4474:	d1f9      	bne.n	446a <io_printf+0x1c2>
    4476:	1c6b      	adds	r3, r5, #1
    4478:	42a3      	cmp	r3, r4
    447a:	d306      	bcc.n	448a <io_printf+0x1e2>
    447c:	5d71      	ldrb	r1, [r6, r5]
    447e:	0038      	movs	r0, r7
    4480:	f7ff fe3e 	bl	4100 <io_put_char>
    4484:	3d01      	subs	r5, #1
    4486:	d2f9      	bcs.n	447c <io_printf+0x1d4>
    4488:	e71b      	b.n	42c2 <io_printf+0x1a>
    448a:	9903      	ldr	r1, [sp, #12]
    448c:	0038      	movs	r0, r7
    448e:	f7ff fe37 	bl	4100 <io_put_char>
    4492:	3c01      	subs	r4, #1
    4494:	e7ef      	b.n	4476 <io_printf+0x1ce>
    4496:	9a05      	ldr	r2, [sp, #20]
    4498:	1d11      	adds	r1, r2, #4
    449a:	6812      	ldr	r2, [r2, #0]
    449c:	9105      	str	r1, [sp, #20]
    449e:	17d0      	asrs	r0, r2, #31
    44a0:	1811      	adds	r1, r2, r0
    44a2:	0fd2      	lsrs	r2, r2, #31
    44a4:	4041      	eors	r1, r0
    44a6:	9201      	str	r2, [sp, #4]
    44a8:	9a03      	ldr	r2, [sp, #12]
    44aa:	9200      	str	r2, [sp, #0]
    44ac:	0049      	lsls	r1, r1, #1
    44ae:	0022      	movs	r2, r4
    44b0:	e743      	b.n	433a <io_printf+0x92>
    44b2:	9b05      	ldr	r3, [sp, #20]
    44b4:	a902      	add	r1, sp, #8
    44b6:	1d1a      	adds	r2, r3, #4
    44b8:	9205      	str	r2, [sp, #20]
    44ba:	681b      	ldr	r3, [r3, #0]
    44bc:	2217      	movs	r2, #23
    44be:	481c      	ldr	r0, [pc, #112]	@ (4530 <io_printf+0x288>)
    44c0:	2500      	movs	r5, #0
    44c2:	1852      	adds	r2, r2, r1
    44c4:	260f      	movs	r6, #15
    44c6:	0019      	movs	r1, r3
    44c8:	4031      	ands	r1, r6
    44ca:	5c41      	ldrb	r1, [r0, r1]
    44cc:	3501      	adds	r5, #1
    44ce:	091b      	lsrs	r3, r3, #4
    44d0:	5551      	strb	r1, [r2, r5]
    44d2:	d1f8      	bne.n	44c6 <io_printf+0x21e>
    44d4:	ae08      	add	r6, sp, #32
    44d6:	3d01      	subs	r5, #1
    44d8:	5dab      	ldrb	r3, [r5, r6]
    44da:	2b30      	cmp	r3, #48	@ 0x30
    44dc:	d101      	bne.n	44e2 <io_printf+0x23a>
    44de:	2d00      	cmp	r5, #0
    44e0:	d1f9      	bne.n	44d6 <io_printf+0x22e>
    44e2:	1c6b      	adds	r3, r5, #1
    44e4:	42a3      	cmp	r3, r4
    44e6:	d306      	bcc.n	44f6 <io_printf+0x24e>
    44e8:	5d71      	ldrb	r1, [r6, r5]
    44ea:	0038      	movs	r0, r7
    44ec:	f7ff fe08 	bl	4100 <io_put_char>
    44f0:	3d01      	subs	r5, #1
    44f2:	d2f9      	bcs.n	44e8 <io_printf+0x240>
    44f4:	e6e5      	b.n	42c2 <io_printf+0x1a>
    44f6:	9903      	ldr	r1, [sp, #12]
    44f8:	0038      	movs	r0, r7
    44fa:	f7ff fe01 	bl	4100 <io_put_char>
    44fe:	3c01      	subs	r4, #1
    4500:	e7ef      	b.n	44e2 <io_printf+0x23a>
    4502:	9b05      	ldr	r3, [sp, #20]
    4504:	3c01      	subs	r4, #1
    4506:	681d      	ldr	r5, [r3, #0]
    4508:	1d1a      	adds	r2, r3, #4
    450a:	260f      	movs	r6, #15
    450c:	9205      	str	r2, [sp, #20]
    450e:	2c00      	cmp	r4, #0
    4510:	da00      	bge.n	4514 <io_printf+0x26c>
    4512:	e6d6      	b.n	42c2 <io_printf+0x1a>
    4514:	00a3      	lsls	r3, r4, #2
    4516:	0029      	movs	r1, r5
    4518:	40d9      	lsrs	r1, r3
    451a:	4a05      	ldr	r2, [pc, #20]	@ (4530 <io_printf+0x288>)
    451c:	000b      	movs	r3, r1
    451e:	4033      	ands	r3, r6
    4520:	5cd1      	ldrb	r1, [r2, r3]
    4522:	0038      	movs	r0, r7
    4524:	f7ff fdec 	bl	4100 <io_put_char>
    4528:	3c01      	subs	r4, #1
    452a:	e7f0      	b.n	450e <io_printf+0x266>
    452c:	00400a30 	.word	0x00400a30
    4530:	00005647 	.word	0x00005647

00004534 <__aeabi_idiv0>:
    4534:	e3a0000b 	mov	r0, #11
    4538:	e92d4010 	push	{r4, lr}
    453c:	ebffeefa 	bl	12c <rt_error>

00004540 <configure_timer1>:
    4540:	b570      	push	{r4, r5, r6, lr}
    4542:	4c18      	ldr	r4, [pc, #96]	@ (45a4 <configure_timer1+0x64>)
    4544:	4a18      	ldr	r2, [pc, #96]	@ (45a8 <configure_timer1+0x68>)
    4546:	6ba3      	ldr	r3, [r4, #56]	@ 0x38
    4548:	4d18      	ldr	r5, [pc, #96]	@ (45ac <configure_timer1+0x6c>)
    454a:	4343      	muls	r3, r0
    454c:	2601      	movs	r6, #1
    454e:	6013      	str	r3, [r2, #0]
    4550:	602e      	str	r6, [r5, #0]
    4552:	2b00      	cmp	r3, #0
    4554:	da04      	bge.n	4560 <configure_timer1+0x20>
    4556:	425b      	negs	r3, r3
    4558:	6013      	str	r3, [r2, #0]
    455a:	2301      	movs	r3, #1
    455c:	425b      	negs	r3, r3
    455e:	602b      	str	r3, [r5, #0]
    4560:	6812      	ldr	r2, [r2, #0]
    4562:	4e13      	ldr	r6, [pc, #76]	@ (45b0 <configure_timer1+0x70>)
    4564:	0c53      	lsrs	r3, r2, #17
    4566:	045b      	lsls	r3, r3, #17
    4568:	1ad2      	subs	r2, r2, r3
    456a:	6032      	str	r2, [r6, #0]
    456c:	145a      	asrs	r2, r3, #17
    456e:	682b      	ldr	r3, [r5, #0]
    4570:	4d10      	ldr	r5, [pc, #64]	@ (45b4 <configure_timer1+0x74>)
    4572:	4353      	muls	r3, r2
    4574:	4a10      	ldr	r2, [pc, #64]	@ (45b8 <configure_timer1+0x78>)
    4576:	6015      	str	r5, [r2, #0]
    4578:	8ca4      	ldrh	r4, [r4, #36]	@ 0x24
    457a:	4a10      	ldr	r2, [pc, #64]	@ (45bc <configure_timer1+0x7c>)
    457c:	4360      	muls	r0, r4
    457e:	6010      	str	r0, [r2, #0]
    4580:	480f      	ldr	r0, [pc, #60]	@ (45c0 <configure_timer1+0x80>)
    4582:	2500      	movs	r5, #0
    4584:	6005      	str	r5, [r0, #0]
    4586:	480f      	ldr	r0, [pc, #60]	@ (45c4 <configure_timer1+0x84>)
    4588:	3501      	adds	r5, #1
    458a:	4361      	muls	r1, r4
    458c:	6005      	str	r5, [r0, #0]
    458e:	6810      	ldr	r0, [r2, #0]
    4590:	1809      	adds	r1, r1, r0
    4592:	2084      	movs	r0, #132	@ 0x84
    4594:	18c9      	adds	r1, r1, r3
    4596:	0580      	lsls	r0, r0, #22
    4598:	6001      	str	r1, [r0, #0]
    459a:	6812      	ldr	r2, [r2, #0]
    459c:	189b      	adds	r3, r3, r2
    459e:	4a0a      	ldr	r2, [pc, #40]	@ (45c8 <configure_timer1+0x88>)
    45a0:	6013      	str	r3, [r2, #0]
    45a2:	bd70      	pop	{r4, r5, r6, pc}
    45a4:	e5007f00 	.word	0xe5007f00
    45a8:	0040103c 	.word	0x0040103c
    45ac:	00401038 	.word	0x00401038
    45b0:	00401034 	.word	0x00401034
    45b4:	001e8480 	.word	0x001e8480
    45b8:	00401030 	.word	0x00401030
    45bc:	00401040 	.word	0x00401040
    45c0:	21000008 	.word	0x21000008
    45c4:	2100000c 	.word	0x2100000c
    45c8:	21000018 	.word	0x21000018

000045cc <resume>:
    45cc:	4a0d      	ldr	r2, [pc, #52]	@ (4604 <resume+0x38>)
    45ce:	b510      	push	{r4, lr}
    45d0:	6813      	ldr	r3, [r2, #0]
    45d2:	2b01      	cmp	r3, #1
    45d4:	d105      	bne.n	45e2 <resume+0x16>
    45d6:	2100      	movs	r1, #0
    45d8:	6011      	str	r1, [r2, #0]
    45da:	4a0b      	ldr	r2, [pc, #44]	@ (4608 <resume+0x3c>)
    45dc:	7e91      	ldrb	r1, [r2, #26]
    45de:	404b      	eors	r3, r1
    45e0:	7693      	strb	r3, [r2, #26]
    45e2:	4b0a      	ldr	r3, [pc, #40]	@ (460c <resume+0x40>)
    45e4:	2200      	movs	r2, #0
    45e6:	2007      	movs	r0, #7
    45e8:	601a      	str	r2, [r3, #0]
    45ea:	f7fe ffdd 	bl	35a8 <sark_cpu_state>
    45ee:	4b08      	ldr	r3, [pc, #32]	@ (4610 <resume+0x44>)
    45f0:	691b      	ldr	r3, [r3, #16]
    45f2:	2b00      	cmp	r3, #0
    45f4:	d002      	beq.n	45fc <resume+0x30>
    45f6:	4b07      	ldr	r3, [pc, #28]	@ (4614 <resume+0x48>)
    45f8:	2210      	movs	r2, #16
    45fa:	601a      	str	r2, [r3, #0]
    45fc:	4b06      	ldr	r3, [pc, #24]	@ (4618 <resume+0x4c>)
    45fe:	22e2      	movs	r2, #226	@ 0xe2
    4600:	601a      	str	r2, [r3, #0]
    4602:	bd10      	pop	{r4, pc}
    4604:	0040104c 	.word	0x0040104c
    4608:	00400970 	.word	0x00400970
    460c:	00401050 	.word	0x00401050
    4610:	00400a80 	.word	0x00400a80
    4614:	1f000010 	.word	0x1f000010
    4618:	21000008 	.word	0x21000008

0000461c <clean_up>:
    461c:	b510      	push	{r4, lr}
    461e:	f7fb edcc 	blx	1b8 <cpu_int_disable>
    4622:	4b10      	ldr	r3, [pc, #64]	@ (4664 <clean_up+0x48>)
    4624:	681a      	ldr	r2, [r3, #0]
    4626:	2320      	movs	r3, #32
    4628:	61da      	str	r2, [r3, #28]
    462a:	4b0f      	ldr	r3, [pc, #60]	@ (4668 <clean_up+0x4c>)
    462c:	681a      	ldr	r2, [r3, #0]
    462e:	4b0f      	ldr	r3, [pc, #60]	@ (466c <clean_up+0x50>)
    4630:	601a      	str	r2, [r3, #0]
    4632:	4b0f      	ldr	r3, [pc, #60]	@ (4670 <clean_up+0x54>)
    4634:	681a      	ldr	r2, [r3, #0]
    4636:	4b0f      	ldr	r3, [pc, #60]	@ (4674 <clean_up+0x58>)
    4638:	601a      	str	r2, [r3, #0]
    463a:	2359      	movs	r3, #89	@ 0x59
    463c:	781b      	ldrb	r3, [r3, #0]
    463e:	4a0e      	ldr	r2, [pc, #56]	@ (4678 <clean_up+0x5c>)
    4640:	009b      	lsls	r3, r3, #2
    4642:	189b      	adds	r3, r3, r2
    4644:	2232      	movs	r2, #50	@ 0x32
    4646:	601a      	str	r2, [r3, #0]
    4648:	4b0c      	ldr	r3, [pc, #48]	@ (467c <clean_up+0x60>)
    464a:	3a31      	subs	r2, #49	@ 0x31
    464c:	601a      	str	r2, [r3, #0]
    464e:	4b0c      	ldr	r3, [pc, #48]	@ (4680 <clean_up+0x64>)
    4650:	2200      	movs	r2, #0
    4652:	601a      	str	r2, [r3, #0]
    4654:	4b0b      	ldr	r3, [pc, #44]	@ (4684 <clean_up+0x68>)
    4656:	323f      	adds	r2, #63	@ 0x3f
    4658:	601a      	str	r2, [r3, #0]
    465a:	3a32      	subs	r2, #50	@ 0x32
    465c:	601a      	str	r2, [r3, #0]
    465e:	f7fb edb4 	blx	1c8 <cpu_int_restore>
    4662:	bd10      	pop	{r4, pc}
    4664:	00401028 	.word	0x00401028
    4668:	00401024 	.word	0x00401024
    466c:	1f00000c 	.word	0x1f00000c
    4670:	00401020 	.word	0x00401020
    4674:	1f000010 	.word	0x1f000010
    4678:	2f000200 	.word	0x2f000200
    467c:	2100000c 	.word	0x2100000c
    4680:	40000018 	.word	0x40000018
    4684:	40000010 	.word	0x40000010

00004688 <resume_wait>:
    4688:	4b06      	ldr	r3, [pc, #24]	@ (46a4 <resume_wait+0x1c>)
    468a:	2001      	movs	r0, #1
    468c:	681b      	ldr	r3, [r3, #0]
    468e:	4098      	lsls	r0, r3
    4690:	4b05      	ldr	r3, [pc, #20]	@ (46a8 <resume_wait+0x20>)
    4692:	7e9a      	ldrb	r2, [r3, #26]
    4694:	4b05      	ldr	r3, [pc, #20]	@ (46ac <resume_wait+0x24>)
    4696:	681b      	ldr	r3, [r3, #0]
    4698:	2a00      	cmp	r2, #0
    469a:	d001      	beq.n	46a0 <resume_wait+0x18>
    469c:	4398      	bics	r0, r3
    469e:	4770      	bx	lr
    46a0:	4018      	ands	r0, r3
    46a2:	e7fc      	b.n	469e <resume_wait+0x16>
    46a4:	00400934 	.word	0x00400934
    46a8:	00400970 	.word	0x00400970
    46ac:	e2000058 	.word	0xe2000058

000046b0 <start>:
    46b0:	b5f0      	push	{r4, r5, r6, r7, lr}
    46b2:	4fb6      	ldr	r7, [pc, #728]	@ (498c <start+0x2dc>)
    46b4:	b085      	sub	sp, #20
    46b6:	6039      	str	r1, [r7, #0]
    46b8:	683b      	ldr	r3, [r7, #0]
    46ba:	9001      	str	r0, [sp, #4]
    46bc:	200a      	movs	r0, #10
    46be:	2b00      	cmp	r3, #0
    46c0:	d100      	bne.n	46c4 <start+0x14>
    46c2:	2007      	movs	r0, #7
    46c4:	f7fe ff70 	bl	35a8 <sark_cpu_state>
    46c8:	2380      	movs	r3, #128	@ 0x80
    46ca:	059b      	lsls	r3, r3, #22
    46cc:	2400      	movs	r4, #0
    46ce:	601c      	str	r4, [r3, #0]
    46d0:	4baf      	ldr	r3, [pc, #700]	@ (4990 <start+0x2e0>)
    46d2:	223f      	movs	r2, #63	@ 0x3f
    46d4:	601a      	str	r2, [r3, #0]
    46d6:	3a32      	subs	r2, #50	@ 0x32
    46d8:	601a      	str	r2, [r3, #0]
    46da:	4bae      	ldr	r3, [pc, #696]	@ (4994 <start+0x2e4>)
    46dc:	22c0      	movs	r2, #192	@ 0xc0
    46de:	0112      	lsls	r2, r2, #4
    46e0:	601a      	str	r2, [r3, #0]
    46e2:	4bad      	ldr	r3, [pc, #692]	@ (4998 <start+0x2e8>)
    46e4:	2203      	movs	r2, #3
    46e6:	601a      	str	r2, [r3, #0]
    46e8:	4dac      	ldr	r5, [pc, #688]	@ (499c <start+0x2ec>)
    46ea:	4bad      	ldr	r3, [pc, #692]	@ (49a0 <start+0x2f0>)
    46ec:	6828      	ldr	r0, [r5, #0]
    46ee:	6819      	ldr	r1, [r3, #0]
    46f0:	f7ff ff26 	bl	4540 <configure_timer1>
    46f4:	683b      	ldr	r3, [r7, #0]
    46f6:	49ab      	ldr	r1, [pc, #684]	@ (49a4 <start+0x2f4>)
    46f8:	9300      	str	r3, [sp, #0]
    46fa:	4bab      	ldr	r3, [pc, #684]	@ (49a8 <start+0x2f8>)
    46fc:	680a      	ldr	r2, [r1, #0]
    46fe:	601a      	str	r2, [r3, #0]
    4700:	4aaa      	ldr	r2, [pc, #680]	@ (49ac <start+0x2fc>)
    4702:	2320      	movs	r3, #32
    4704:	69d8      	ldr	r0, [r3, #28]
    4706:	4eaa      	ldr	r6, [pc, #680]	@ (49b0 <start+0x300>)
    4708:	6010      	str	r0, [r2, #0]
    470a:	4aaa      	ldr	r2, [pc, #680]	@ (49b4 <start+0x304>)
    470c:	6830      	ldr	r0, [r6, #0]
    470e:	6010      	str	r0, [r2, #0]
    4710:	4aa9      	ldr	r2, [pc, #676]	@ (49b8 <start+0x308>)
    4712:	6810      	ldr	r0, [r2, #0]
    4714:	4684      	mov	ip, r0
    4716:	48a9      	ldr	r0, [pc, #676]	@ (49bc <start+0x30c>)
    4718:	4662      	mov	r2, ip
    471a:	6002      	str	r2, [r0, #0]
    471c:	48a8      	ldr	r0, [pc, #672]	@ (49c0 <start+0x310>)
    471e:	6800      	ldr	r0, [r0, #0]
    4720:	2807      	cmp	r0, #7
    4722:	d809      	bhi.n	4738 <start+0x88>
    4724:	f7fb fe16 	bl	354 <__gnu_thumb1_case_uqi>
    4728:	cfc7c204 	.word	0xcfc7c204
    472c:	bdbd04cb 	.word	0xbdbd04cb
    4730:	2480      	movs	r4, #128	@ 0x80
    4732:	48a4      	ldr	r0, [pc, #656]	@ (49c4 <start+0x314>)
    4734:	0464      	lsls	r4, r4, #17
    4736:	61d8      	str	r0, [r3, #28]
    4738:	2359      	movs	r3, #89	@ 0x59
    473a:	781b      	ldrb	r3, [r3, #0]
    473c:	4aa2      	ldr	r2, [pc, #648]	@ (49c8 <start+0x318>)
    473e:	009b      	lsls	r3, r3, #2
    4740:	189b      	adds	r3, r3, r2
    4742:	2000      	movs	r0, #0
    4744:	6018      	str	r0, [r3, #0]
    4746:	48a1      	ldr	r0, [pc, #644]	@ (49cc <start+0x31c>)
    4748:	4ba1      	ldr	r3, [pc, #644]	@ (49d0 <start+0x320>)
    474a:	6003      	str	r3, [r0, #0]
    474c:	2032      	movs	r0, #50	@ 0x32
    474e:	6010      	str	r0, [r2, #0]
    4750:	48a0      	ldr	r0, [pc, #640]	@ (49d4 <start+0x324>)
    4752:	4ba1      	ldr	r3, [pc, #644]	@ (49d8 <start+0x328>)
    4754:	6003      	str	r3, [r0, #0]
    4756:	4ba1      	ldr	r3, [pc, #644]	@ (49dc <start+0x32c>)
    4758:	2038      	movs	r0, #56	@ 0x38
    475a:	6018      	str	r0, [r3, #0]
    475c:	48a0      	ldr	r0, [pc, #640]	@ (49e0 <start+0x330>)
    475e:	4ba1      	ldr	r3, [pc, #644]	@ (49e4 <start+0x334>)
    4760:	6003      	str	r3, [r0, #0]
    4762:	4ba1      	ldr	r3, [pc, #644]	@ (49e8 <start+0x338>)
    4764:	203b      	movs	r0, #59	@ 0x3b
    4766:	6018      	str	r0, [r3, #0]
    4768:	48a0      	ldr	r0, [pc, #640]	@ (49ec <start+0x33c>)
    476a:	4ba1      	ldr	r3, [pc, #644]	@ (49f0 <start+0x340>)
    476c:	6003      	str	r3, [r0, #0]
    476e:	4ba1      	ldr	r3, [pc, #644]	@ (49f4 <start+0x344>)
    4770:	202c      	movs	r0, #44	@ 0x2c
    4772:	6018      	str	r0, [r3, #0]
    4774:	48a0      	ldr	r0, [pc, #640]	@ (49f8 <start+0x348>)
    4776:	4ba1      	ldr	r3, [pc, #644]	@ (49fc <start+0x34c>)
    4778:	6003      	str	r3, [r0, #0]
    477a:	4ba1      	ldr	r3, [pc, #644]	@ (4a00 <start+0x350>)
    477c:	2024      	movs	r0, #36	@ 0x24
    477e:	6018      	str	r0, [r3, #0]
    4780:	48a0      	ldr	r0, [pc, #640]	@ (4a04 <start+0x354>)
    4782:	4ba1      	ldr	r3, [pc, #644]	@ (4a08 <start+0x358>)
    4784:	6003      	str	r3, [r0, #0]
    4786:	4ba1      	ldr	r3, [pc, #644]	@ (4a0c <start+0x35c>)
    4788:	202b      	movs	r0, #43	@ 0x2b
    478a:	6018      	str	r0, [r3, #0]
    478c:	48a0      	ldr	r0, [pc, #640]	@ (4a10 <start+0x360>)
    478e:	4ba1      	ldr	r3, [pc, #644]	@ (4a14 <start+0x364>)
    4790:	6003      	str	r3, [r0, #0]
    4792:	9a00      	ldr	r2, [sp, #0]
    4794:	4ba0      	ldr	r3, [pc, #640]	@ (4a18 <start+0x368>)
    4796:	2021      	movs	r0, #33	@ 0x21
    4798:	6018      	str	r0, [r3, #0]
    479a:	6034      	str	r4, [r6, #0]
    479c:	680b      	ldr	r3, [r1, #0]
    479e:	2a00      	cmp	r2, #0
    47a0:	d001      	beq.n	47a6 <start+0xf6>
    47a2:	2110      	movs	r1, #16
    47a4:	438b      	bics	r3, r1
    47a6:	4a84      	ldr	r2, [pc, #528]	@ (49b8 <start+0x308>)
    47a8:	4c9c      	ldr	r4, [pc, #624]	@ (4a1c <start+0x36c>)
    47aa:	6013      	str	r3, [r2, #0]
    47ac:	2300      	movs	r3, #0
    47ae:	6063      	str	r3, [r4, #4]
    47b0:	61e3      	str	r3, [r4, #28]
    47b2:	6223      	str	r3, [r4, #32]
    47b4:	6263      	str	r3, [r4, #36]	@ 0x24
    47b6:	6023      	str	r3, [r4, #0]
    47b8:	63e3      	str	r3, [r4, #60]	@ 0x3c
    47ba:	6423      	str	r3, [r4, #64]	@ 0x40
    47bc:	64a3      	str	r3, [r4, #72]	@ 0x48
    47be:	6463      	str	r3, [r4, #68]	@ 0x44
    47c0:	9b01      	ldr	r3, [sp, #4]
    47c2:	2201      	movs	r2, #1
    47c4:	6162      	str	r2, [r4, #20]
    47c6:	4293      	cmp	r3, r2
    47c8:	d101      	bne.n	47ce <start+0x11e>
    47ca:	f7ff f99d 	bl	3b08 <event_wait>
    47ce:	682b      	ldr	r3, [r5, #0]
    47d0:	2b00      	cmp	r3, #0
    47d2:	d005      	beq.n	47e0 <start+0x130>
    47d4:	683b      	ldr	r3, [r7, #0]
    47d6:	2b00      	cmp	r3, #0
    47d8:	d102      	bne.n	47e0 <start+0x130>
    47da:	4b91      	ldr	r3, [pc, #580]	@ (4a20 <start+0x370>)
    47dc:	22e2      	movs	r2, #226	@ 0xe2
    47de:	601a      	str	r2, [r3, #0]
    47e0:	4b90      	ldr	r3, [pc, #576]	@ (4a24 <start+0x374>)
    47e2:	2200      	movs	r2, #0
    47e4:	601a      	str	r2, [r3, #0]
    47e6:	4b90      	ldr	r3, [pc, #576]	@ (4a28 <start+0x378>)
    47e8:	2101      	movs	r1, #1
    47ea:	6019      	str	r1, [r3, #0]
    47ec:	4b8f      	ldr	r3, [pc, #572]	@ (4a2c <start+0x37c>)
    47ee:	601a      	str	r2, [r3, #0]
    47f0:	4b8d      	ldr	r3, [pc, #564]	@ (4a28 <start+0x378>)
    47f2:	681b      	ldr	r3, [r3, #0]
    47f4:	2b00      	cmp	r3, #0
    47f6:	d000      	beq.n	47fa <start+0x14a>
    47f8:	e08b      	b.n	4912 <start+0x262>
    47fa:	f7ff ff0f 	bl	461c <clean_up>
    47fe:	f7fb ecd4 	blx	1a8 <cpu_int_enable>
    4802:	4a8b      	ldr	r2, [pc, #556]	@ (4a30 <start+0x380>)
    4804:	498b      	ldr	r1, [pc, #556]	@ (4a34 <start+0x384>)
    4806:	6813      	ldr	r3, [r2, #0]
    4808:	6808      	ldr	r0, [r1, #0]
    480a:	4e8b      	ldr	r6, [pc, #556]	@ (4a38 <start+0x388>)
    480c:	181b      	adds	r3, r3, r0
    480e:	4d8b      	ldr	r5, [pc, #556]	@ (4a3c <start+0x38c>)
    4810:	60a3      	str	r3, [r4, #8]
    4812:	6833      	ldr	r3, [r6, #0]
    4814:	60e3      	str	r3, [r4, #12]
    4816:	682b      	ldr	r3, [r5, #0]
    4818:	61a3      	str	r3, [r4, #24]
    481a:	4889      	ldr	r0, [pc, #548]	@ (4a40 <start+0x390>)
    481c:	4b89      	ldr	r3, [pc, #548]	@ (4a44 <start+0x394>)
    481e:	681b      	ldr	r3, [r3, #0]
    4820:	6800      	ldr	r0, [r0, #0]
    4822:	181b      	adds	r3, r3, r0
    4824:	6323      	str	r3, [r4, #48]	@ 0x30
    4826:	4b88      	ldr	r3, [pc, #544]	@ (4a48 <start+0x398>)
    4828:	681b      	ldr	r3, [r3, #0]
    482a:	6363      	str	r3, [r4, #52]	@ 0x34
    482c:	4b87      	ldr	r3, [pc, #540]	@ (4a4c <start+0x39c>)
    482e:	781b      	ldrb	r3, [r3, #0]
    4830:	2b00      	cmp	r3, #0
    4832:	d00b      	beq.n	484c <start+0x19c>
    4834:	6812      	ldr	r2, [r2, #0]
    4836:	680b      	ldr	r3, [r1, #0]
    4838:	2002      	movs	r0, #2
    483a:	4985      	ldr	r1, [pc, #532]	@ (4a50 <start+0x3a0>)
    483c:	18d2      	adds	r2, r2, r3
    483e:	f7ff fd33 	bl	42a8 <io_printf>
    4842:	6832      	ldr	r2, [r6, #0]
    4844:	4983      	ldr	r1, [pc, #524]	@ (4a54 <start+0x3a4>)
    4846:	2002      	movs	r0, #2
    4848:	f7ff fd2e 	bl	42a8 <io_printf>
    484c:	6922      	ldr	r2, [r4, #16]
    484e:	4982      	ldr	r1, [pc, #520]	@ (4a58 <start+0x3a8>)
    4850:	2002      	movs	r0, #2
    4852:	f7ff fd29 	bl	42a8 <io_printf>
    4856:	4981      	ldr	r1, [pc, #516]	@ (4a5c <start+0x3ac>)
    4858:	6ba2      	ldr	r2, [r4, #56]	@ 0x38
    485a:	2002      	movs	r0, #2
    485c:	f7ff fd24 	bl	42a8 <io_printf>
    4860:	682a      	ldr	r2, [r5, #0]
    4862:	497f      	ldr	r1, [pc, #508]	@ (4a60 <start+0x3b0>)
    4864:	2002      	movs	r0, #2
    4866:	f7ff fd1f 	bl	42a8 <io_printf>
    486a:	6863      	ldr	r3, [r4, #4]
    486c:	07db      	lsls	r3, r3, #31
    486e:	d504      	bpl.n	487a <start+0x1ca>
    4870:	497c      	ldr	r1, [pc, #496]	@ (4a64 <start+0x3b4>)
    4872:	6a22      	ldr	r2, [r4, #32]
    4874:	2002      	movs	r0, #2
    4876:	f7ff fd17 	bl	42a8 <io_printf>
    487a:	4c68      	ldr	r4, [pc, #416]	@ (4a1c <start+0x36c>)
    487c:	2002      	movs	r0, #2
    487e:	6863      	ldr	r3, [r4, #4]
    4880:	4203      	tst	r3, r0
    4882:	d003      	beq.n	488c <start+0x1dc>
    4884:	4978      	ldr	r1, [pc, #480]	@ (4a68 <start+0x3b8>)
    4886:	69e2      	ldr	r2, [r4, #28]
    4888:	f7ff fd0e 	bl	42a8 <io_printf>
    488c:	6863      	ldr	r3, [r4, #4]
    488e:	075b      	lsls	r3, r3, #29
    4890:	d504      	bpl.n	489c <start+0x1ec>
    4892:	4976      	ldr	r1, [pc, #472]	@ (4a6c <start+0x3bc>)
    4894:	6a62      	ldr	r2, [r4, #36]	@ 0x24
    4896:	2002      	movs	r0, #2
    4898:	f7ff fd06 	bl	42a8 <io_printf>
    489c:	6820      	ldr	r0, [r4, #0]
    489e:	b005      	add	sp, #20
    48a0:	bdf0      	pop	{r4, r5, r6, r7, pc}
    48a2:	4873      	ldr	r0, [pc, #460]	@ (4a70 <start+0x3c0>)
    48a4:	2480      	movs	r4, #128	@ 0x80
    48a6:	0524      	lsls	r4, r4, #20
    48a8:	61d8      	str	r0, [r3, #28]
    48aa:	e745      	b.n	4738 <start+0x88>
    48ac:	4871      	ldr	r0, [pc, #452]	@ (4a74 <start+0x3c4>)
    48ae:	2480      	movs	r4, #128	@ 0x80
    48b0:	0164      	lsls	r4, r4, #5
    48b2:	61d8      	str	r0, [r3, #28]
    48b4:	e740      	b.n	4738 <start+0x88>
    48b6:	4870      	ldr	r0, [pc, #448]	@ (4a78 <start+0x3c8>)
    48b8:	2410      	movs	r4, #16
    48ba:	61d8      	str	r0, [r3, #28]
    48bc:	e73c      	b.n	4738 <start+0x88>
    48be:	486f      	ldr	r0, [pc, #444]	@ (4a7c <start+0x3cc>)
    48c0:	2402      	movs	r4, #2
    48c2:	61d8      	str	r0, [r3, #28]
    48c4:	e738      	b.n	4738 <start+0x88>
    48c6:	486e      	ldr	r0, [pc, #440]	@ (4a80 <start+0x3d0>)
    48c8:	2480      	movs	r4, #128	@ 0x80
    48ca:	02e4      	lsls	r4, r4, #11
    48cc:	61d8      	str	r0, [r3, #28]
    48ce:	e733      	b.n	4738 <start+0x88>
    48d0:	0028      	movs	r0, r5
    48d2:	f7fb ec7a 	blx	1c8 <cpu_int_restore>
    48d6:	4d6b      	ldr	r5, [pc, #428]	@ (4a84 <start+0x3d4>)
    48d8:	9b03      	ldr	r3, [sp, #12]
    48da:	692a      	ldr	r2, [r5, #16]
    48dc:	429a      	cmp	r2, r3
    48de:	d102      	bne.n	48e6 <start+0x236>
    48e0:	4b4e      	ldr	r3, [pc, #312]	@ (4a1c <start+0x36c>)
    48e2:	2101      	movs	r1, #1
    48e4:	63d9      	str	r1, [r3, #60]	@ 0x3c
    48e6:	9b03      	ldr	r3, [sp, #12]
    48e8:	429a      	cmp	r2, r3
    48ea:	d102      	bne.n	48f2 <start+0x242>
    48ec:	683b      	ldr	r3, [r7, #0]
    48ee:	2b00      	cmp	r3, #0
    48f0:	d103      	bne.n	48fa <start+0x24a>
    48f2:	9b03      	ldr	r3, [sp, #12]
    48f4:	9900      	ldr	r1, [sp, #0]
    48f6:	0030      	movs	r0, r6
    48f8:	4798      	blx	r3
    48fa:	9b03      	ldr	r3, [sp, #12]
    48fc:	692a      	ldr	r2, [r5, #16]
    48fe:	429a      	cmp	r2, r3
    4900:	d107      	bne.n	4912 <start+0x262>
    4902:	4a46      	ldr	r2, [pc, #280]	@ (4a1c <start+0x36c>)
    4904:	6c13      	ldr	r3, [r2, #64]	@ 0x40
    4906:	2b00      	cmp	r3, #0
    4908:	d001      	beq.n	490e <start+0x25e>
    490a:	3b01      	subs	r3, #1
    490c:	6413      	str	r3, [r2, #64]	@ 0x40
    490e:	2300      	movs	r3, #0
    4910:	63d3      	str	r3, [r2, #60]	@ 0x3c
    4912:	f7fb ec52 	blx	1b8 <cpu_int_disable>
    4916:	2100      	movs	r1, #0
    4918:	0005      	movs	r5, r0
    491a:	e01f      	b.n	495c <start+0x2ac>
    491c:	4a5a      	ldr	r2, [pc, #360]	@ (4a88 <start+0x3d8>)
    491e:	6812      	ldr	r2, [r2, #0]
    4920:	4291      	cmp	r1, r2
    4922:	d21f      	bcs.n	4964 <start+0x2b4>
    4924:	23c8      	movs	r3, #200	@ 0xc8
    4926:	434b      	muls	r3, r1
    4928:	4858      	ldr	r0, [pc, #352]	@ (4a8c <start+0x3dc>)
    492a:	469c      	mov	ip, r3
    492c:	4662      	mov	r2, ip
    492e:	1882      	adds	r2, r0, r2
    4930:	581b      	ldr	r3, [r3, r0]
    4932:	6852      	ldr	r2, [r2, #4]
    4934:	4293      	cmp	r3, r2
    4936:	d010      	beq.n	495a <start+0x2aa>
    4938:	220c      	movs	r2, #12
    493a:	435a      	muls	r2, r3
    493c:	4462      	add	r2, ip
    493e:	1882      	adds	r2, r0, r2
    4940:	6896      	ldr	r6, [r2, #8]
    4942:	9603      	str	r6, [sp, #12]
    4944:	68d6      	ldr	r6, [r2, #12]
    4946:	6912      	ldr	r2, [r2, #16]
    4948:	3301      	adds	r3, #1
    494a:	9200      	str	r2, [sp, #0]
    494c:	220f      	movs	r2, #15
    494e:	4013      	ands	r3, r2
    4950:	4662      	mov	r2, ip
    4952:	5013      	str	r3, [r2, r0]
    4954:	9b03      	ldr	r3, [sp, #12]
    4956:	2b00      	cmp	r3, #0
    4958:	d1ba      	bne.n	48d0 <start+0x220>
    495a:	3101      	adds	r1, #1
    495c:	4b32      	ldr	r3, [pc, #200]	@ (4a28 <start+0x378>)
    495e:	681a      	ldr	r2, [r3, #0]
    4960:	2a00      	cmp	r2, #0
    4962:	d1db      	bne.n	491c <start+0x26c>
    4964:	681b      	ldr	r3, [r3, #0]
    4966:	2b00      	cmp	r3, #0
    4968:	d100      	bne.n	496c <start+0x2bc>
    496a:	e741      	b.n	47f0 <start+0x140>
    496c:	f7fb ec30 	blx	1d0 <cpu_wfi>
    4970:	4b2e      	ldr	r3, [pc, #184]	@ (4a2c <start+0x37c>)
    4972:	681b      	ldr	r3, [r3, #0]
    4974:	2b01      	cmp	r3, #1
    4976:	d105      	bne.n	4984 <start+0x2d4>
    4978:	f7ff fe86 	bl	4688 <resume_wait>
    497c:	2800      	cmp	r0, #0
    497e:	d101      	bne.n	4984 <start+0x2d4>
    4980:	f7ff fe24 	bl	45cc <resume>
    4984:	0028      	movs	r0, r5
    4986:	f7fb ec20 	blx	1c8 <cpu_int_restore>
    498a:	e731      	b.n	47f0 <start+0x140>
    498c:	00401050 	.word	0x00401050
    4990:	40000010 	.word	0x40000010
    4994:	40000018 	.word	0x40000018
    4998:	40000028 	.word	0x40000028
    499c:	00401044 	.word	0x00401044
    49a0:	0040102c 	.word	0x0040102c
    49a4:	0040101c 	.word	0x0040101c
    49a8:	1f000014 	.word	0x1f000014
    49ac:	00401028 	.word	0x00401028
    49b0:	1f00000c 	.word	0x1f00000c
    49b4:	00401024 	.word	0x00401024
    49b8:	1f000010 	.word	0x1f000010
    49bc:	00401020 	.word	0x00401020
    49c0:	0040000c 	.word	0x0040000c
    49c4:	00004d8c 	.word	0x00004d8c
    49c8:	2f000200 	.word	0x2f000200
    49cc:	2f000100 	.word	0x2f000100
    49d0:	000002f0 	.word	0x000002f0
    49d4:	2f000110 	.word	0x2f000110
    49d8:	00004d18 	.word	0x00004d18
    49dc:	2f000210 	.word	0x2f000210
    49e0:	2f000114 	.word	0x2f000114
    49e4:	00004dc4 	.word	0x00004dc4
    49e8:	2f000214 	.word	0x2f000214
    49ec:	2f00010c 	.word	0x2f00010c
    49f0:	00004f04 	.word	0x00004f04
    49f4:	2f00020c 	.word	0x2f00020c
    49f8:	2f000108 	.word	0x2f000108
    49fc:	0000500c 	.word	0x0000500c
    4a00:	2f000208 	.word	0x2f000208
    4a04:	2f000118 	.word	0x2f000118
    4a08:	00004e70 	.word	0x00004e70
    4a0c:	2f000218 	.word	0x2f000218
    4a10:	2f00011c 	.word	0x2f00011c
    4a14:	0000518c 	.word	0x0000518c
    4a18:	2f00021c 	.word	0x2f00021c
    4a1c:	00400a34 	.word	0x00400a34
    4a20:	21000008 	.word	0x21000008
    4a24:	00401048 	.word	0x00401048
    4a28:	00401054 	.word	0x00401054
    4a2c:	0040104c 	.word	0x0040104c
    4a30:	e1000300 	.word	0xe1000300
    4a34:	e1000304 	.word	0xe1000304
    4a38:	e1000320 	.word	0xe1000320
    4a3c:	40000040 	.word	0x40000040
    4a40:	e100031c 	.word	0xe100031c
    4a44:	e1000318 	.word	0xe1000318
    4a48:	e100032c 	.word	0xe100032c
    4a4c:	00401058 	.word	0x00401058
    4a50:	00005508 	.word	0x00005508
    4a54:	0000552e 	.word	0x0000552e
    4a58:	00005554 	.word	0x00005554
    4a5c:	0000557a 	.word	0x0000557a
    4a60:	000055a3 	.word	0x000055a3
    4a64:	000055c2 	.word	0x000055c2
    4a68:	000055ee 	.word	0x000055ee
    4a6c:	00005619 	.word	0x00005619
    4a70:	00004e38 	.word	0x00004e38
    4a74:	00004f94 	.word	0x00004f94
    4a78:	0000514c 	.word	0x0000514c
    4a7c:	000051f8 	.word	0x000051f8
    4a80:	0000524c 	.word	0x0000524c
    4a84:	00400a80 	.word	0x00400a80
    4a88:	00401018 	.word	0x00401018
    4a8c:	00400ac0 	.word	0x00400ac0

00004a90 <spin1_callback_on>:
    4a90:	4b25      	ldr	r3, [pc, #148]	@ (4b28 <spin1_callback_on+0x98>)
    4a92:	b510      	push	{r4, lr}
    4a94:	00c4      	lsls	r4, r0, #3
    4a96:	5119      	str	r1, [r3, r4]
    4a98:	191b      	adds	r3, r3, r4
    4a9a:	605a      	str	r2, [r3, #4]
    4a9c:	2a00      	cmp	r2, #0
    4a9e:	da21      	bge.n	4ae4 <spin1_callback_on+0x54>
    4aa0:	4b22      	ldr	r3, [pc, #136]	@ (4b2c <spin1_callback_on+0x9c>)
    4aa2:	6819      	ldr	r1, [r3, #0]
    4aa4:	1c4c      	adds	r4, r1, #1
    4aa6:	d01c      	beq.n	4ae2 <spin1_callback_on+0x52>
    4aa8:	2800      	cmp	r0, #0
    4aaa:	d108      	bne.n	4abe <spin1_callback_on+0x2e>
    4aac:	2905      	cmp	r1, #5
    4aae:	d10a      	bne.n	4ac6 <spin1_callback_on+0x36>
    4ab0:	6018      	str	r0, [r3, #0]
    4ab2:	491f      	ldr	r1, [pc, #124]	@ (4b30 <spin1_callback_on+0xa0>)
    4ab4:	680b      	ldr	r3, [r1, #0]
    4ab6:	1c9c      	adds	r4, r3, #2
    4ab8:	d11d      	bne.n	4af6 <spin1_callback_on+0x66>
    4aba:	600a      	str	r2, [r1, #0]
    4abc:	e01f      	b.n	4afe <spin1_callback_on+0x6e>
    4abe:	2805      	cmp	r0, #5
    4ac0:	d104      	bne.n	4acc <spin1_callback_on+0x3c>
    4ac2:	2900      	cmp	r1, #0
    4ac4:	d0f4      	beq.n	4ab0 <spin1_callback_on+0x20>
    4ac6:	2013      	movs	r0, #19
    4ac8:	f7fb eb30 	blx	12c <rt_error>
    4acc:	2806      	cmp	r0, #6
    4ace:	d103      	bne.n	4ad8 <spin1_callback_on+0x48>
    4ad0:	2907      	cmp	r1, #7
    4ad2:	d1f8      	bne.n	4ac6 <spin1_callback_on+0x36>
    4ad4:	6018      	str	r0, [r3, #0]
    4ad6:	e00c      	b.n	4af2 <spin1_callback_on+0x62>
    4ad8:	2807      	cmp	r0, #7
    4ada:	d1f4      	bne.n	4ac6 <spin1_callback_on+0x36>
    4adc:	2906      	cmp	r1, #6
    4ade:	d0f9      	beq.n	4ad4 <spin1_callback_on+0x44>
    4ae0:	e7f1      	b.n	4ac6 <spin1_callback_on+0x36>
    4ae2:	6018      	str	r0, [r3, #0]
    4ae4:	2800      	cmp	r0, #0
    4ae6:	d0e4      	beq.n	4ab2 <spin1_callback_on+0x22>
    4ae8:	2805      	cmp	r0, #5
    4aea:	d0e2      	beq.n	4ab2 <spin1_callback_on+0x22>
    4aec:	1f83      	subs	r3, r0, #6
    4aee:	2b01      	cmp	r3, #1
    4af0:	d805      	bhi.n	4afe <spin1_callback_on+0x6e>
    4af2:	4910      	ldr	r1, [pc, #64]	@ (4b34 <spin1_callback_on+0xa4>)
    4af4:	e7de      	b.n	4ab4 <spin1_callback_on+0x24>
    4af6:	3301      	adds	r3, #1
    4af8:	d101      	bne.n	4afe <spin1_callback_on+0x6e>
    4afa:	1c53      	adds	r3, r2, #1
    4afc:	d1e3      	bne.n	4ac6 <spin1_callback_on+0x36>
    4afe:	4b0e      	ldr	r3, [pc, #56]	@ (4b38 <spin1_callback_on+0xa8>)
    4b00:	0080      	lsls	r0, r0, #2
    4b02:	58c1      	ldr	r1, [r0, r3]
    4b04:	480d      	ldr	r0, [pc, #52]	@ (4b3c <spin1_callback_on+0xac>)
    4b06:	6803      	ldr	r3, [r0, #0]
    4b08:	430b      	orrs	r3, r1
    4b0a:	6003      	str	r3, [r0, #0]
    4b0c:	4b0c      	ldr	r3, [pc, #48]	@ (4b40 <spin1_callback_on+0xb0>)
    4b0e:	681b      	ldr	r3, [r3, #0]
    4b10:	2b00      	cmp	r3, #0
    4b12:	d001      	beq.n	4b18 <spin1_callback_on+0x88>
    4b14:	4b0b      	ldr	r3, [pc, #44]	@ (4b44 <spin1_callback_on+0xb4>)
    4b16:	6019      	str	r1, [r3, #0]
    4b18:	2a00      	cmp	r2, #0
    4b1a:	dd04      	ble.n	4b26 <spin1_callback_on+0x96>
    4b1c:	4b0a      	ldr	r3, [pc, #40]	@ (4b48 <spin1_callback_on+0xb8>)
    4b1e:	6819      	ldr	r1, [r3, #0]
    4b20:	4291      	cmp	r1, r2
    4b22:	d200      	bcs.n	4b26 <spin1_callback_on+0x96>
    4b24:	601a      	str	r2, [r3, #0]
    4b26:	bd10      	pop	{r4, pc}
    4b28:	00400a80 	.word	0x00400a80
    4b2c:	0040000c 	.word	0x0040000c
    4b30:	00400008 	.word	0x00400008
    4b34:	00400004 	.word	0x00400004
    4b38:	00005658 	.word	0x00005658
    4b3c:	0040101c 	.word	0x0040101c
    4b40:	00401054 	.word	0x00401054
    4b44:	1f000010 	.word	0x1f000010
    4b48:	00401018 	.word	0x00401018

00004b4c <spin1_set_timer_tick_and_phase>:
    4b4c:	4b02      	ldr	r3, [pc, #8]	@ (4b58 <spin1_set_timer_tick_and_phase+0xc>)
    4b4e:	6018      	str	r0, [r3, #0]
    4b50:	4b02      	ldr	r3, [pc, #8]	@ (4b5c <spin1_set_timer_tick_and_phase+0x10>)
    4b52:	6019      	str	r1, [r3, #0]
    4b54:	4770      	bx	lr
    4b56:	46c0      	nop			@ (mov r8, r8)
    4b58:	00401044 	.word	0x00401044
    4b5c:	0040102c 	.word	0x0040102c

00004b60 <spin1_start>:
    4b60:	b510      	push	{r4, lr}
    4b62:	2100      	movs	r1, #0
    4b64:	f7ff fda4 	bl	46b0 <start>
    4b68:	bd10      	pop	{r4, pc}
	...

00004b6c <spin1_send_packet>:
    4b6c:	b5f0      	push	{r4, r5, r6, r7, lr}
    4b6e:	b085      	sub	sp, #20
    4b70:	000d      	movs	r5, r1
    4b72:	0014      	movs	r4, r2
    4b74:	0006      	movs	r6, r0
    4b76:	f7fb eb20 	blx	1b8 <cpu_int_disable>
    4b7a:	2180      	movs	r1, #128	@ 0x80
    4b7c:	0589      	lsls	r1, r1, #22
    4b7e:	2300      	movs	r3, #0
    4b80:	9001      	str	r0, [sp, #4]
    4b82:	600b      	str	r3, [r1, #0]
    4b84:	680a      	ldr	r2, [r1, #0]
    4b86:	680f      	ldr	r7, [r1, #0]
    4b88:	4a2f      	ldr	r2, [pc, #188]	@ (4c48 <spin1_send_packet+0xdc>)
    4b8a:	007f      	lsls	r7, r7, #1
    4b8c:	d524      	bpl.n	4bd8 <spin1_send_packet+0x6c>
    4b8e:	6857      	ldr	r7, [r2, #4]
    4b90:	1c79      	adds	r1, r7, #1
    4b92:	468c      	mov	ip, r1
    4b94:	4660      	mov	r0, ip
    4b96:	210f      	movs	r1, #15
    4b98:	4001      	ands	r1, r0
    4b9a:	6810      	ldr	r0, [r2, #0]
    4b9c:	4281      	cmp	r1, r0
    4b9e:	d10e      	bne.n	4bbe <spin1_send_packet+0x52>
    4ba0:	4a2a      	ldr	r2, [pc, #168]	@ (4c4c <spin1_send_packet+0xe0>)
    4ba2:	2104      	movs	r1, #4
    4ba4:	6854      	ldr	r4, [r2, #4]
    4ba6:	4321      	orrs	r1, r4
    4ba8:	6051      	str	r1, [r2, #4]
    4baa:	6a51      	ldr	r1, [r2, #36]	@ 0x24
    4bac:	001c      	movs	r4, r3
    4bae:	3101      	adds	r1, #1
    4bb0:	6251      	str	r1, [r2, #36]	@ 0x24
    4bb2:	9801      	ldr	r0, [sp, #4]
    4bb4:	f7fb eb08 	blx	1c8 <cpu_int_restore>
    4bb8:	0020      	movs	r0, r4
    4bba:	b005      	add	sp, #20
    4bbc:	bdf0      	pop	{r4, r5, r6, r7, pc}
    4bbe:	230c      	movs	r3, #12
    4bc0:	437b      	muls	r3, r7
    4bc2:	18d3      	adds	r3, r2, r3
    4bc4:	609e      	str	r6, [r3, #8]
    4bc6:	60dd      	str	r5, [r3, #12]
    4bc8:	611c      	str	r4, [r3, #16]
    4bca:	4b21      	ldr	r3, [pc, #132]	@ (4c50 <spin1_send_packet+0xe4>)
    4bcc:	6051      	str	r1, [r2, #4]
    4bce:	2280      	movs	r2, #128	@ 0x80
    4bd0:	0112      	lsls	r2, r2, #4
    4bd2:	601a      	str	r2, [r3, #0]
    4bd4:	2401      	movs	r4, #1
    4bd6:	e7ec      	b.n	4bb2 <spin1_send_packet+0x46>
    4bd8:	6853      	ldr	r3, [r2, #4]
    4bda:	6817      	ldr	r7, [r2, #0]
    4bdc:	200f      	movs	r0, #15
    4bde:	3301      	adds	r3, #1
    4be0:	4684      	mov	ip, r0
    4be2:	4003      	ands	r3, r0
    4be4:	42bb      	cmp	r3, r7
    4be6:	d114      	bne.n	4c12 <spin1_send_packet+0xa6>
    4be8:	270c      	movs	r7, #12
    4bea:	435f      	muls	r7, r3
    4bec:	19d7      	adds	r7, r2, r7
    4bee:	68b8      	ldr	r0, [r7, #8]
    4bf0:	9002      	str	r0, [sp, #8]
    4bf2:	68f8      	ldr	r0, [r7, #12]
    4bf4:	9003      	str	r0, [sp, #12]
    4bf6:	693f      	ldr	r7, [r7, #16]
    4bf8:	3301      	adds	r3, #1
    4bfa:	4660      	mov	r0, ip
    4bfc:	4003      	ands	r3, r0
    4bfe:	6013      	str	r3, [r2, #0]
    4c00:	600f      	str	r7, [r1, #0]
    4c02:	03bf      	lsls	r7, r7, #14
    4c04:	d502      	bpl.n	4c0c <spin1_send_packet+0xa0>
    4c06:	4b13      	ldr	r3, [pc, #76]	@ (4c54 <spin1_send_packet+0xe8>)
    4c08:	9a03      	ldr	r2, [sp, #12]
    4c0a:	601a      	str	r2, [r3, #0]
    4c0c:	4b12      	ldr	r3, [pc, #72]	@ (4c58 <spin1_send_packet+0xec>)
    4c0e:	9a02      	ldr	r2, [sp, #8]
    4c10:	601a      	str	r2, [r3, #0]
    4c12:	490d      	ldr	r1, [pc, #52]	@ (4c48 <spin1_send_packet+0xdc>)
    4c14:	684b      	ldr	r3, [r1, #4]
    4c16:	680a      	ldr	r2, [r1, #0]
    4c18:	429a      	cmp	r2, r3
    4c1a:	d10a      	bne.n	4c32 <spin1_send_packet+0xc6>
    4c1c:	2380      	movs	r3, #128	@ 0x80
    4c1e:	059b      	lsls	r3, r3, #22
    4c20:	601c      	str	r4, [r3, #0]
    4c22:	03a4      	lsls	r4, r4, #14
    4c24:	d501      	bpl.n	4c2a <spin1_send_packet+0xbe>
    4c26:	4b0b      	ldr	r3, [pc, #44]	@ (4c54 <spin1_send_packet+0xe8>)
    4c28:	601d      	str	r5, [r3, #0]
    4c2a:	4b0b      	ldr	r3, [pc, #44]	@ (4c58 <spin1_send_packet+0xec>)
    4c2c:	601e      	str	r6, [r3, #0]
    4c2e:	4b0b      	ldr	r3, [pc, #44]	@ (4c5c <spin1_send_packet+0xf0>)
    4c30:	e7cd      	b.n	4bce <spin1_send_packet+0x62>
    4c32:	220c      	movs	r2, #12
    4c34:	435a      	muls	r2, r3
    4c36:	188a      	adds	r2, r1, r2
    4c38:	3301      	adds	r3, #1
    4c3a:	6096      	str	r6, [r2, #8]
    4c3c:	60d5      	str	r5, [r2, #12]
    4c3e:	6114      	str	r4, [r2, #16]
    4c40:	220f      	movs	r2, #15
    4c42:	4013      	ands	r3, r2
    4c44:	604b      	str	r3, [r1, #4]
    4c46:	e7c5      	b.n	4bd4 <spin1_send_packet+0x68>
    4c48:	00400e08 	.word	0x00400e08
    4c4c:	00400a34 	.word	0x00400a34
    4c50:	1f000010 	.word	0x1f000010
    4c54:	20000004 	.word	0x20000004
    4c58:	20000008 	.word	0x20000008
    4c5c:	1f000014 	.word	0x1f000014

00004c60 <schedule_sysmode>:
    4c60:	b5f7      	push	{r0, r1, r2, r4, r5, r6, r7, lr}
    4c62:	9000      	str	r0, [sp, #0]
    4c64:	9b00      	ldr	r3, [sp, #0]
    4c66:	9201      	str	r2, [sp, #4]
    4c68:	4a19      	ldr	r2, [pc, #100]	@ (4cd0 <schedule_sysmode+0x70>)
    4c6a:	00df      	lsls	r7, r3, #3
    4c6c:	19d3      	adds	r3, r2, r7
    4c6e:	685c      	ldr	r4, [r3, #4]
    4c70:	0008      	movs	r0, r1
    4c72:	2c00      	cmp	r4, #0
    4c74:	dc03      	bgt.n	4c7e <schedule_sysmode+0x1e>
    4c76:	58bb      	ldr	r3, [r7, r2]
    4c78:	9901      	ldr	r1, [sp, #4]
    4c7a:	4798      	blx	r3
    4c7c:	bdf7      	pop	{r0, r1, r2, r4, r5, r6, r7, pc}
    4c7e:	3c01      	subs	r4, #1
    4c80:	25c8      	movs	r5, #200	@ 0xc8
    4c82:	4365      	muls	r5, r4
    4c84:	4b13      	ldr	r3, [pc, #76]	@ (4cd4 <schedule_sysmode+0x74>)
    4c86:	240f      	movs	r4, #15
    4c88:	1959      	adds	r1, r3, r5
    4c8a:	468c      	mov	ip, r1
    4c8c:	6849      	ldr	r1, [r1, #4]
    4c8e:	1c4e      	adds	r6, r1, #1
    4c90:	4026      	ands	r6, r4
    4c92:	58ec      	ldr	r4, [r5, r3]
    4c94:	42a6      	cmp	r6, r4
    4c96:	d012      	beq.n	4cbe <schedule_sysmode+0x5e>
    4c98:	240c      	movs	r4, #12
    4c9a:	4361      	muls	r1, r4
    4c9c:	194c      	adds	r4, r1, r5
    4c9e:	191b      	adds	r3, r3, r4
    4ca0:	58ba      	ldr	r2, [r7, r2]
    4ca2:	609a      	str	r2, [r3, #8]
    4ca4:	9a01      	ldr	r2, [sp, #4]
    4ca6:	60d8      	str	r0, [r3, #12]
    4ca8:	611a      	str	r2, [r3, #16]
    4caa:	4663      	mov	r3, ip
    4cac:	605e      	str	r6, [r3, #4]
    4cae:	9b00      	ldr	r3, [sp, #0]
    4cb0:	2b02      	cmp	r3, #2
    4cb2:	d1e3      	bne.n	4c7c <schedule_sysmode+0x1c>
    4cb4:	4a08      	ldr	r2, [pc, #32]	@ (4cd8 <schedule_sysmode+0x78>)
    4cb6:	6c13      	ldr	r3, [r2, #64]	@ 0x40
    4cb8:	3301      	adds	r3, #1
    4cba:	6413      	str	r3, [r2, #64]	@ 0x40
    4cbc:	e7de      	b.n	4c7c <schedule_sysmode+0x1c>
    4cbe:	4b06      	ldr	r3, [pc, #24]	@ (4cd8 <schedule_sysmode+0x78>)
    4cc0:	2201      	movs	r2, #1
    4cc2:	6859      	ldr	r1, [r3, #4]
    4cc4:	430a      	orrs	r2, r1
    4cc6:	605a      	str	r2, [r3, #4]
    4cc8:	6a1a      	ldr	r2, [r3, #32]
    4cca:	3201      	adds	r2, #1
    4ccc:	621a      	str	r2, [r3, #32]
    4cce:	e7d5      	b.n	4c7c <schedule_sysmode+0x1c>
    4cd0:	00400a80 	.word	0x00400a80
    4cd4:	00400ac0 	.word	0x00400ac0
    4cd8:	00400a34 	.word	0x00400a34

00004cdc <sark_pre_main>:
    4cdc:	b510      	push	{r4, lr}
    4cde:	f7fe fcd9 	bl	3694 <sark_call_cpp_constructors>
    4ce2:	2006      	movs	r0, #6
    4ce4:	f7fe fc60 	bl	35a8 <sark_cpu_state>
    4ce8:	235b      	movs	r3, #91	@ 0x5b
    4cea:	2201      	movs	r2, #1
    4cec:	701a      	strb	r2, [r3, #0]
    4cee:	f7fe fc63 	bl	35b8 <sark_app_lead>
    4cf2:	4b04      	ldr	r3, [pc, #16]	@ (4d04 <sark_pre_main+0x28>)
    4cf4:	4a04      	ldr	r2, [pc, #16]	@ (4d08 <sark_pre_main+0x2c>)
    4cf6:	681b      	ldr	r3, [r3, #0]
    4cf8:	1a1b      	subs	r3, r3, r0
    4cfa:	4259      	negs	r1, r3
    4cfc:	414b      	adcs	r3, r1
    4cfe:	7013      	strb	r3, [r2, #0]
    4d00:	bd10      	pop	{r4, pc}
    4d02:	46c0      	nop			@ (mov r8, r8)
    4d04:	00400934 	.word	0x00400934
    4d08:	00401058 	.word	0x00401058

00004d0c <sark_post_main>:
    4d0c:	b510      	push	{r4, lr}
    4d0e:	200b      	movs	r0, #11
    4d10:	f7fe fc4a 	bl	35a8 <sark_cpu_state>
    4d14:	bd10      	pop	{r4, pc}
	...

00004d18 <cc_rx_ready_isr>:
    4d18:	e24ee004 	sub	lr, lr, #4
    4d1c:	e92d500f 	push	{r0, r1, r2, r3, ip, lr}
    4d20:	e3a03202 	mov	r3, #536870912	@ 0x20000000
    4d24:	e593200c 	ldr	r2, [r3, #12]
    4d28:	e59f0054 	ldr	r0, [pc, #84]	@ 4d84 <cc_rx_ready_isr+0x6c>
    4d2c:	e2122802 	ands	r2, r2, #131072	@ 0x20000
    4d30:	0a00000a 	beq	4d60 <cc_rx_ready_isr+0x48>
    4d34:	e5932010 	ldr	r2, [r3, #16]
    4d38:	e5931014 	ldr	r1, [r3, #20]
    4d3c:	e5903028 	ldr	r3, [r0, #40]	@ 0x28
    4d40:	e3530000 	cmp	r3, #0
    4d44:	13a00005 	movne	r0, #5
    4d48:	1a000009 	bne	4d74 <cc_rx_ready_isr+0x5c>
    4d4c:	e59f2034 	ldr	r2, [pc, #52]	@ 4d88 <cc_rx_ready_isr+0x70>
    4d50:	e5923010 	ldr	r3, [r2, #16]
    4d54:	e2833001 	add	r3, r3, #1
    4d58:	e5823010 	str	r3, [r2, #16]
    4d5c:	ea000005 	b	4d78 <cc_rx_ready_isr+0x60>
    4d60:	e5931014 	ldr	r1, [r3, #20]
    4d64:	e5903000 	ldr	r3, [r0]
    4d68:	e3530000 	cmp	r3, #0
    4d6c:	0afffff6 	beq	4d4c <cc_rx_ready_isr+0x34>
    4d70:	e1a00002 	mov	r0, r2
    4d74:	ebffed6a 	bl	324 <schedule>
    4d78:	e3a0341f 	mov	r3, #520093696	@ 0x1f000000
    4d7c:	e5833030 	str	r3, [r3, #48]	@ 0x30
    4d80:	e8fd900f 	ldm	sp!, {r0, r1, r2, r3, ip, pc}^
    4d84:	00400a80 	.word	0x00400a80
    4d88:	00400a34 	.word	0x00400a34

00004d8c <cc_rx_ready_fiqsr>:
    4d8c:	e24ee004 	sub	lr, lr, #4
    4d90:	e92d500f 	push	{r0, r1, r2, r3, ip, lr}
    4d94:	e3a03202 	mov	r3, #536870912	@ 0x20000000
    4d98:	e593100c 	ldr	r1, [r3, #12]
    4d9c:	e59f201c 	ldr	r2, [pc, #28]	@ 4dc0 <cc_rx_ready_fiqsr+0x34>
    4da0:	e2111802 	ands	r1, r1, #131072	@ 0x20000
    4da4:	15931010 	ldrne	r1, [r3, #16]
    4da8:	05930014 	ldreq	r0, [r3, #20]
    4dac:	15930014 	ldrne	r0, [r3, #20]
    4db0:	05923000 	ldreq	r3, [r2]
    4db4:	15923028 	ldrne	r3, [r2, #40]	@ 0x28
    4db8:	e12fff33 	blx	r3
    4dbc:	e8fd900f 	ldm	sp!, {r0, r1, r2, r3, ip, pc}^
    4dc0:	00400a80 	.word	0x00400a80

00004dc4 <cc_fr_ready_isr>:
    4dc4:	e24ee004 	sub	lr, lr, #4
    4dc8:	e92d500f 	push	{r0, r1, r2, r3, ip, lr}
    4dcc:	e3a03202 	mov	r3, #536870912	@ 0x20000000
    4dd0:	e593200c 	ldr	r2, [r3, #12]
    4dd4:	e59f0054 	ldr	r0, [pc, #84]	@ 4e30 <cc_fr_ready_isr+0x6c>
    4dd8:	e2122802 	ands	r2, r2, #131072	@ 0x20000
    4ddc:	0a00000c 	beq	4e14 <cc_fr_ready_isr+0x50>
    4de0:	e5932010 	ldr	r2, [r3, #16]
    4de4:	e5931014 	ldr	r1, [r3, #20]
    4de8:	e5903038 	ldr	r3, [r0, #56]	@ 0x38
    4dec:	e3530000 	cmp	r3, #0
    4df0:	13a00007 	movne	r0, #7
    4df4:	1a00000b 	bne	4e28 <cc_fr_ready_isr+0x64>
    4df8:	e59f2034 	ldr	r2, [pc, #52]	@ 4e34 <cc_fr_ready_isr+0x70>
    4dfc:	e5923038 	ldr	r3, [r2, #56]	@ 0x38
    4e00:	e2833001 	add	r3, r3, #1
    4e04:	e5823038 	str	r3, [r2, #56]	@ 0x38
    4e08:	e3a0341f 	mov	r3, #520093696	@ 0x1f000000
    4e0c:	e5833030 	str	r3, [r3, #48]	@ 0x30
    4e10:	e8fd900f 	ldm	sp!, {r0, r1, r2, r3, ip, pc}^
    4e14:	e5931014 	ldr	r1, [r3, #20]
    4e18:	e5903030 	ldr	r3, [r0, #48]	@ 0x30
    4e1c:	e3530000 	cmp	r3, #0
    4e20:	0afffff4 	beq	4df8 <cc_fr_ready_isr+0x34>
    4e24:	e3a00006 	mov	r0, #6
    4e28:	ebffed3d 	bl	324 <schedule>
    4e2c:	eafffff5 	b	4e08 <cc_fr_ready_isr+0x44>
    4e30:	00400a80 	.word	0x00400a80
    4e34:	00400a34 	.word	0x00400a34

00004e38 <cc_fr_ready_fiqsr>:
    4e38:	e24ee004 	sub	lr, lr, #4
    4e3c:	e92d500f 	push	{r0, r1, r2, r3, ip, lr}
    4e40:	e3a03202 	mov	r3, #536870912	@ 0x20000000
    4e44:	e593100c 	ldr	r1, [r3, #12]
    4e48:	e59f201c 	ldr	r2, [pc, #28]	@ 4e6c <cc_fr_ready_fiqsr+0x34>
    4e4c:	e2111802 	ands	r1, r1, #131072	@ 0x20000
    4e50:	15931010 	ldrne	r1, [r3, #16]
    4e54:	05930014 	ldreq	r0, [r3, #20]
    4e58:	15930014 	ldrne	r0, [r3, #20]
    4e5c:	05923030 	ldreq	r3, [r2, #48]	@ 0x30
    4e60:	15923038 	ldrne	r3, [r2, #56]	@ 0x38
    4e64:	e12fff33 	blx	r3
    4e68:	e8fd900f 	ldm	sp!, {r0, r1, r2, r3, ip, pc}^
    4e6c:	00400a80 	.word	0x00400a80

00004e70 <cc_tx_empty_isr>:
    4e70:	e24ee004 	sub	lr, lr, #4
    4e74:	e92d501f 	push	{r0, r1, r2, r3, r4, ip, lr}
    4e78:	e3a03202 	mov	r3, #536870912	@ 0x20000000
    4e7c:	e3a02000 	mov	r2, #0
    4e80:	e5832000 	str	r2, [r3]
    4e84:	e59f1074 	ldr	r1, [pc, #116]	@ 4f00 <cc_tx_empty_isr+0x90>
    4e88:	e5932000 	ldr	r2, [r3]
    4e8c:	e3a0c00c 	mov	ip, #12
    4e90:	e5912000 	ldr	r2, [r1]
    4e94:	e5910004 	ldr	r0, [r1, #4]
    4e98:	e1520000 	cmp	r2, r0
    4e9c:	0a000013 	beq	4ef0 <cc_tx_empty_isr+0x80>
    4ea0:	e5930000 	ldr	r0, [r3]
    4ea4:	e3100101 	tst	r0, #1073741824	@ 0x40000000
    4ea8:	0a000003 	beq	4ebc <cc_tx_empty_isr+0x4c>
    4eac:	e3a0341f 	mov	r3, #520093696	@ 0x1f000000
    4eb0:	e3a02001 	mov	r2, #1
    4eb4:	e5832030 	str	r2, [r3, #48]	@ 0x30
    4eb8:	e8fd901f 	ldm	sp!, {r0, r1, r2, r3, r4, ip, pc}^
    4ebc:	e020129c 	mla	r0, ip, r2, r1
    4ec0:	e2822001 	add	r2, r2, #1
    4ec4:	e590e008 	ldr	lr, [r0, #8]
    4ec8:	e590400c 	ldr	r4, [r0, #12]
    4ecc:	e5900010 	ldr	r0, [r0, #16]
    4ed0:	e202200f 	and	r2, r2, #15
    4ed4:	e3100802 	tst	r0, #131072	@ 0x20000
    4ed8:	e5812000 	str	r2, [r1]
    4edc:	e5830000 	str	r0, [r3]
    4ee0:	15834004 	strne	r4, [r3, #4]
    4ee4:	e583e008 	str	lr, [r3, #8]
    4ee8:	e5932000 	ldr	r2, [r3]
    4eec:	eaffffe7 	b	4e90 <cc_tx_empty_isr+0x20>
    4ef0:	e3a0341f 	mov	r3, #520093696	@ 0x1f000000
    4ef4:	e3a02b02 	mov	r2, #2048	@ 0x800
    4ef8:	e5832014 	str	r2, [r3, #20]
    4efc:	eaffffea 	b	4eac <cc_tx_empty_isr+0x3c>
    4f00:	00400e08 	.word	0x00400e08

00004f04 <dma_done_isr>:
    4f04:	e24ee004 	sub	lr, lr, #4
    4f08:	e92d503f 	push	{r0, r1, r2, r3, r4, r5, ip, lr}
    4f0c:	e3a03008 	mov	r3, #8
    4f10:	e3a0c101 	mov	ip, #1073741824	@ 0x40000000
    4f14:	e58c3010 	str	r3, [ip, #16]
    4f18:	e59f306c 	ldr	r3, [pc, #108]	@ 4f8c <dma_done_isr+0x88>
    4f1c:	e3a0e014 	mov	lr, #20
    4f20:	e5930000 	ldr	r0, [r3]
    4f24:	e5934004 	ldr	r4, [r3, #4]
    4f28:	e022309e 	mla	r2, lr, r0, r3
    4f2c:	e2800001 	add	r0, r0, #1
    4f30:	e200000f 	and	r0, r0, #15
    4f34:	e1500004 	cmp	r0, r4
    4f38:	e5921008 	ldr	r1, [r2, #8]
    4f3c:	e5830000 	str	r0, [r3]
    4f40:	e592200c 	ldr	r2, [r2, #12]
    4f44:	0a000006 	beq	4f64 <dma_done_isr+0x60>
    4f48:	e023309e 	mla	r3, lr, r0, r3
    4f4c:	e593e014 	ldr	lr, [r3, #20]
    4f50:	e5930018 	ldr	r0, [r3, #24]
    4f54:	e5933010 	ldr	r3, [r3, #16]
    4f58:	e58c3004 	str	r3, [ip, #4]
    4f5c:	e58ce008 	str	lr, [ip, #8]
    4f60:	e58c000c 	str	r0, [ip, #12]
    4f64:	e59f3024 	ldr	r3, [pc, #36]	@ 4f90 <dma_done_isr+0x8c>
    4f68:	e5933008 	ldr	r3, [r3, #8]
    4f6c:	e3530000 	cmp	r3, #0
    4f70:	0a000001 	beq	4f7c <dma_done_isr+0x78>
    4f74:	e3a00001 	mov	r0, #1
    4f78:	ebffece9 	bl	324 <schedule>
    4f7c:	e3a0341f 	mov	r3, #520093696	@ 0x1f000000
    4f80:	e3a02001 	mov	r2, #1
    4f84:	e5832030 	str	r2, [r3, #48]	@ 0x30
    4f88:	e8fd903f 	ldm	sp!, {r0, r1, r2, r3, r4, r5, ip, pc}^
    4f8c:	00400ed0 	.word	0x00400ed0
    4f90:	00400a80 	.word	0x00400a80

00004f94 <dma_done_fiqsr>:
    4f94:	e24ee004 	sub	lr, lr, #4
    4f98:	e92d503f 	push	{r0, r1, r2, r3, r4, r5, ip, lr}
    4f9c:	e3a03008 	mov	r3, #8
    4fa0:	e3a0c101 	mov	ip, #1073741824	@ 0x40000000
    4fa4:	e58c3010 	str	r3, [ip, #16]
    4fa8:	e59f3054 	ldr	r3, [pc, #84]	@ 5004 <dma_done_fiqsr+0x70>
    4fac:	e3a0e014 	mov	lr, #20
    4fb0:	e5932000 	ldr	r2, [r3]
    4fb4:	e5934004 	ldr	r4, [r3, #4]
    4fb8:	e021329e 	mla	r1, lr, r2, r3
    4fbc:	e2822001 	add	r2, r2, #1
    4fc0:	e202200f 	and	r2, r2, #15
    4fc4:	e1520004 	cmp	r2, r4
    4fc8:	e5910008 	ldr	r0, [r1, #8]
    4fcc:	e5832000 	str	r2, [r3]
    4fd0:	e591100c 	ldr	r1, [r1, #12]
    4fd4:	0a000006 	beq	4ff4 <dma_done_fiqsr+0x60>
    4fd8:	e023329e 	mla	r3, lr, r2, r3
    4fdc:	e593e014 	ldr	lr, [r3, #20]
    4fe0:	e5932018 	ldr	r2, [r3, #24]
    4fe4:	e5933010 	ldr	r3, [r3, #16]
    4fe8:	e58c3004 	str	r3, [ip, #4]
    4fec:	e58ce008 	str	lr, [ip, #8]
    4ff0:	e58c200c 	str	r2, [ip, #12]
    4ff4:	e59f300c 	ldr	r3, [pc, #12]	@ 5008 <dma_done_fiqsr+0x74>
    4ff8:	e5933008 	ldr	r3, [r3, #8]
    4ffc:	e12fff33 	blx	r3
    5000:	e8fd903f 	ldm	sp!, {r0, r1, r2, r3, r4, r5, ip, pc}^
    5004:	00400ed0 	.word	0x00400ed0
    5008:	00400a80 	.word	0x00400a80

0000500c <timer1_isr>:
    500c:	e24ee004 	sub	lr, lr, #4
    5010:	e92d503f 	push	{r0, r1, r2, r3, r4, r5, ip, lr}
    5014:	e59f1108 	ldr	r1, [pc, #264]	@ 5124 <timer1_isr+0x118>
    5018:	e3a04001 	mov	r4, #1
    501c:	e3a03421 	mov	r3, #553648128	@ 0x21000000
    5020:	e583400c 	str	r4, [r3, #12]
    5024:	e5913000 	ldr	r3, [r1]
    5028:	e59fe0f8 	ldr	lr, [pc, #248]	@ 5128 <timer1_isr+0x11c>
    502c:	e0833004 	add	r3, r3, r4
    5030:	e5813000 	str	r3, [r1]
    5034:	e59f30f0 	ldr	r3, [pc, #240]	@ 512c <timer1_isr+0x120>
    5038:	e59fc0f0 	ldr	ip, [pc, #240]	@ 5130 <timer1_isr+0x124>
    503c:	e5932000 	ldr	r2, [r3]
    5040:	e59e3000 	ldr	r3, [lr]
    5044:	e59f00e8 	ldr	r0, [pc, #232]	@ 5134 <timer1_isr+0x128>
    5048:	e0433002 	sub	r3, r3, r2
    504c:	e3530000 	cmp	r3, #0
    5050:	e58e3000 	str	r3, [lr]
    5054:	ca00000c 	bgt	508c <timer1_isr+0x80>
    5058:	e59f50d8 	ldr	r5, [pc, #216]	@ 5138 <timer1_isr+0x12c>
    505c:	e283397a 	add	r3, r3, #1998848	@ 0x1e8000
    5060:	e5955038 	ldr	r5, [r5, #56]	@ 0x38
    5064:	e2833d12 	add	r3, r3, #1152	@ 0x480
    5068:	e0020295 	mul	r2, r5, r2
    506c:	e5804000 	str	r4, [r0]
    5070:	e3520000 	cmp	r2, #0
    5074:	e58c2000 	str	r2, [ip]
    5078:	b2622000 	rsblt	r2, r2, #0
    507c:	b58c2000 	strlt	r2, [ip]
    5080:	b3e02000 	mvnlt	r2, #0
    5084:	b5802000 	strlt	r2, [r0]
    5088:	e58e3000 	str	r3, [lr]
    508c:	e59fe0a8 	ldr	lr, [pc, #168]	@ 513c <timer1_isr+0x130>
    5090:	e59c3000 	ldr	r3, [ip]
    5094:	e59e2000 	ldr	r2, [lr]
    5098:	e5900000 	ldr	r0, [r0]
    509c:	e0822003 	add	r2, r2, r3
    50a0:	e1a038a2 	lsr	r3, r2, #17
    50a4:	e1a03883 	lsl	r3, r3, #17
    50a8:	e0422003 	sub	r2, r2, r3
    50ac:	e58e2000 	str	r2, [lr]
    50b0:	e59f2088 	ldr	r2, [pc, #136]	@ 5140 <timer1_isr+0x134>
    50b4:	e1a038c3 	asr	r3, r3, #17
    50b8:	e5922000 	ldr	r2, [r2]
    50bc:	e0232390 	mla	r3, r0, r3, r2
    50c0:	e3a02421 	mov	r2, #553648128	@ 0x21000000
    50c4:	e5823018 	str	r3, [r2, #24]
    50c8:	e59f3074 	ldr	r3, [pc, #116]	@ 5144 <timer1_isr+0x138>
    50cc:	e5933010 	ldr	r3, [r3, #16]
    50d0:	e3530000 	cmp	r3, #0
    50d4:	0a00000e 	beq	5114 <timer1_isr+0x108>
    50d8:	e59f3068 	ldr	r3, [pc, #104]	@ 5148 <timer1_isr+0x13c>
    50dc:	e593203c 	ldr	r2, [r3, #60]	@ 0x3c
    50e0:	e3520000 	cmp	r2, #0
    50e4:	0a000006 	beq	5104 <timer1_isr+0xf8>
    50e8:	e5932048 	ldr	r2, [r3, #72]	@ 0x48
    50ec:	e5930044 	ldr	r0, [r3, #68]	@ 0x44
    50f0:	e2822001 	add	r2, r2, #1
    50f4:	e5832048 	str	r2, [r3, #72]	@ 0x48
    50f8:	e5932040 	ldr	r2, [r3, #64]	@ 0x40
    50fc:	e1520000 	cmp	r2, r0
    5100:	85832044 	strhi	r2, [r3, #68]	@ 0x44
    5104:	e5911000 	ldr	r1, [r1]
    5108:	e3a02000 	mov	r2, #0
    510c:	e3a00002 	mov	r0, #2
    5110:	ebffec83 	bl	324 <schedule>
    5114:	e3a0341f 	mov	r3, #520093696	@ 0x1f000000
    5118:	e3a02001 	mov	r2, #1
    511c:	e5832030 	str	r2, [r3, #48]	@ 0x30
    5120:	e8fd903f 	ldm	sp!, {r0, r1, r2, r3, r4, r5, ip, pc}^
    5124:	00401048 	.word	0x00401048
    5128:	00401030 	.word	0x00401030
    512c:	00401044 	.word	0x00401044
    5130:	0040103c 	.word	0x0040103c
    5134:	00401038 	.word	0x00401038
    5138:	e5007f00 	.word	0xe5007f00
    513c:	00401034 	.word	0x00401034
    5140:	00401040 	.word	0x00401040
    5144:	00400a80 	.word	0x00400a80
    5148:	00400a34 	.word	0x00400a34

0000514c <timer1_fiqsr>:
    514c:	e24ee004 	sub	lr, lr, #4
    5150:	e92d500f 	push	{r0, r1, r2, r3, ip, lr}
    5154:	e3a02001 	mov	r2, #1
    5158:	e3a03421 	mov	r3, #553648128	@ 0x21000000
    515c:	e583200c 	str	r2, [r3, #12]
    5160:	e59f301c 	ldr	r3, [pc, #28]	@ 5184 <timer1_fiqsr+0x38>
    5164:	e3a01000 	mov	r1, #0
    5168:	e5930000 	ldr	r0, [r3]
    516c:	e0800002 	add	r0, r0, r2
    5170:	e5830000 	str	r0, [r3]
    5174:	e59f300c 	ldr	r3, [pc, #12]	@ 5188 <timer1_fiqsr+0x3c>
    5178:	e5933010 	ldr	r3, [r3, #16]
    517c:	e12fff33 	blx	r3
    5180:	e8fd900f 	ldm	sp!, {r0, r1, r2, r3, ip, pc}^
    5184:	00401048 	.word	0x00401048
    5188:	00400a80 	.word	0x00400a80

0000518c <soft_int_isr>:
    518c:	e24ee004 	sub	lr, lr, #4
    5190:	e92d500f 	push	{r0, r1, r2, r3, ip, lr}
    5194:	e59f0054 	ldr	r0, [pc, #84]	@ 51f0 <soft_int_isr+0x64>
    5198:	e5903000 	ldr	r3, [r0]
    519c:	e2833001 	add	r3, r3, #1
    51a0:	e7901183 	ldr	r1, [r0, r3, lsl #3]
    51a4:	e0802183 	add	r2, r0, r3, lsl #3
    51a8:	e2033003 	and	r3, r3, #3
    51ac:	e5803000 	str	r3, [r0]
    51b0:	e5900004 	ldr	r0, [r0, #4]
    51b4:	e5922004 	ldr	r2, [r2, #4]
    51b8:	e1530000 	cmp	r3, r0
    51bc:	03a0341f 	moveq	r3, #520093696	@ 0x1f000000
    51c0:	03a00002 	moveq	r0, #2
    51c4:	0583001c 	streq	r0, [r3, #28]
    51c8:	e59f3024 	ldr	r3, [pc, #36]	@ 51f4 <soft_int_isr+0x68>
    51cc:	e5933020 	ldr	r3, [r3, #32]
    51d0:	e3530000 	cmp	r3, #0
    51d4:	0a000001 	beq	51e0 <soft_int_isr+0x54>
    51d8:	e3a00004 	mov	r0, #4
    51dc:	ebffec50 	bl	324 <schedule>
    51e0:	e3a0341f 	mov	r3, #520093696	@ 0x1f000000
    51e4:	e3a02001 	mov	r2, #1
    51e8:	e5832030 	str	r2, [r3, #48]	@ 0x30
    51ec:	e8fd900f 	ldm	sp!, {r0, r1, r2, r3, ip, pc}^
    51f0:	00400de0 	.word	0x00400de0
    51f4:	00400a80 	.word	0x00400a80

000051f8 <soft_int_fiqsr>:
    51f8:	e24ee004 	sub	lr, lr, #4
    51fc:	e92d500f 	push	{r0, r1, r2, r3, ip, lr}
    5200:	e59f203c 	ldr	r2, [pc, #60]	@ 5244 <soft_int_fiqsr+0x4c>
    5204:	e5923000 	ldr	r3, [r2]
    5208:	e2833001 	add	r3, r3, #1
    520c:	e7920183 	ldr	r0, [r2, r3, lsl #3]
    5210:	e0821183 	add	r1, r2, r3, lsl #3
    5214:	e2033003 	and	r3, r3, #3
    5218:	e5823000 	str	r3, [r2]
    521c:	e5922004 	ldr	r2, [r2, #4]
    5220:	e5911004 	ldr	r1, [r1, #4]
    5224:	e1530002 	cmp	r3, r2
    5228:	03a0341f 	moveq	r3, #520093696	@ 0x1f000000
    522c:	03a02002 	moveq	r2, #2
    5230:	0583201c 	streq	r2, [r3, #28]
    5234:	e59f300c 	ldr	r3, [pc, #12]	@ 5248 <soft_int_fiqsr+0x50>
    5238:	e5933020 	ldr	r3, [r3, #32]
    523c:	e12fff33 	blx	r3
    5240:	e8fd900f 	ldm	sp!, {r0, r1, r2, r3, ip, pc}^
    5244:	00400de0 	.word	0x00400de0
    5248:	00400a80 	.word	0x00400a80

0000524c <sark_fiqsr>:
    524c:	e24ee004 	sub	lr, lr, #4
    5250:	e92d500f 	push	{r0, r1, r2, r3, ip, lr}
    5254:	e3a00000 	mov	r0, #0
    5258:	fafff9cf 	blx	399c <sark_int>
    525c:	e8fd900f 	ldm	sp!, {r0, r1, r2, r3, ip, pc}^

00005260 <__gnu_thumb1_case_sqi>:
    5260:	b402      	push	{r1}
    5262:	4671      	mov	r1, lr
    5264:	0849      	lsrs	r1, r1, #1
    5266:	0049      	lsls	r1, r1, #1
    5268:	5609      	ldrsb	r1, [r1, r0]
    526a:	0049      	lsls	r1, r1, #1
    526c:	448e      	add	lr, r1
    526e:	bc02      	pop	{r1}
    5270:	4770      	bx	lr
    5272:	46c0      	nop			@ (mov r8, r8)

00005274 <__gnu_thumb1_case_shi>:
    5274:	b403      	push	{r0, r1}
    5276:	4671      	mov	r1, lr
    5278:	0849      	lsrs	r1, r1, #1
    527a:	0040      	lsls	r0, r0, #1
    527c:	0049      	lsls	r1, r1, #1
    527e:	5e09      	ldrsh	r1, [r1, r0]
    5280:	0049      	lsls	r1, r1, #1
    5282:	448e      	add	lr, r1
    5284:	bc03      	pop	{r0, r1}
    5286:	4770      	bx	lr

00005288 <__divsi3>:
    5288:	e3510000 	cmp	r1, #0
    528c:	0a000043 	beq	53a0 <.divsi3_skip_div0_test+0x110>

00005290 <.divsi3_skip_div0_test>:
    5290:	e020c001 	eor	ip, r0, r1
    5294:	42611000 	rsbmi	r1, r1, #0
    5298:	e2512001 	subs	r2, r1, #1
    529c:	0a000027 	beq	5340 <.divsi3_skip_div0_test+0xb0>
    52a0:	e1b03000 	movs	r3, r0
    52a4:	42603000 	rsbmi	r3, r0, #0
    52a8:	e1530001 	cmp	r3, r1
    52ac:	9a000026 	bls	534c <.divsi3_skip_div0_test+0xbc>
    52b0:	e1110002 	tst	r1, r2
    52b4:	0a000028 	beq	535c <.divsi3_skip_div0_test+0xcc>
    52b8:	e311020e 	tst	r1, #-536870912	@ 0xe0000000
    52bc:	01a01181 	lsleq	r1, r1, #3
    52c0:	03a02008 	moveq	r2, #8
    52c4:	13a02001 	movne	r2, #1
    52c8:	e3510201 	cmp	r1, #268435456	@ 0x10000000
    52cc:	31510003 	cmpcc	r1, r3
    52d0:	31a01201 	lslcc	r1, r1, #4
    52d4:	31a02202 	lslcc	r2, r2, #4
    52d8:	3afffffa 	bcc	52c8 <.divsi3_skip_div0_test+0x38>
    52dc:	e3510102 	cmp	r1, #-2147483648	@ 0x80000000
    52e0:	31510003 	cmpcc	r1, r3
    52e4:	31a01081 	lslcc	r1, r1, #1
    52e8:	31a02082 	lslcc	r2, r2, #1
    52ec:	3afffffa 	bcc	52dc <.divsi3_skip_div0_test+0x4c>
    52f0:	e3a00000 	mov	r0, #0
    52f4:	e1530001 	cmp	r3, r1
    52f8:	20433001 	subcs	r3, r3, r1
    52fc:	21800002 	orrcs	r0, r0, r2
    5300:	e15300a1 	cmp	r3, r1, lsr #1
    5304:	204330a1 	subcs	r3, r3, r1, lsr #1
    5308:	218000a2 	orrcs	r0, r0, r2, lsr #1
    530c:	e1530121 	cmp	r3, r1, lsr #2
    5310:	20433121 	subcs	r3, r3, r1, lsr #2
    5314:	21800122 	orrcs	r0, r0, r2, lsr #2
    5318:	e15301a1 	cmp	r3, r1, lsr #3
    531c:	204331a1 	subcs	r3, r3, r1, lsr #3
    5320:	218001a2 	orrcs	r0, r0, r2, lsr #3
    5324:	e3530000 	cmp	r3, #0
    5328:	11b02222 	lsrsne	r2, r2, #4
    532c:	11a01221 	lsrne	r1, r1, #4
    5330:	1affffef 	bne	52f4 <.divsi3_skip_div0_test+0x64>
    5334:	e35c0000 	cmp	ip, #0
    5338:	42600000 	rsbmi	r0, r0, #0
    533c:	e12fff1e 	bx	lr
    5340:	e13c0000 	teq	ip, r0
    5344:	42600000 	rsbmi	r0, r0, #0
    5348:	e12fff1e 	bx	lr
    534c:	33a00000 	movcc	r0, #0
    5350:	01a00fcc 	asreq	r0, ip, #31
    5354:	03800001 	orreq	r0, r0, #1
    5358:	e12fff1e 	bx	lr
    535c:	e3510801 	cmp	r1, #65536	@ 0x10000
    5360:	21a01821 	lsrcs	r1, r1, #16
    5364:	23a02010 	movcs	r2, #16
    5368:	33a02000 	movcc	r2, #0
    536c:	e3510c01 	cmp	r1, #256	@ 0x100
    5370:	21a01421 	lsrcs	r1, r1, #8
    5374:	22822008 	addcs	r2, r2, #8
    5378:	e3510010 	cmp	r1, #16
    537c:	21a01221 	lsrcs	r1, r1, #4
    5380:	22822004 	addcs	r2, r2, #4
    5384:	e3510004 	cmp	r1, #4
    5388:	82822003 	addhi	r2, r2, #3
    538c:	908220a1 	addls	r2, r2, r1, lsr #1
    5390:	e35c0000 	cmp	ip, #0
    5394:	e1a00233 	lsr	r0, r3, r2
    5398:	42600000 	rsbmi	r0, r0, #0
    539c:	e12fff1e 	bx	lr
    53a0:	e3500000 	cmp	r0, #0
    53a4:	c3e00102 	mvngt	r0, #-2147483648	@ 0x80000000
    53a8:	b3a00102 	movlt	r0, #-2147483648	@ 0x80000000
    53ac:	eafffc60 	b	4534 <__aeabi_idiv0>

000053b0 <__aeabi_idivmod>:
    53b0:	e3510000 	cmp	r1, #0
    53b4:	0afffff9 	beq	53a0 <.divsi3_skip_div0_test+0x110>
    53b8:	e92d4003 	push	{r0, r1, lr}
    53bc:	ebffffb3 	bl	5290 <.divsi3_skip_div0_test>
    53c0:	e8bd4006 	pop	{r1, r2, lr}
    53c4:	e0030092 	mul	r3, r2, r0
    53c8:	e0411003 	sub	r1, r1, r3
    53cc:	e12fff1e 	bx	lr

000053d0 <memcpy>:
    53d0:	e352000f 	cmp	r2, #15
    53d4:	9a00000c 	bls	540c <memcpy+0x3c>
    53d8:	e1803001 	orr	r3, r0, r1
    53dc:	e3130003 	tst	r3, #3
    53e0:	11a03000 	movne	r3, r0
    53e4:	12422001 	subne	r2, r2, #1
    53e8:	0a00000c 	beq	5420 <memcpy+0x50>
    53ec:	e2822001 	add	r2, r2, #1
    53f0:	e2433001 	sub	r3, r3, #1
    53f4:	e0812002 	add	r2, r1, r2
    53f8:	e4d1c001 	ldrb	ip, [r1], #1
    53fc:	e1510002 	cmp	r1, r2
    5400:	e5e3c001 	strb	ip, [r3, #1]!
    5404:	1afffffb 	bne	53f8 <memcpy+0x28>
    5408:	e12fff1e 	bx	lr
    540c:	e3520000 	cmp	r2, #0
    5410:	e1a03000 	mov	r3, r0
    5414:	e2422001 	sub	r2, r2, #1
    5418:	1afffff3 	bne	53ec <memcpy+0x1c>
    541c:	e12fff1e 	bx	lr
    5420:	e1a0c000 	mov	ip, r0
    5424:	e92d41f0 	push	{r4, r5, r6, r7, r8, lr}
    5428:	e2427010 	sub	r7, r2, #16
    542c:	e3c7700f 	bic	r7, r7, #15
    5430:	e2877010 	add	r7, r7, #16
    5434:	e281e010 	add	lr, r1, #16
    5438:	e0803007 	add	r3, r0, r7
    543c:	e51e8010 	ldr	r8, [lr, #-16]
    5440:	e48c8010 	str	r8, [ip], #16
    5444:	e51e600c 	ldr	r6, [lr, #-12]
    5448:	e51e5008 	ldr	r5, [lr, #-8]
    544c:	e51e4004 	ldr	r4, [lr, #-4]
    5450:	e15c0003 	cmp	ip, r3
    5454:	e50c600c 	str	r6, [ip, #-12]
    5458:	e50c5008 	str	r5, [ip, #-8]
    545c:	e50c4004 	str	r4, [ip, #-4]
    5460:	e28ee010 	add	lr, lr, #16
    5464:	1afffff4 	bne	543c <memcpy+0x6c>
    5468:	e312000c 	tst	r2, #12
    546c:	e202c00f 	and	ip, r2, #15
    5470:	01a0200c 	moveq	r2, ip
    5474:	e0811007 	add	r1, r1, r7
    5478:	0a00000d 	beq	54b4 <memcpy+0xe4>
    547c:	e1a04001 	mov	r4, r1
    5480:	e24cc004 	sub	ip, ip, #4
    5484:	e3cc6003 	bic	r6, ip, #3
    5488:	e1a0e12c 	lsr	lr, ip, #2
    548c:	e0836006 	add	r6, r3, r6
    5490:	e243c004 	sub	ip, r3, #4
    5494:	e4945004 	ldr	r5, [r4], #4
    5498:	e5ac5004 	str	r5, [ip, #4]!
    549c:	e15c0006 	cmp	ip, r6
    54a0:	1afffffb 	bne	5494 <memcpy+0xc4>
    54a4:	e28ec001 	add	ip, lr, #1
    54a8:	e2022003 	and	r2, r2, #3
    54ac:	e083310c 	add	r3, r3, ip, lsl #2
    54b0:	e081110c 	add	r1, r1, ip, lsl #2
    54b4:	e3520000 	cmp	r2, #0
    54b8:	e2422001 	sub	r2, r2, #1
    54bc:	12822001 	addne	r2, r2, #1
    54c0:	12433001 	subne	r3, r3, #1
    54c4:	10812002 	addne	r2, r1, r2
    54c8:	0a000003 	beq	54dc <memcpy+0x10c>
    54cc:	e4d1c001 	ldrb	ip, [r1], #1
    54d0:	e1510002 	cmp	r1, r2
    54d4:	e5e3c001 	strb	ip, [r3, #1]!
    54d8:	1afffffb 	bne	54cc <memcpy+0xfc>
    54dc:	e8bd41f0 	pop	{r4, r5, r6, r7, r8, lr}
    54e0:	e12fff1e 	bx	lr

000054e4 <build_date>:
    54e4:	69f3e45d                                ]..i

000054e8 <build_name>:
    54e8:	61726f63 65725f6c 53006665 2f4b5241     coral_reef.SARK/
    54f8:	4e697053 656b614e 2e340072 00302e30     SpiNNaker.4.0.0.
    5508:	615b0909 645f6970 67756265 5452205d     ..[api_debug] RT
    5518:	636d2052 20202020 63617020 7374656b     R mc     packets
    5528:	6425203a 0909000a 6970615b 6265645f     : %d....[api_deb
    5538:	205d6775 20525452 20647064 7020636d     ug] RTR dpd mc p
    5548:	656b6361 203a7374 000a6425 615b0909     ackets: %d....[a
    5558:	645f6970 67756265 5349205d 68742052     pi_debug] ISR th
    5568:	6e776f72 63617020 7374656b 6425203a     rown packets: %d
    5578:	0909000a 6970615b 6265645f 205d6775     ....[api_debug] 
    5588:	20525349 6f726874 46206e77 61702052     ISR thrown FR pa
    5598:	74656b63 25203a73 09000a64 70615b09     ckets: %d....[ap
    55a8:	65645f69 5d677562 414d4420 72756220     i_debug] DMA bur
    55b8:	3a737473 64252020 0909000a 6970615b     sts:  %d....[api
    55c8:	7261775f 77205d6e 696e7261 203a676e     _warn] warning: 
    55d8:	6b736174 65757120 66206575 206c6c75     task queue full 
    55e8:	29752528 0909000a 6970615b 7261775f     (%u)....[api_war
    55f8:	77205d6e 696e7261 203a676e 20414d44     n] warning: DMA 
    5608:	75657571 75662065 28206c6c 0a297525     queue full (%u).
    5618:	5b090900 5f697061 6e726177 6177205d     ...[api_warn] wa
    5628:	6e696e72 70203a67 656b6361 75712074     rning: packet qu
    5638:	20657565 6c6c7566 75252820               eue full (%u)..

00005647 <hex>:
    5647:	33323130 37363534 62613938 66656463     0123456789abcdef
	...

00005658 <VIC_EVENTS>:
    5658:	01000000 00001000 00000010 00000000     ................
    5668:	00000002 01000000 08000000 08000000     ................
