
build/gnu/coral_reef.elf:     file format elf32-littlearm
build/gnu/coral_reef.elf
architecture: armv5te, flags 0x00000112:
EXEC_P, HAS_SYMS, D_PAGED
start address 0x00000000

Program Header:
    LOAD off    0x00001000 vaddr 0x00000000 paddr 0x00000000 align 2**12
         filesz 0x00007a80 memsz 0x00007a80 flags r-x
    LOAD off    0x00009000 vaddr 0x00400000 paddr 0x00400000 align 2**12
         filesz 0x00000010 memsz 0x000011d1 flags rw-
private flags = 0x5000200: [Version5 EABI] [soft-float ABI]

Sections:
Idx Name          Size      VMA       LMA       File off  Algn
  0 RO_DATA       00007a80  00000000  00000000  00001000  2**2
                  CONTENTS, ALLOC, LOAD, READONLY, CODE
  1 RW_DATA       00000010  00400000  00400000  00009000  2**2
                  CONTENTS, ALLOC, LOAD, DATA
  2 ZI_DATA       000011c1  00400010  00400010  00009010  2**2
                  ALLOC
  3 .debug_info   0001a02f  00000000  00000000  00009010  2**0
                  CONTENTS, READONLY, DEBUGGING, OCTETS
  4 .debug_abbrev 00003eda  00000000  00000000  0002303f  2**0
                  CONTENTS, READONLY, DEBUGGING, OCTETS
  5 .debug_aranges 00000798  00000000  00000000  00026f20  2**3
                  CONTENTS, READONLY, DEBUGGING, OCTETS
  6 .debug_line   00007414  00000000  00000000  000276b8  2**0
                  CONTENTS, READONLY, DEBUGGING, OCTETS
  7 .debug_str    00003777  00000000  00000000  0002eacc  2**0
                  CONTENTS, READONLY, DEBUGGING, OCTETS
  8 .comment      00000026  00000000  00000000  00032243  2**0
                  CONTENTS, READONLY
  9 .ARM.attributes 00000029  00000000  00000000  00032269  2**0
                  CONTENTS, READONLY
 10 .debug_frame  000021dc  00000000  00000000  00032294  2**2
                  CONTENTS, READONLY, DEBUGGING, OCTETS
 11 .debug_rnglists 00000774  00000000  00000000  00034470  2**0
                  CONTENTS, READONLY, DEBUGGING, OCTETS
 12 .debug_loclists 0000456d  00000000  00000000  00034be4  2**0
                  CONTENTS, READONLY, DEBUGGING, OCTETS
 13 .debug_line_str 0000007e  00000000  00000000  00039151  2**0
                  CONTENTS, READONLY, DEBUGGING, OCTETS
SYMBOL TABLE:
00000000 l    d  RO_DATA	00000000 RO_DATA
00400000 l    d  RW_DATA	00000000 RW_DATA
00400010 l    d  ZI_DATA	00000000 ZI_DATA
00000000 l    d  .debug_info	00000000 .debug_info
00000000 l    d  .debug_abbrev	00000000 .debug_abbrev
00000000 l    d  .debug_aranges	00000000 .debug_aranges
00000000 l    d  .debug_line	00000000 .debug_line
00000000 l    d  .debug_str	00000000 .debug_str
00000000 l    d  .comment	00000000 .comment
00000000 l    d  .ARM.attributes	00000000 .ARM.attributes
00000000 l    d  .debug_frame	00000000 .debug_frame
00000000 l    d  .debug_rnglists	00000000 .debug_rnglists
00000000 l    d  .debug_loclists	00000000 .debug_loclists
00000000 l    d  .debug_line_str	00000000 .debug_line_str
00000000 l    df *ABS*	00000000 sark_alib.o
00000001 l       *ABS*	00000000 GNU
00000000 l       *ABS*	00000000 NULL
80000000 l       *ABS*	00000000 BIT_31
00000001 l       *ABS*	00000000 BUF_WRITE
00000012 l       *ABS*	00000000 NUM_CPUS
00000006 l       *ABS*	00000000 NUM_LINKS
00000000 l       *ABS*	00000000 ITCM_BASE
00008000 l       *ABS*	00000000 ITCM_SIZE
00008000 l       *ABS*	00000000 ITCM_TOP
00400000 l       *ABS*	00000000 DTCM_BASE
00010000 l       *ABS*	00000000 DTCM_SIZE
00410000 l       *ABS*	00000000 DTCM_TOP
70000000 l       *ABS*	00000000 SDRAM_BASE_UNBUF
60000000 l       *ABS*	00000000 SDRAM_BASE_BUF
60000000 l       *ABS*	00000000 SDRAM_BASE
08000000 l       *ABS*	00000000 SDRAM_SIZE
68000000 l       *ABS*	00000000 SDRAM_TOP
f5000000 l       *ABS*	00000000 SYSRAM_BASE_UNBUF
e5000000 l       *ABS*	00000000 SYSRAM_BASE_BUF
e5000000 l       *ABS*	00000000 SYSRAM_BASE
00008000 l       *ABS*	00000000 SYSRAM_SIZE
e5008000 l       *ABS*	00000000 SYSRAM_TOP
f6000000 l       *ABS*	00000000 ROM_BASE
00008000 l       *ABS*	00000000 ROM_SIZE
f6008000 l       *ABS*	00000000 ROM_TOP
10000000 l       *ABS*	00000000 CC_BASE_UNBUF
20000000 l       *ABS*	00000000 CC_BASE_BUF
20000000 l       *ABS*	00000000 CC_BASE
00000000 l       *ABS*	00000000 CC_TCR
00000004 l       *ABS*	00000000 CC_TXDATA
00000008 l       *ABS*	00000000 CC_TXKEY
0000000c l       *ABS*	00000000 CC_RSR
00000010 l       *ABS*	00000000 CC_RXDATA
00000014 l       *ABS*	00000000 CC_RXKEY
00000018 l       *ABS*	00000000 CC_SAR
0000001c l       *ABS*	00000000 CC_TEST
11000000 l       *ABS*	00000000 TIMER_BASE_UNBUF
21000000 l       *ABS*	00000000 TIMER_BASE_BUF
21000000 l       *ABS*	00000000 TIMER_BASE
00000020 l       *ABS*	00000000 TIMER_OFFSET
21000000 l       *ABS*	00000000 TIMER1_BASE
21000020 l       *ABS*	00000000 TIMER2_BASE
00000000 l       *ABS*	00000000 TC_LOAD
00000004 l       *ABS*	00000000 TC_COUNT
00000008 l       *ABS*	00000000 TC_CONTROL
0000000c l       *ABS*	00000000 TC_INT_CLR
00000010 l       *ABS*	00000000 TC_RAW_INT
00000014 l       *ABS*	00000000 TC_MASK_INT
00000018 l       *ABS*	00000000 TC_BG_LOAD
00000000 l       *ABS*	00000000 T1_LOAD
00000004 l       *ABS*	00000000 T1_COUNT
00000008 l       *ABS*	00000000 T1_CONTROL
0000000c l       *ABS*	00000000 T1_INT_CLR
00000010 l       *ABS*	00000000 T1_RAW_INT
00000014 l       *ABS*	00000000 T1_MASK_INT
00000018 l       *ABS*	00000000 T1_BG_LOAD
00000020 l       *ABS*	00000000 T2_LOAD
00000024 l       *ABS*	00000000 T2_COUNT
00000028 l       *ABS*	00000000 T2_CONTROL
0000002c l       *ABS*	00000000 T2_INT_CLR
00000030 l       *ABS*	00000000 T2_RAW_INT
00000034 l       *ABS*	00000000 T2_MASK_INT
00000038 l       *ABS*	00000000 T2_BG_LOAD
1f000000 l       *ABS*	00000000 VIC_BASE_UNBUF
2f000000 l       *ABS*	00000000 VIC_BASE_BUF
2f000000 l       *ABS*	00000000 VIC_BASE
00000000 l       *ABS*	00000000 VIC_IRQST
00000004 l       *ABS*	00000000 VIC_FIQST
00000008 l       *ABS*	00000000 VIC_RAW
0000000c l       *ABS*	00000000 VIC_SELECT
00000010 l       *ABS*	00000000 VIC_ENABLE
00000014 l       *ABS*	00000000 VIC_DISABLE
00000018 l       *ABS*	00000000 VIC_SOFT_SET
0000001c l       *ABS*	00000000 VIC_SOFT_CLR
00000020 l       *ABS*	00000000 VIC_PROTECT
00000030 l       *ABS*	00000000 VIC_VADDR
00000034 l       *ABS*	00000000 VIC_DEFADDR
00000100 l       *ABS*	00000000 VIC_ADDR
00000100 l       *ABS*	00000000 VIC_ADDR0
00000104 l       *ABS*	00000000 VIC_ADDR1
00000108 l       *ABS*	00000000 VIC_ADDR2
0000010c l       *ABS*	00000000 VIC_ADDR3
00000110 l       *ABS*	00000000 VIC_ADDR4
00000114 l       *ABS*	00000000 VIC_ADDR5
00000118 l       *ABS*	00000000 VIC_ADDR6
0000011c l       *ABS*	00000000 VIC_ADDR7
00000120 l       *ABS*	00000000 VIC_ADDR8
00000124 l       *ABS*	00000000 VIC_ADDR9
00000128 l       *ABS*	00000000 VIC_ADDR10
0000012c l       *ABS*	00000000 VIC_ADDR11
00000130 l       *ABS*	00000000 VIC_ADDR12
00000134 l       *ABS*	00000000 VIC_ADDR13
00000138 l       *ABS*	00000000 VIC_ADDR14
0000013c l       *ABS*	00000000 VIC_ADDR15
00000200 l       *ABS*	00000000 VIC_CNTL
00000200 l       *ABS*	00000000 VIC_CNTL0
00000204 l       *ABS*	00000000 VIC_CNTL1
00000208 l       *ABS*	00000000 VIC_CNTL2
0000020c l       *ABS*	00000000 VIC_CNTL3
00000210 l       *ABS*	00000000 VIC_CNTL4
00000214 l       *ABS*	00000000 VIC_CNTL5
00000218 l       *ABS*	00000000 VIC_CNTL6
0000021c l       *ABS*	00000000 VIC_CNTL7
00000220 l       *ABS*	00000000 VIC_CNTL8
00000224 l       *ABS*	00000000 VIC_CNTL9
00000228 l       *ABS*	00000000 VIC_CNTL10
0000022c l       *ABS*	00000000 VIC_CNTL11
00000230 l       *ABS*	00000000 VIC_CNTL12
00000234 l       *ABS*	00000000 VIC_CNTL13
00000238 l       *ABS*	00000000 VIC_CNTL14
0000023c l       *ABS*	00000000 VIC_CNTL15
00000000 l       *ABS*	00000000 WDOG_INT
00000001 l       *ABS*	00000000 SOFTWARE_INT
00000002 l       *ABS*	00000000 COMM_RX_INT
00000003 l       *ABS*	00000000 COMM_TX_INT
00000004 l       *ABS*	00000000 TIMER1_INT
00000005 l       *ABS*	00000000 TIMER2_INT
00000006 l       *ABS*	00000000 CC_RDY_INT
00000007 l       *ABS*	00000000 CC_RPE_INT
00000008 l       *ABS*	00000000 CC_RFE_INT
00000009 l       *ABS*	00000000 CC_TFL_INT
0000000a l       *ABS*	00000000 CC_TOV_INT
0000000b l       *ABS*	00000000 CC_TMT_INT
0000000c l       *ABS*	00000000 DMA_DONE_INT
0000000d l       *ABS*	00000000 DMA_ERR_INT
0000000e l       *ABS*	00000000 DMA_TO_INT
0000000f l       *ABS*	00000000 RTR_DIAG_INT
00000010 l       *ABS*	00000000 RTR_DUMP_INT
00000011 l       *ABS*	00000000 RTR_ERR_INT
00000012 l       *ABS*	00000000 CPU_INT
00000013 l       *ABS*	00000000 ETH_TX_INT
00000014 l       *ABS*	00000000 ETH_RX_INT
00000015 l       *ABS*	00000000 ETH_PHY_INT
00000016 l       *ABS*	00000000 SLOW_CLK_INT
00000017 l       *ABS*	00000000 CC_TNF_INT
00000018 l       *ABS*	00000000 CC_MC_INT
00000019 l       *ABS*	00000000 CC_P2P_INT
0000001a l       *ABS*	00000000 CC_NN_INT
0000001b l       *ABS*	00000000 CC_FR_INT
0000001c l       *ABS*	00000000 INT0_INT
0000001d l       *ABS*	00000000 INT1_INT
0000001e l       *ABS*	00000000 GPIO8_INT
0000001f l       *ABS*	00000000 GPIO9_INT
30000000 l       *ABS*	00000000 DMA_BASE_UNBUF
40000000 l       *ABS*	00000000 DMA_BASE_BUF
40000000 l       *ABS*	00000000 DMA_BASE
00000004 l       *ABS*	00000000 DMA_ADRS
00000008 l       *ABS*	00000000 DMA_ADRT
0000000c l       *ABS*	00000000 DMA_DESC
00000010 l       *ABS*	00000000 DMA_CTRL
00000014 l       *ABS*	00000000 DMA_STAT
00000018 l       *ABS*	00000000 DMA_GCTL
0000001c l       *ABS*	00000000 DMA_CRCC
00000020 l       *ABS*	00000000 DMA_CRCR
00000024 l       *ABS*	00000000 DMA_TMTV
00000028 l       *ABS*	00000000 DMA_SCTL
00000040 l       *ABS*	00000000 DMA_STAT0
00000044 l       *ABS*	00000000 DMA_STAT1
00000048 l       *ABS*	00000000 DMA_STAT2
0000004c l       *ABS*	00000000 DMA_STAT3
00000050 l       *ABS*	00000000 DMA_STAT4
00000054 l       *ABS*	00000000 DMA_STAT5
00000058 l       *ABS*	00000000 DMA_STAT6
0000005c l       *ABS*	00000000 DMA_STAT7
00000104 l       *ABS*	00000000 DMA_AD2S
00000108 l       *ABS*	00000000 DMA_AD2T
0000010c l       *ABS*	00000000 DMA_DES2
00000180 l       *ABS*	00000000 DMA_CRCT
f0000000 l       *ABS*	00000000 PL340_BASE_UNBUF
e0000000 l       *ABS*	00000000 PL340_BASE_BUF
e0000000 l       *ABS*	00000000 PL340_BASE
00000000 l       *ABS*	00000000 MC_STAT
00000004 l       *ABS*	00000000 MC_CMD
00000008 l       *ABS*	00000000 MC_DIRC
0000000c l       *ABS*	00000000 MC_MCFG
00000010 l       *ABS*	00000000 MC_REFP
00000014 l       *ABS*	00000000 MC_CASL
00000018 l       *ABS*	00000000 MC_DQSS
0000001c l       *ABS*	00000000 MC_MRD
00000020 l       *ABS*	00000000 MC_RAS
00000024 l       *ABS*	00000000 MC_RC
00000028 l       *ABS*	00000000 MC_RCD
0000002c l       *ABS*	00000000 MC_RFC
00000030 l       *ABS*	00000000 MC_RP
00000034 l       *ABS*	00000000 MC_RRD
00000038 l       *ABS*	00000000 MC_WR
0000003c l       *ABS*	00000000 MC_WTR
00000040 l       *ABS*	00000000 MC_XP
00000044 l       *ABS*	00000000 MC_XSR
00000048 l       *ABS*	00000000 MC_ESR
0000004c l       *ABS*	00000000 MC_MCFG2
00000050 l       *ABS*	00000000 MC_MCFG3
00000100 l       *ABS*	00000000 MC_QOS0
00000104 l       *ABS*	00000000 MC_QOS1
00000108 l       *ABS*	00000000 MC_QOS2
0000010c l       *ABS*	00000000 MC_QOS3
00000110 l       *ABS*	00000000 MC_QOS4
00000114 l       *ABS*	00000000 MC_QOS5
00000118 l       *ABS*	00000000 MC_QOS6
0000011c l       *ABS*	00000000 MC_QOS7
00000120 l       *ABS*	00000000 MC_QOS8
00000124 l       *ABS*	00000000 MC_QOS9
00000128 l       *ABS*	00000000 MC_QOS10
0000012c l       *ABS*	00000000 MC_QOS11
00000130 l       *ABS*	00000000 MC_QOS12
00000134 l       *ABS*	00000000 MC_QOS13
00000138 l       *ABS*	00000000 MC_QOS14
0000013c l       *ABS*	00000000 MC_QOS15
00000200 l       *ABS*	00000000 MC_CCFG0
00000204 l       *ABS*	00000000 MC_CCFG1
00000208 l       *ABS*	00000000 MC_CCFG2
0000020c l       *ABS*	00000000 MC_CCFG3
00000300 l       *ABS*	00000000 DLL_STATUS
00000304 l       *ABS*	00000000 DLL_CONFIG0
00000308 l       *ABS*	00000000 DLL_CONFIG1
f1000000 l       *ABS*	00000000 RTR_BASE_UNBUF
e1000000 l       *ABS*	00000000 RTR_BASE_BUF
e1000000 l       *ABS*	00000000 RTR_BASE
00000000 l       *ABS*	00000000 RTR_CONTROL
00000004 l       *ABS*	00000000 RTR_STATUS
00000008 l       *ABS*	00000000 RTR_EHDR
0000000c l       *ABS*	00000000 RTR_EKEY
00000010 l       *ABS*	00000000 RTR_EDAT
00000014 l       *ABS*	00000000 RTR_ESTAT
00000018 l       *ABS*	00000000 RTR_DHDR
0000001c l       *ABS*	00000000 RTR_DKEY
00000020 l       *ABS*	00000000 RTR_DDAT
00000024 l       *ABS*	00000000 RTR_DLINK
00000028 l       *ABS*	00000000 RTR_DSTAT
0000002c l       *ABS*	00000000 RTR_DGEN
00000084 l       *ABS*	00000000 RTR_FR
00000200 l       *ABS*	00000000 RTR_DGF0
00000204 l       *ABS*	00000000 RTR_DGF1
00000208 l       *ABS*	00000000 RTR_DGF2
0000020c l       *ABS*	00000000 RTR_DGF3
00000210 l       *ABS*	00000000 RTR_DGF4
00000214 l       *ABS*	00000000 RTR_DGF5
00000218 l       *ABS*	00000000 RTR_DGF6
0000021c l       *ABS*	00000000 RTR_DGF7
00000220 l       *ABS*	00000000 RTR_DGF8
00000224 l       *ABS*	00000000 RTR_DGF9
00000228 l       *ABS*	00000000 RTR_DGF10
0000022c l       *ABS*	00000000 RTR_DGF11
00000230 l       *ABS*	00000000 RTR_DGF12
00000234 l       *ABS*	00000000 RTR_DGF13
00000238 l       *ABS*	00000000 RTR_DGF14
0000023c l       *ABS*	00000000 RTR_DGF15
00000300 l       *ABS*	00000000 RTR_DGC0
00000304 l       *ABS*	00000000 RTR_DGC1
00000308 l       *ABS*	00000000 RTR_DGC2
0000030c l       *ABS*	00000000 RTR_DGC3
00000310 l       *ABS*	00000000 RTR_DGC4
00000314 l       *ABS*	00000000 RTR_DGC5
00000318 l       *ABS*	00000000 RTR_DGC6
0000031c l       *ABS*	00000000 RTR_DGC7
00000320 l       *ABS*	00000000 RTR_DGC8
00000324 l       *ABS*	00000000 RTR_DGC9
00000328 l       *ABS*	00000000 RTR_DGC10
0000032c l       *ABS*	00000000 RTR_DGC11
00000330 l       *ABS*	00000000 RTR_DGC12
00000334 l       *ABS*	00000000 RTR_DGC13
00000338 l       *ABS*	00000000 RTR_DGC14
0000033c l       *ABS*	00000000 RTR_DGC15
00000f00 l       *ABS*	00000000 RTR_TST1
00000f04 l       *ABS*	00000000 RTR_TST2
00002000 l       *ABS*	00000000 P2P_TABLE_SIZE
00000400 l       *ABS*	00000000 MC_TABLE_SIZE
00000018 l       *ABS*	00000000 MC_RAM_WIDTH
00ffffff l       *ABS*	00000000 MC_RAM_MASK
00000008 l       *ABS*	00000000 P2P_EPW
00000003 l       *ABS*	00000000 P2P_LOG_EPW
00000007 l       *ABS*	00000000 P2P_EMASK
00000003 l       *ABS*	00000000 P2P_BPE
00000007 l       *ABS*	00000000 P2P_BMASK
00db6db6 l       *ABS*	00000000 P2P_INIT
e1004000 l       *ABS*	00000000 RTR_MCRAM_BASE
e1005000 l       *ABS*	00000000 RTR_MCRAM_TOP
e1008000 l       *ABS*	00000000 RTR_MCKEY_BASE
e1009000 l       *ABS*	00000000 RTR_MCKEY_TOP
e100c000 l       *ABS*	00000000 RTR_MCMASK_BASE
e100d000 l       *ABS*	00000000 RTR_MCMASK_TOP
e1010000 l       *ABS*	00000000 RTR_P2P_BASE
e1018000 l       *ABS*	00000000 RTR_P2P_TOP
00000020 l       *ABS*	00000000 MC_CAM_WIDTH
f2000000 l       *ABS*	00000000 SYSCTL_BASE_UNBUF
e2000000 l       *ABS*	00000000 SYSCTL_BASE_BUF
e2000000 l       *ABS*	00000000 SYSCTL_BASE
5ec00000 l       *ABS*	00000000 SC_CODE
59111012 l       *ABS*	00000000 CHIP_ID_CODE
00000000 l       *ABS*	00000000 SC_CHIP_ID
00000004 l       *ABS*	00000000 SC_CPU_DIS
00000008 l       *ABS*	00000000 SC_SET_IRQ
0000000c l       *ABS*	00000000 SC_CLR_IRQ
00000010 l       *ABS*	00000000 SC_SET_OK
00000010 l       *ABS*	00000000 SC_CPU_OK
00000014 l       *ABS*	00000000 SC_CLR_OK
00000018 l       *ABS*	00000000 SC_SOFT_RST_L
0000001c l       *ABS*	00000000 SC_HARD_RST_L
00000020 l       *ABS*	00000000 SC_SUBS_RST_L
00000024 l       *ABS*	00000000 SC_SOFT_RST_P
00000028 l       *ABS*	00000000 SC_HARD_RST_P
0000002c l       *ABS*	00000000 SC_SUBS_RST_P
00000030 l       *ABS*	00000000 SC_RST_CODE
00000034 l       *ABS*	00000000 SC_MON_ID
00000038 l       *ABS*	00000000 SC_MISC_CTRL
0000003c l       *ABS*	00000000 GPIO_RES
00000040 l       *ABS*	00000000 GPIO_PORT
00000044 l       *ABS*	00000000 GPIO_DIR
00000048 l       *ABS*	00000000 GPIO_SET
0000004c l       *ABS*	00000000 GPIO_CLR
00000048 l       *ABS*	00000000 GPIO_READ
00000050 l       *ABS*	00000000 SC_PLL1
00000054 l       *ABS*	00000000 SC_PLL2
00000058 l       *ABS*	00000000 SC_FLAG
00000058 l       *ABS*	00000000 SC_SETFLAG
0000005c l       *ABS*	00000000 SC_CLRFLAG
00000060 l       *ABS*	00000000 SC_CLKMUX
00000064 l       *ABS*	00000000 SC_SLEEP
00000068 l       *ABS*	00000000 SC_TS0
0000006c l       *ABS*	00000000 SC_TS1
00000070 l       *ABS*	00000000 SC_TS2
00000080 l       *ABS*	00000000 SC_ARB0
00000100 l       *ABS*	00000000 SC_TAS0
00000180 l       *ABS*	00000000 SC_TAC0
00000200 l       *ABS*	00000000 SC_LINK_DIS
00000000 l       *ABS*	00000000 RST_POR
00000001 l       *ABS*	00000000 RST_WDT
00000002 l       *ABS*	00000000 RST_USER
00000003 l       *ABS*	00000000 RST_SW
00000004 l       *ABS*	00000000 RST_WDI
f3000000 l       *ABS*	00000000 WDOG_BASE_UNBUF
e3000000 l       *ABS*	00000000 WDOG_BASE_BUF
e3000000 l       *ABS*	00000000 WDOG_BASE
00000000 l       *ABS*	00000000 WD_LOAD
00000004 l       *ABS*	00000000 WD_COUNT
00000008 l       *ABS*	00000000 WD_CTRL
0000000c l       *ABS*	00000000 WD_INTCLR
00000010 l       *ABS*	00000000 WD_RAWINT
00000014 l       *ABS*	00000000 WD_MSKINT
00000c00 l       *ABS*	00000000 WD_LOCK
1acce551 l       *ABS*	00000000 WD_CODE
00000001 l       *ABS*	00000000 WD_INT_B
00000002 l       *ABS*	00000000 WD_RST_B
f4000000 l       *ABS*	00000000 ETH_BASE_UNBUF
e4000000 l       *ABS*	00000000 ETH_BASE_BUF
e4000000 l       *ABS*	00000000 ETH_BASE
e4000000 l       *ABS*	00000000 ETH_TX_BASE
00000600 l       *ABS*	00000000 ETH_TX_SIZE
e4000600 l       *ABS*	00000000 ETH_TX_TOP
e4004000 l       *ABS*	00000000 ETH_RX_BASE
00000c00 l       *ABS*	00000000 ETH_RX_SIZE
e4004c00 l       *ABS*	00000000 ETH_RX_TOP
e4008000 l       *ABS*	00000000 ETH_RX_DESC_RAM
e400c000 l       *ABS*	00000000 ETH_REGS
00000000 l       *ABS*	00000000 ETH_CONTROL
00000004 l       *ABS*	00000000 ETH_STATUS
00000008 l       *ABS*	00000000 ETH_TX_LEN
0000000c l       *ABS*	00000000 ETH_TX_CMD
00000010 l       *ABS*	00000000 ETH_RX_CMD
00000014 l       *ABS*	00000000 ETH_MAC_LO
00000018 l       *ABS*	00000000 ETH_MAC_HI
0000001c l       *ABS*	00000000 ETH_PHY_CTRL
00000020 l       *ABS*	00000000 ETH_INT_CLR
00000024 l       *ABS*	00000000 ETH_RX_BUF_RP
0000002c l       *ABS*	00000000 ETH_RX_DESC_RP
00000001 l       *ABS*	00000000 ETH_TX_CLR
00000010 l       *ABS*	00000000 ETH_RX_CLR
00000001 l       *ABS*	00000000 PHY_CTRL_NRST
00000002 l       *ABS*	00000000 PHY_CTRL_DIN
00000004 l       *ABS*	00000000 PHY_CTRL_DOUT
00000008 l       *ABS*	00000000 PHY_CTRL_OE
00000010 l       *ABS*	00000000 PHY_CTRL_CLK
00000000 l       *ABS*	00000000 PKT_MC
00400000 l       *ABS*	00000000 PKT_P2P
00800000 l       *ABS*	00000000 PKT_NN
00a00000 l       *ABS*	00000000 PKT_NND
00c00000 l       *ABS*	00000000 PKT_FR
00020000 l       *ABS*	00000000 PKT_PL
00020000 l       *ABS*	00000000 PKT_MC_PL
00420000 l       *ABS*	00000000 PKT_P2P_PL
00820000 l       *ABS*	00000000 PKT_NN_PL
00c20000 l       *ABS*	00000000 PKT_FR_PL
0000000a l       *ABS*	00000000 CLK_XTAL_MHZ
0007011a l       *ABS*	00000000 PLL_260
0007011e l       *ABS*	00000000 PLL_300
00070121 l       *ABS*	00000000 PLL_330
00070128 l       *ABS*	00000000 PLL_400
00000050 l       *ABS*	00000000 PLL_LOCK_TIME
809488a5 l       *ABS*	00000000 PLL_CLK_SEL
00000020 l       *ABS*	00000000 SERIAL_NCS
00000010 l       *ABS*	00000000 SERIAL_CLK
00000008 l       *ABS*	00000000 SERIAL_SI
00000004 l       *ABS*	00000000 SERIAL_SO
00000038 l       *ABS*	00000000 SERIAL_OE
80000000 l       *ABS*	00000000 TOP_BIT
80000000 l       *ABS*	00000000 SDRAM_TQ
40000000 l       *ABS*	00000000 SDRAM_DPD
20000000 l       *ABS*	00000000 SDRAM_HERE
08000000 l       *ABS*	00000000 JTAG_NTRST
04000000 l       *ABS*	00000000 JTAG_TMS
02000000 l       *ABS*	00000000 JTAG_TDI
01000000 l       *ABS*	00000000 JTAG_TCK
00100000 l       *ABS*	00000000 JTAG_RTCK
00080000 l       *ABS*	00000000 JTAG_TDO
00008000 l       *ABS*	00000000 JTAG_INT
00000001 l       *ABS*	00000000 LED_0
00000010 l       *ABS*	00000000 MODE_USER
00000011 l       *ABS*	00000000 MODE_FIQ
00000012 l       *ABS*	00000000 MODE_IRQ
00000013 l       *ABS*	00000000 MODE_SVC
00000017 l       *ABS*	00000000 MODE_ABT
0000001b l       *ABS*	00000000 MODE_UND
0000001f l       *ABS*	00000000 MODE_SYS
00000020 l       *ABS*	00000000 THUMB_BIT
00000080 l       *ABS*	00000000 IMASK_IRQ
00000040 l       *ABS*	00000000 IMASK_FIQ
000000c0 l       *ABS*	00000000 IMASK_ALL
00000001 l       *ABS*	00000000 SARK_EVENT
00000180 l       *ABS*	00000000 SVC_STACK
00000100 l       *ABS*	00000000 IRQ_STACK
00000100 l       *ABS*	00000000 FIQ_STACK
00000004 l       *ABS*	00000000 NUM_SDP_MSGS
0000000f l       *ABS*	00000000 SARK_SLOT
00000010 l       *ABS*	00000000 INIT_EVENTS
deaddead l       *ABS*	00000000 DEAD_WORD
00000001 l       *ABS*	00000000 APLX_ACOPY
00000002 l       *ABS*	00000000 APLX_RCOPY
00000003 l       *ABS*	00000000 APLX_FILL
00000004 l       *ABS*	00000000 APLX_EXEC
000000ff l       *ABS*	00000000 APLX_END
00000010 l       *ABS*	00000000 APLX_ENTRY_SIZE
00000040 l       *ABS*	00000000 APLX_BUF_SIZE
00007fc0 l       *ABS*	00000000 APLX_BUFFER
000000ff l       *ABS*	00000000 TAG_NONE
00000000 l       *ABS*	00000000 TAG_HOST
00000001 l       *ABS*	00000000 RTR_ALLOC_FIRST
00000400 l       *ABS*	00000000 RTR_ALLOC_LAST
000003ff l       *ABS*	00000000 RTR_ALLOC_MAX
00000001 l       *ABS*	00000000 ALLOC_LOCK
00000002 l       *ABS*	00000000 ALLOC_ID
00000004 l       *ABS*	00000000 ALLOC_TAG_RETRY
00000000 l       *ABS*	00000000 LOCK_MSG
00000001 l       *ABS*	00000000 LOCK_MBOX
00000002 l       *ABS*	00000000 LOCK_ETHER
00000003 l       *ABS*	00000000 LOCK_GPIO
00000004 l       *ABS*	00000000 LOCK_API_ROOT
00000005 l       *ABS*	00000000 LOCK_SEMA
00000006 l       *ABS*	00000000 LOCK_HEAP
00000007 l       *ABS*	00000000 LOCK_RTR
00000005 l       *ABS*	00000000 A_LOCK_SEMA
00000000 l       *ABS*	00000000 APP_FLAG_WAIT
00000000 l       *ABS*	00000000 RTE_NONE
00000001 l       *ABS*	00000000 RTE_RESET
00000002 l       *ABS*	00000000 RTE_UNDEF
00000003 l       *ABS*	00000000 RTE_SVC
00000004 l       *ABS*	00000000 RTE_PABT
00000005 l       *ABS*	00000000 RTE_DABT
00000006 l       *ABS*	00000000 RTE_IRQ
00000007 l       *ABS*	00000000 RTE_FIQ
00000008 l       *ABS*	00000000 RTE_VIC
00000009 l       *ABS*	00000000 RTE_ABORT
0000000a l       *ABS*	00000000 RTE_MALLOC
0000000b l       *ABS*	00000000 RTE_DIV0
0000000c l       *ABS*	00000000 RTE_EVENT
0000000d l       *ABS*	00000000 RTE_SWERR
0000000e l       *ABS*	00000000 RTE_IOBUF
0000000f l       *ABS*	00000000 RTE_ENABLE
00000010 l       *ABS*	00000000 RTE_NULL
00000011 l       *ABS*	00000000 RTE_PKT
00000012 l       *ABS*	00000000 RTE_TIMER
00000013 l       *ABS*	00000000 RTE_API
00000014 l       *ABS*	00000000 RTE_VER
00000001 l       *ABS*	00000000 A_RTE_RESET
00000002 l       *ABS*	00000000 A_RTE_UNDEF
00000003 l       *ABS*	00000000 A_RTE_SVC
00000004 l       *ABS*	00000000 A_RTE_PABT
00000005 l       *ABS*	00000000 A_RTE_DABT
00000006 l       *ABS*	00000000 A_RTE_IRQ
00000007 l       *ABS*	00000000 A_RTE_FIQ
00000008 l       *ABS*	00000000 A_RTE_VIC
00000000 l       *ABS*	00000000 CPU_STATE_DEAD
00000001 l       *ABS*	00000000 CPU_STATE_PWRDN
00000002 l       *ABS*	00000000 CPU_STATE_RTE
00000003 l       *ABS*	00000000 CPU_STATE_WDOG
00000004 l       *ABS*	00000000 CPU_STATE_INIT
00000005 l       *ABS*	00000000 CPU_STATE_WAIT
00000006 l       *ABS*	00000000 CPU_STATE_SARK
00000007 l       *ABS*	00000000 CPU_STATE_RUN
00000008 l       *ABS*	00000000 CPU_STATE_SYNC0
00000009 l       *ABS*	00000000 CPU_STATE_SYNC1
0000000a l       *ABS*	00000000 CPU_STATE_PAUSE
0000000b l       *ABS*	00000000 CPU_STATE_EXIT
0000000c l       *ABS*	00000000 CPU_STATE_12
0000000d l       *ABS*	00000000 CPU_STATE_13
0000000e l       *ABS*	00000000 CPU_STATE_14
0000000f l       *ABS*	00000000 CPU_STATE_IDLE
00000002 l       *ABS*	00000000 A_STATE_RTE
00000000 l       *ABS*	00000000 EVENT_TIMER
00000001 l       *ABS*	00000000 EVENT_RXPKT
00000002 l       *ABS*	00000000 EVENT_SDP
00000003 l       *ABS*	00000000 EVENT_USER
00000004 l       *ABS*	00000000 EVENT_SIG
00000005 l       *ABS*	00000000 EVENT_DMA
00000005 l       *ABS*	00000000 EVENT_MAX
00000006 l       *ABS*	00000000 EVENT_COUNT
00000000 l       *ABS*	00000000 EVENT_RUN
00000001 l       *ABS*	00000000 EVENT_PAUSE
00000002 l       *ABS*	00000000 EVENT_STOP
00000000 l       *ABS*	00000000 SLOT_0
00000001 l       *ABS*	00000000 SLOT_1
00000002 l       *ABS*	00000000 SLOT_2
00000003 l       *ABS*	00000000 SLOT_3
00000004 l       *ABS*	00000000 SLOT_4
00000005 l       *ABS*	00000000 SLOT_5
00000006 l       *ABS*	00000000 SLOT_6
00000007 l       *ABS*	00000000 SLOT_7
00000008 l       *ABS*	00000000 SLOT_8
00000009 l       *ABS*	00000000 SLOT_9
0000000a l       *ABS*	00000000 SLOT_10
0000000b l       *ABS*	00000000 SLOT_11
0000000c l       *ABS*	00000000 SLOT_12
0000000d l       *ABS*	00000000 SLOT_13
0000000e l       *ABS*	00000000 SLOT_14
0000000f l       *ABS*	00000000 SLOT_15
00000010 l       *ABS*	00000000 SLOT_FIQ
0000000f l       *ABS*	00000000 SLOT_MAX
00000000 l       *ABS*	00000000 PRIO_0
00000001 l       *ABS*	00000000 PRIO_1
00000002 l       *ABS*	00000000 PRIO_2
00000003 l       *ABS*	00000000 PRIO_3
00000003 l       *ABS*	00000000 PRIO_MAX
00000000 l       *ABS*	00000000 SW_OPT
00000001 l       *ABS*	00000000 SW_NEVER
00000002 l       *ABS*	00000000 SW_RTE
00000000 l       *ABS*	00000000 SYNC_NOWAIT
00000001 l       *ABS*	00000000 SYNC_WAIT
00000000 l       *ABS*	00000000 SHM_IDLE
00000001 l       *ABS*	00000000 SHM_MSG
00000002 l       *ABS*	00000000 SHM_NOP
00000003 l       *ABS*	00000000 SHM_SIGNAL
00000004 l       *ABS*	00000000 SHM_CMD
00000000 l       *ABS*	00000000 SIG_INIT
00000001 l       *ABS*	00000000 SIG_PWRDN
00000002 l       *ABS*	00000000 SIG_STOP
00000003 l       *ABS*	00000000 SIG_START
00000004 l       *ABS*	00000000 SIG_SYNC0
00000005 l       *ABS*	00000000 SIG_SYNC1
00000006 l       *ABS*	00000000 SIG_PAUSE
00000007 l       *ABS*	00000000 SIG_CONT
00000008 l       *ABS*	00000000 SIG_EXIT
00000009 l       *ABS*	00000000 SIG_TIMER
0000000a l       *ABS*	00000000 SIG_USR0
0000000b l       *ABS*	00000000 SIG_USR1
0000000c l       *ABS*	00000000 SIG_USR2
0000000d l       *ABS*	00000000 SIG_USR3
00000000 l       *ABS*	00000000 CMD_VER
00000001 l       *ABS*	00000000 CMD_RUN
00000002 l       *ABS*	00000000 CMD_READ
00000003 l       *ABS*	00000000 CMD_WRITE
00000004 l       *ABS*	00000000 CMD_APLX
00000005 l       *ABS*	00000000 CMD_FILL
0000000f l       *ABS*	00000000 CMD_COUNT
00000010 l       *ABS*	00000000 CMD_REMAP
00000011 l       *ABS*	00000000 CMD_LINK_READ
00000012 l       *ABS*	00000000 CMD_LINK_WRITE
00000013 l       *ABS*	00000000 CMD_AR
00000014 l       *ABS*	00000000 CMD_NNP
00000015 l       *ABS*	00000000 CMD_APP_COPY_RUN
00000016 l       *ABS*	00000000 CMD_SIG
00000017 l       *ABS*	00000000 CMD_FFD
00000018 l       *ABS*	00000000 CMD_AS
00000019 l       *ABS*	00000000 CMD_LED
0000001a l       *ABS*	00000000 CMD_IPTAG
0000001b l       *ABS*	00000000 CMD_SROM
0000001c l       *ABS*	00000000 CMD_ALLOC
0000001d l       *ABS*	00000000 CMD_RTR
0000001e l       *ABS*	00000000 CMD_RSVD
0000001f l       *ABS*	00000000 CMD_INFO
00000020 l       *ABS*	00000000 CMD_SYNC
00000040 l       *ABS*	00000000 CMD_TUBE
00000080 l       *ABS*	00000000 RC_OK
00000081 l       *ABS*	00000000 RC_LEN
00000082 l       *ABS*	00000000 RC_SUM
00000083 l       *ABS*	00000000 RC_CMD
00000084 l       *ABS*	00000000 RC_ARG
00000085 l       *ABS*	00000000 RC_PORT
00000086 l       *ABS*	00000000 RC_TIMEOUT
00000087 l       *ABS*	00000000 RC_ROUTE
00000088 l       *ABS*	00000000 RC_CPU
00000089 l       *ABS*	00000000 RC_DEAD
0000008a l       *ABS*	00000000 RC_BUF
0000008b l       *ABS*	00000000 RC_P2P_NOREPLY
0000008c l       *ABS*	00000000 RC_P2P_REJECT
0000008d l       *ABS*	00000000 RC_P2P_BUSY
0000008e l       *ABS*	00000000 RC_P2P_TIMEOUT
0000008f l       *ABS*	00000000 RC_PKT_TX
00000000 l       *ABS*	00000000 TYPE_BYTE
00000001 l       *ABS*	00000000 TYPE_HALF
00000002 l       *ABS*	00000000 TYPE_WORD
00000008 l       *ABS*	00000000 NUM_SDP_PORTS
00000005 l       *ABS*	00000000 PORT_SHIFT
000000e0 l       *ABS*	00000000 PORT_MASK
0000001f l       *ABS*	00000000 CPU_MASK
000000ff l       *ABS*	00000000 PORT_ETH
00000100 l       *ABS*	00000000 SDP_BUF_SIZE
00000080 l       *ABS*	00000000 VCPU_SIZE
0000002c l       *ABS*	00000000 VCPU_RT_CODE
0000002e l       *ABS*	00000000 VCPU_CPU_STATE
0000002f l       *ABS*	00000000 VCPU_APP_ID
0000001c l       *ABS*	00000000 SARK_MSG_INT
0000001d l       *ABS*	00000000 SARK_SIG_INT
00000000 l       *ABS*	00000000 SARK_VIRT_CPU
00000008 l       *ABS*	00000000 SARK_RANDOM
00000030 l       *ABS*	00000000 SARK_CPU_CLK
00000020 l       *ABS*	00000000 SV_SSIZE
00000060 l       *ABS*	00000000 SV_USIZE
00000080 l       *ABS*	00000000 SV_ISIZE
00000020 l       *ABS*	00000000 SV_VSIZE
00000040 l       *ABS*	00000000 SV_RSIZE
00001000 l       *ABS*	00000000 SV_SIZE
e5007fe0 l       *ABS*	00000000 SV_SROM
e5007f80 l       *ABS*	00000000 SV_UBASE
e5007f00 l       *ABS*	00000000 SV_IBASE
e5007f00 l       *ABS*	00000000 SV_SV
00000100 l       *ABS*	00000000 SYS_BOOT
e5007000 l       *ABS*	00000000 SYS_USER_TOP
e5000100 l       *ABS*	00000000 SYS_USER_BASE
e5007ee0 l       *ABS*	00000000 SV_VECTORS
e5007ea0 l       *ABS*	00000000 SV_RANDOM
e5007000 l       *ABS*	00000000 SV_VCPU
e5007900 l       *ABS*	00000000 SV_SPARE
000005a0 l       *ABS*	00000000 SPARE_SIZE
e5007fe0 l       *ABS*	00000000 SROM_FLAG_BASE
e5007f80 l       *ABS*	00000000 STATUS_MAP_BASE
e5007ee0 l       *ABS*	00000000 RST_BLOCK_BASE
00008000 l       *ABS*	00000000 SRF_PRESENT
000000f0 l       *ABS*	00000000 SRF_HW_VER
00000008 l       *ABS*	00000000 SRF_PHY_INIT
00000004 l       *ABS*	00000000 SRF_PHY_RST
00000002 l       *ABS*	00000000 SRF_PHY_WAIT
00000001 l       *ABS*	00000000 SRF_ETH
00000000 l       *ABS*	00000000 SRF_NONE
00000020 l       RO_DATA	00000000 reset_vec
00000004 l       RO_DATA	00000000 undef
00000024 l       RO_DATA	00000000 undef_vec
00000028 l       RO_DATA	00000000 svc_vec
0000002c l       RO_DATA	00000000 pabt_vec
00000030 l       RO_DATA	00000000 dabt_vec
0000003c l       RO_DATA	00000000 fiq_vec
00000078 l       RO_DATA	00000000 reset_entry
000000d8 l       RO_DATA	00000000 undef_error
000000e0 l       RO_DATA	00000000 svc_error
000000e8 l       RO_DATA	00000000 pabt_error
000000f0 l       RO_DATA	00000000 dabt_error
00000034 l       RO_DATA	00000000 aplx_proc
00000038 l       RO_DATA	00000000 irq_vec
000000f8 l       RO_DATA	00000000 irq_error
00000100 l       RO_DATA	00000000 fiq_error
00000040 l       RO_DATA	00000000 svc_stack
00000042 l       RO_DATA	00000000 irq_stack
00000044 l       RO_DATA	00000000 fiq_stack
00000046 l       RO_DATA	00000000 stack_size
00000048 l       RO_DATA	00000000 code_top
0000004c l       RO_DATA	00000000 heap_base
00000050 l       RO_DATA	00000000 stack_top
00000054 l       RO_DATA	00000000 stack_fill
00000058 l       RO_DATA	00000000 num_msgs
00000059 l       RO_DATA	00000000 sark_slot
0000005a l       RO_DATA	00000000 num_events
0000005b l       RO_DATA	00000000 api
0000005c l       RO_DATA	00000000 app_id
0000005d l       RO_DATA	00000000 app_flags
0000005e l       RO_DATA	00000000 __PAD
00000060 l       RO_DATA	00000000 event_vec
000000d0 l       RO_DATA	00000000 reset_error
00000114 l       RO_DATA	00000000 exc_error
00000138 l       RO_DATA	00000000 cc_error
000001ec l       RO_DATA	00000000 lg1
0000023c l       RO_DATA	00000000 ws1
0000029c l       RO_DATA	00000000 wc2
00000284 l       RO_DATA	00000000 wc1
0000037c l       RO_DATA	00000000 aplx_buffer
00000380 l       RO_DATA	00000000 aplx_loader
0000036c l       RO_DATA	00000000 aplx_l0
00000398 l       RO_DATA	00000000 aplx_copy
00000394 l       RO_DATA	00000000 aplx_rcopy
000003a6 l       RO_DATA	00000000 aplx_fill
000003b6 l       RO_DATA	00000000 aplx_exec
000003ac l       RO_DATA	00000000 aplx_l1
00000000 l    df *ABS*	00000000 sark_base.c
00000000 l    df *ABS*	00000000 sark_event.c
00000000 l    df *ABS*	00000000 sark_timer.c
00400b80 l     O ZI_DATA	0000001c cancelled
00000000 l    df *ABS*	00000000 sark_hw.c
00000000 l    df *ABS*	00000000 sark_isr.c
00000000 l    df *ABS*	00000000 sark_alloc.c
00000000 l    df *ABS*	00000000 sark_io.c
000064c8 l     F RO_DATA	00000040 io_buf_init
00400ba4 l     O ZI_DATA	00000004 buf_ptr
00400b9c l     O ZI_DATA	00000004 io_buf
00400ba8 l     O ZI_DATA	00000004 sp_ptr
00400ba0 l     O ZI_DATA	00000004 io_msg
000065f0 l     F RO_DATA	000000be io_put_fixed
00007a4f l     O RO_DATA	00000011 hex
00000000 l    df *ABS*	00000000 sark_pkt.c
00000000 l    df *ABS*	00000000 sark_div0.c
00000000 l    df *ABS*	00000000 main.c
000003bc l     F RO_DATA	00000028 spin1_set_timer_tick
000003e4 l     F RO_DATA	00000054 spin1_send_mc_packet
00000438 l     F RO_DATA	0000008c timer_callback
000004c4 l     F RO_DATA	0000005c mc_packet_callback
00000520 l     F RO_DATA	0000002c sdp_callback
00000000 l    df *ABS*	00000000 neuron_manager.c
00400018 l       ZI_DATA	00000004 g_neuron_list
0040001c l       ZI_DATA	00000004 g_neuron_count
00400020 l       ZI_DATA	00000004 g_app_id
00000000 l    df *ABS*	00000000 synapse_manager.c
00400024 l       ZI_DATA	00000004 g_synapse_count
00400028 l       ZI_DATA	00000004 g_active_trace_count
0040002c l       ZI_DATA	00000004 g_last_delivery_visits
00400030 l       ZI_DATA	00000004 g_last_decay_visits
00400034 l       ZI_DATA	00000004 g_last_modulation_visits
00400038 l       ZI_DATA	00000004 g_post_index
0040003c l       ZI_DATA	00000004 g_pre_index
00400040 l       ZI_DATA	00000004 g_active_trace_head
00000b48 l     F RO_DATA	0000006c _find_post
00000bb4 l     F RO_DATA	0000006c _find_pre
00000c20 l     F RO_DATA	000000a0 _find_or_create_post
00000cc0 l     F RO_DATA	000000a0 _find_or_create_pre
00000d60 l     F RO_DATA	00000050 _clip_weight
00000db0 l     F RO_DATA	00000098 _drop_empty_post_entry
00000e48 l     F RO_DATA	00000098 _drop_empty_pre_entry
00000ee0 l     F RO_DATA	000000b4 _unlink_from_post
00000f94 l     F RO_DATA	000000b4 _unlink_from_pre
00001048 l     F RO_DATA	000000e0 _unlink_from_active
00001128 l     F RO_DATA	00000078 _activate_trace
000011a0 l     F RO_DATA	0000008c _free_synapse
0000122c l     F RO_DATA	00000088 _find_synapse
00000000 l    df *ABS*	00000000 state_manager.c
00400044 l       ZI_DATA	000000a0 g_context_slots
004000e4 l       ZI_DATA	000000a0 g_route_slots
00400184 l       ZI_DATA	000000a0 g_memory_slots
00400224 l       ZI_DATA	00000800 g_pending_horizons
00400a24 l       ZI_DATA	0000007c g_summary
00001ae0 l     F RO_DATA	0000010c _clear_slots
00001bec l     F RO_DATA	0000010c _clear_route_slots
00001cf8 l     F RO_DATA	0000010c _clear_memory_slots
00001e04 l     F RO_DATA	00000198 _clear_summary
00001f9c l     F RO_DATA	000000a0 _clear_pending
0000203c l     F RO_DATA	000000ac _find_slot
000020e8 l     F RO_DATA	00000154 _select_slot_for_write
0000223c l     F RO_DATA	000000ac _find_route_slot
000022e8 l     F RO_DATA	00000154 _select_route_slot_for_write
0000243c l     F RO_DATA	000000ac _find_memory_slot
000024e8 l     F RO_DATA	00000154 _select_memory_slot_for_write
000032f0 l     F RO_DATA	00000208 _apply_reward_to_feature_prediction
00000000 l    df *ABS*	00000000 host_interface.c
00003798 l     F RO_DATA	00000024 spin1_msg_free
000037bc l     F RO_DATA	00000018 spin1_msg_get
000037d4 l     F RO_DATA	00000030 spin1_send_sdp_msg
00003804 l     F RO_DATA	0000007c _write_u32
00003880 l     F RO_DATA	00000030 _write_s32
000038b0 l     F RO_DATA	000000c8 _handle_birth
00003978 l     F RO_DATA	0000008c _handle_death
00003a04 l     F RO_DATA	000000a4 _handle_dopamine
00003aa8 l     F RO_DATA	0000008c _handle_read_spikes
00003b34 l     F RO_DATA	0000008c _handle_create_syn
00003bc0 l     F RO_DATA	00000078 _handle_remove_syn
00003c38 l     F RO_DATA	00000070 _handle_reset
00003ca8 l     F RO_DATA	00000058 _handle_read_state
00003d00 l     F RO_DATA	000000d4 _handle_schedule_pending
00003dd4 l     F RO_DATA	000000f8 _handle_mature_pending
00003ecc l     F RO_DATA	000000d0 _handle_write_context
00003f9c l     F RO_DATA	000000f0 _handle_read_context
0000408c l     F RO_DATA	000001b0 _handle_schedule_context_pending
0000423c l     F RO_DATA	000000c4 _handle_write_route
00004300 l     F RO_DATA	000000cc _handle_read_route
000043cc l     F RO_DATA	0000029c _handle_schedule_routed_context_pending
00004668 l     F RO_DATA	000000d0 _handle_write_route_slot
00004738 l     F RO_DATA	000000f0 _handle_read_route_slot
00004828 l     F RO_DATA	000002ac _handle_schedule_keyed_route_context_pending
00004ad4 l     F RO_DATA	000000d0 _handle_write_memory_slot
00004ba4 l     F RO_DATA	000000f0 _handle_read_memory_slot
00004c94 l     F RO_DATA	00000390 _handle_schedule_memory_route_context_pending
00000000 l    df *ABS*	00000000 router.c
00400aa0 l       ZI_DATA	00000004 g_route_list
00400aa4 l       ZI_DATA	00000004 g_route_count
00400aa8 l       ZI_DATA	00000004 g_app_id
00005640 l     F RO_DATA	0000006c _find_route
00000000 l    df *ABS*	00000000 spin1_api.c
00006948 l     F RO_DATA	0000008c configure_timer1
000069d4 l     F RO_DATA	00000050 resume
004011c4 l     O ZI_DATA	00000004 resume_sync
004011c8 l     O ZI_DATA	00000004 paused
00006a24 l     F RO_DATA	0000006c clean_up
004011a0 l     O ZI_DATA	00000004 old_vector
0040119c l     O ZI_DATA	00000004 old_select
00401198 l     O ZI_DATA	00000004 old_enable
00400c38 l     O ZI_DATA	00000320 task_queue
004011a4 l     O ZI_DATA	00000004 timer_phase
00006ab8 l     F RO_DATA	000003e0 start
00401194 l     O ZI_DATA	00000004 user_int_select
0040000c l     O RW_DATA	00000004 fiq_event
004011cc l     O ZI_DATA	00000004 run
00401190 l     O ZI_DATA	00000004 highest_priority
00400008 l     O RW_DATA	00000004 mc_pkt_prio
00400004 l     O RW_DATA	00000004 fr_pkt_prio
00007a60 l     O RO_DATA	00000020 VIC_EVENTS
00000000 l    df *ABS*	00000000 spin1_isr.c
00000000 l    df *ABS*	00000000 _thumb1_case_sqi.o
00000000 l    df *ABS*	00000000 _thumb1_case_shi.o
00000000 l    df *ABS*	00000000 _divsi3.o
00007698 l       RO_DATA	00000000 .divsi3_skip_div0_test
00000000 l    df *ABS*	00000000 memcpy-stub.c
00000000 l    df *ABS*	00000000 coral_reef_build.c
004011a8 g     O ZI_DATA	00000004 time_to_next_drift_update
0000285c g     F RO_DATA	000000e8 cra_state_read_context
00006f68 g     F RO_DATA	0000000a spin1_start
000001d8 g     F RO_DATA	00000000 sark_lock_get
000070e4 g     F RO_DATA	00000030 sark_pre_main
00002664 g     F RO_DATA	00000044 cra_state_reset
0000064c g     F RO_DATA	00000044 neuron_mgr_init
00002968 g     F RO_DATA	0000005c cra_state_write_route
00005a44 g     F RO_DATA	00000034 sark_shmsg_get
00002cd8 g     F RO_DATA	00000024 cra_state_active_route_slot_count
000071cc g     F RO_DATA	00000074 cc_fr_ready_isr
000001a8 g     F RO_DATA	00000000 spin1_int_enable
00000040 g       *ABS*	00000000 RO_FROM
00000800 g       *ABS*	00000000 STACK_SIZE
00000352 g     F RO_DATA	00000000 sark_bx
000062c4 g     F RO_DATA	000000a4 sark_xfree
00001834 g     F RO_DATA	00000128 synapse_reset_all
00006e98 g     F RO_DATA	000000bc spin1_callback_on
0000503c g     F RO_DATA	000001d8 sdp_rx_callback
00000880 g     F RO_DATA	0000006c neuron_find
00001980 g     F RO_DATA	00000024 synapse_active_trace_count
00002fbc g     F RO_DATA	00000040 cra_state_set_readout
0000025c g     F RO_DATA	00000000 sark_msg_cpy
00005fac g     F RO_DATA	0000004c event_alloc
000059d4 g     F RO_DATA	0000001e sark_block_init
00007414 g     F RO_DATA	00000140 timer1_isr
00006198 g     F RO_DATA	00000028 sark_fiq_han
00000010 g       *ABS*	00000000 APLX_ENTRY
00005a24 g     F RO_DATA	00000020 sark_msg_free
00007594 g     F RO_DATA	0000006c soft_int_isr
00006424 g     F RO_DATA	000000a4 rtr_free
000056f0 g     F RO_DATA	00000154 router_add_neuron
000005c8 g     F RO_DATA	00000084 c_main
00005844 g     F RO_DATA	000000b8 router_remove_neuron
00005da4 g     F RO_DATA	0000016c sark_int
000019c8 g     F RO_DATA	00000024 synapse_last_decay_visit_count
000002f0 g     F RO_DATA	00000000 sark_int_han
00000abc g     F RO_DATA	00000024 neuron_list_head
00005f10 g     F RO_DATA	00000058 event_wait
000077d8 g     F RO_DATA	00000114 memcpy
00005d8e g     F RO_DATA	00000014 sark_wait
000001c8 g     F RO_DATA	00000000 spin1_mode_restore
00005d80 g     F RO_DATA	0000000e sark_cmd_fill
00006418 g     F RO_DATA	0000000c rtr_alloc
0000600c g     F RO_DATA	00000050 sark_vic_init
0000739c g     F RO_DATA	00000078 dma_done_fiqsr
0000016c g     F RO_DATA	00000000 cpu_shutdown
004011b8 g     O ZI_DATA	00000004 timer_tick_clocks
00400014 g     O ZI_DATA	00000004 g_dopamine_level
000001c8 g     F RO_DATA	00000000 cpu_int_restore
00400bac g     O ZI_DATA	0000004c diagnostics
00410000 g       *ABS*	00000000 STACK_TOP
004011d4 g       ZI_DATA	00000000 HEAP_BASE
000061c0 g     F RO_DATA	000000ec sark_xalloc
00000ae0 g     F RO_DATA	00000068 neuron_reset_all
00400000 g     O RW_DATA	00000004 g_app_id
000056ac g     F RO_DATA	00000044 router_init
0000093c g     F RO_DATA	0000015c neuron_update_all
00000354 g     F RO_DATA	00000000 __gnu_thumb1_case_uqi
00000570 g     F RO_DATA	00000058 emit_spike
000012b4 g     F RO_DATA	00000138 synapse_create
00002cfc g     F RO_DATA	000001b4 cra_state_write_memory_slot
00400010 g     O ZI_DATA	00000004 g_timestep
00005a78 g     F RO_DATA	00000024 sark_shmsg_free
00000324 g     F RO_DATA	00000000 schedule
00007278 g     F RO_DATA	00000094 cc_tx_empty_isr
0000012c g     F RO_DATA	00000000 rt_error
00003608 g     F RO_DATA	00000120 cra_state_mature_pending_horizons
000060c8 g     F RO_DATA	00000058 rtr_mc_clear
004011b4 g     O ZI_DATA	00000004 drift
00007194 g     F RO_DATA	00000038 cc_rx_ready_fiqsr
00000a98 g     F RO_DATA	00000024 neuron_count
0000374c g     F RO_DATA	0000004c cra_state_get_summary
000059b0 g     F RO_DATA	00000010 sark_cpu_state
00005ff8 g     F RO_DATA	00000014 timer_cancel_init
00400f58 g     O ZI_DATA	00000028 user_event_queue
00007114 g     F RO_DATA	0000000a sark_post_main
00007ab0 g       *ABS*	00000000 RW_FROM
00000690 g     F RO_DATA	0000013c neuron_birth
00007690 g     F RO_DATA	00000000 .hidden __aeabi_idiv
00005214 g     F RO_DATA	00000258 host_if_pack_state_summary
00000000 g       RO_DATA	00000000 cpu_reset
000002c0 g     F RO_DATA	00000000 sark_div10
000030d8 g     F RO_DATA	00000044 cra_state_record_reward
00000108 g       RO_DATA	00000000 vic_error
00400000 g       *ABS*	00000000 DTCM_BASE
0000767c g     F RO_DATA	00000014 .hidden __gnu_thumb1_case_shi
00002eb0 g     F RO_DATA	000000e8 cra_state_read_memory_slot
00002944 g     F RO_DATA	00000024 cra_state_active_slot_count
0000609c g     F RO_DATA	0000002c v2p_mask
000078f0 g     O RO_DATA	0000000b build_name
00000350  w    F RO_DATA	00000000 sark_config
00007654 g     F RO_DATA	00000014 sark_fiqsr
00005f68 g     F RO_DATA	0000002c event_pause
00006368 g     F RO_DATA	00000014 sark_free
000078ec g     O RO_DATA	00000004 build_date
000001fc g     F RO_DATA	00000000 sark_lock_free
000062ac g     F RO_DATA	00000018 sark_alloc
00400000 g       *ABS*	00000000 RW_BASE
00006f74 g     F RO_DATA	000000f4 spin1_send_packet
000029c4 g     F RO_DATA	00000078 cra_state_read_route
00000010 g       ZI_DATA	00000000 RW_LENGTH
0000143c g     F RO_DATA	000000d8 synapse_deliver_spike
00005974 g     F RO_DATA	00000024 router_route_count
00007600 g     F RO_DATA	00000054 soft_int_fiqsr
00002bf0 g     F RO_DATA	000000e8 cra_state_read_route_slot
00000190 g     F RO_DATA	00000000 cpu_init_mode
000019a4 g     F RO_DATA	00000024 synapse_last_delivery_visit_count
0000026c g     F RO_DATA	00000000 sark_word_cpy
00000040 g       *ABS*	00000000 APLX_SIZE
000034f8 g     F RO_DATA	00000110 cra_state_schedule_pending_horizon
00001a78 g     F RO_DATA	00000068 synapse_get_eligibility_trace
0000017c g     F RO_DATA	00000000 cpu_sleep
004011d0 g     O ZI_DATA	00000001 leadAp
000008ec g     F RO_DATA	00000050 neuron_add_input
00003084 g     F RO_DATA	00000054 cra_state_record_decision
00400aac g     O ZI_DATA	0000003c sark
00005be8 g     F RO_DATA	00000090 sark_msg_send
000001d0 g     F RO_DATA	00000000 spin1_wfi
00005024 g     F RO_DATA	00000018 host_if_init
00005c78 g     F RO_DATA	00000050 sark_cmd_ver
004011ac g     O ZI_DATA	00000004 drift_accum
000001d0 g     F RO_DATA	00000000 cpu_wfi
00005f94 g     F RO_DATA	00000018 event_stop
00001a10 g     F RO_DATA	00000068 synapse_get_weight
000001b8 g     F RO_DATA	00000000 cpu_int_disable
0000605c g     F RO_DATA	00000040 sark_vic_set
00000210 g     F RO_DATA	00000000 sark_mem_cpy
0000637c g     F RO_DATA	0000001e sark_heap_init
00007240 g     F RO_DATA	00000038 cc_fr_ready_fiqsr
00400ae8 g     O ZI_DATA	00000098 event
000078ec g       RO_DATA	00000000 __init_array_end
00002f98 g     F RO_DATA	00000024 cra_state_active_memory_slot_count
00005d26 g     F RO_DATA	0000005a sark_cmd_write
00007120 g     F RO_DATA	00000074 cc_rx_ready_isr
00007690 g     F RO_DATA	00000128 .hidden __divsi3
00005ab8  w    F RO_DATA	00000130 sark_init
00001514 g     F RO_DATA	0000014c synapse_decay_traces_all
00005998  w    F RO_DATA	0000000c rte_handler
00000364 g     F RO_DATA	00000000 sark_aplx
000066b0 g     F RO_DATA	0000028c io_printf
00401048 g     O ZI_DATA	00000148 dma_queue
00000238 g     F RO_DATA	00000000 sark_word_set
000007cc g     F RO_DATA	000000b4 neuron_death
0000730c g     F RO_DATA	00000090 dma_done_isr
004011c0 g     O ZI_DATA	00000004 ticks
00001660 g     F RO_DATA	000000f0 synapse_modulate_all
000019ec g     F RO_DATA	00000024 synapse_last_modulation_visit_count
0000546c g     F RO_DATA	000001d4 sdp_send_reply
00000320 g     F RO_DATA	00000000 null_int_han
00007068 g     F RO_DATA	0000007c schedule_sysmode
0000639c g     F RO_DATA	0000007c rtr_alloc_id
00001750 g     F RO_DATA	000000e4 synapse_remove_incident
00007554 g     F RO_DATA	00000040 timer1_fiqsr
000058fc g     F RO_DATA	00000078 router_reset_all
000013ec g     F RO_DATA	00000050 synapse_remove
004011b0 g     O ZI_DATA	00000004 drift_sign
00000224 g     F RO_DATA	00000000 sark_str_cpy
00006a90 g     F RO_DATA	00000028 resume_wait
00006120 g     F RO_DATA	00000078 rtr_mc_set
0000311c g     F RO_DATA	000001d4 cra_state_apply_reward_to_readout
00400010 g       *ABS*	00000000 ZI_BASE
00000000 g       *ABS*	00000000 RO_BASE
00007668 g     F RO_DATA	00000012 .hidden __gnu_thumb1_case_sqi
000001a8 g     F RO_DATA	00000000 cpu_int_enable
000059c0 g     F RO_DATA	00000014 sark_app_lead
000059a4 g     F RO_DATA	0000000c sark_core_id
00003728 g     F RO_DATA	00000024 cra_state_active_pending_count
004011bc g     O ZI_DATA	00000004 timer_tick
00000000 g       *ABS*	00000000 ITCM_BASE
0000195c g     F RO_DATA	00000024 synapse_count
0000054c g     F RO_DATA	00000024 get_app_id
000078ec g       RO_DATA	00000000 __init_array_start
0000693c g     F RO_DATA	0000000c __aeabi_idiv0
00002a3c g     F RO_DATA	000001b4 cra_state_write_route_slot
00400bf8 g     O ZI_DATA	00000040 callback
00006f54 g     F RO_DATA	00000014 spin1_set_timer_tick_and_phase
00005a9c g     F RO_DATA	0000001c sark_call_cpp_constructors
0000263c g     F RO_DATA	00000028 cra_state_init
00006508 g     F RO_DATA	000000e8 io_put_char
00002ffc g     F RO_DATA	00000088 cra_state_predict_readout
000077b8 g     F RO_DATA	00000020 .hidden __aeabi_idivmod
000001b8 g     F RO_DATA	00000000 spin1_int_disable
000026a8 g     F RO_DATA	000001b4 cra_state_write_context
00005cc8 g     F RO_DATA	0000005e sark_cmd_read
000011c4 g       *ABS*	00000000 ZI_LENGTH
00007a80 g       RW_DATA	00000000 RO_LENGTH
000059f4 g     F RO_DATA	00000030 sark_msg_get
00400f80 g     O ZI_DATA	000000c8 tx_packet_queue



Disassembly of section RO_DATA:

00000000 <cpu_reset>:
       0:	e59ff018 	ldr	pc, [pc, #24]	@ 20 <reset_vec>

00000004 <undef>:
       4:	e59ff018 	ldr	pc, [pc, #24]	@ 24 <undef_vec>
       8:	e59ff018 	ldr	pc, [pc, #24]	@ 28 <svc_vec>
       c:	e59ff018 	ldr	pc, [pc, #24]	@ 2c <pabt_vec>
      10:	e59ff018 	ldr	pc, [pc, #24]	@ 30 <dabt_vec>
      14:	ebfffffa 	bl	4 <undef>
      18:	e51ffff0 	ldr	pc, [pc, #-4080]	@ fffff030 <ROM_TOP+0x9ff7030>
      1c:	e59ff018 	ldr	pc, [pc, #24]	@ 3c <fiq_vec>

00000020 <reset_vec>:
      20:	00000078 	.word	0x00000078

00000024 <undef_vec>:
      24:	000000d8 	.word	0x000000d8

00000028 <svc_vec>:
      28:	000000e0 	.word	0x000000e0

0000002c <pabt_vec>:
      2c:	000000e8 	.word	0x000000e8

00000030 <dabt_vec>:
      30:	000000f0 	.word	0x000000f0

00000034 <aplx_proc>:
      34:	00000365 	.word	0x00000365

00000038 <irq_vec>:
      38:	000000f8 	.word	0x000000f8

0000003c <fiq_vec>:
      3c:	00000100 	.word	0x00000100

00000040 <svc_stack>:
      40:	0060      	.short	0x0060

00000042 <irq_stack>:
      42:	0040      	.short	0x0040

00000044 <fiq_stack>:
      44:	0040      	.short	0x0040

00000046 <stack_size>:
      46:	0800      	.short	0x0800

00000048 <code_top>:
      48:	00007a80 	.word	0x00007a80

0000004c <heap_base>:
      4c:	004011d4 	.word	0x004011d4

00000050 <stack_top>:
      50:	00410000 	.word	0x00410000

00000054 <stack_fill>:
      54:	deaddead 	.word	0xdeaddead

00000058 <num_msgs>:
      58:	04          	.byte	0x04

00000059 <sark_slot>:
      59:	0f          	.byte	0x0f

0000005a <num_events>:
      5a:	10          	.byte	0x10

0000005b <api>:
	...

0000005c <app_id>:
	...

0000005d <app_flags>:
	...

0000005e <__PAD>:
	...

00000060 <event_vec>:
	...

00000078 <reset_entry>:
      78:	e24f1060 	sub	r1, pc, #96	@ 0x60
      7c:	e1c103bc 	strh	r0, [r1, #60]	@ 0x3c
      80:	e28f0048 	add	r0, pc, #72	@ 0x48
      84:	e5810000 	str	r0, [r1]
      88:	e59f00f4 	ldr	r0, [pc, #244]	@ 184 <DMA_CRCT+0x4>
      8c:	ee010f10 	mcr	15, 0, r0, cr1, cr0, {0}
      90:	e321f0d3 	msr	CPSR_c, #211	@ 0xd3
      94:	e3a0d902 	mov	sp, #32768	@ 0x8000
      98:	fa0000ac 	blx	350 <sark_config>
      9c:	e51fd054 	ldr	sp, [pc, #-84]	@ 50 <stack_top>
      a0:	e15f26b2 	ldrh	r2, [pc, #-98]	@ 46 <stack_size>
      a4:	e51f1058 	ldr	r1, [pc, #-88]	@ 54 <stack_fill>
      a8:	e04d0002 	sub	r0, sp, r2
      ac:	eb000061 	bl	238 <sark_word_set>
      b0:	e1a0000d 	mov	r0, sp
      b4:	fa00167f 	blx	5ab8 <sark_init>
      b8:	e121f000 	msr	CPSR_c, r0
      bc:	fb001732 	blx	5d8e <sark_wait>
      c0:	fa001c07 	blx	70e4 <sark_pre_main>
      c4:	eb00013f 	bl	5c8 <c_main>
      c8:	fa001c11 	blx	7114 <sark_post_main>
      cc:	eb00002a 	bl	17c <cpu_sleep>

000000d0 <reset_error>:
      d0:	e3a00001 	mov	r0, #1
      d4:	ea000014 	b	12c <rt_error>

000000d8 <undef_error>:
      d8:	e3a0b002 	mov	fp, #2
      dc:	ea00000c 	b	114 <exc_error>

000000e0 <svc_error>:
      e0:	e3a0b003 	mov	fp, #3
      e4:	ea00000a 	b	114 <exc_error>

000000e8 <pabt_error>:
      e8:	e3a0b004 	mov	fp, #4
      ec:	ea000008 	b	114 <exc_error>

000000f0 <dabt_error>:
      f0:	e3a0b005 	mov	fp, #5
      f4:	ea000006 	b	114 <exc_error>

000000f8 <irq_error>:
      f8:	e3a0b006 	mov	fp, #6
      fc:	ea000004 	b	114 <exc_error>

00000100 <fiq_error>:
     100:	e3a0b007 	mov	fp, #7
     104:	ea000002 	b	114 <exc_error>

00000108 <vic_error>:
     108:	e3a0b008 	mov	fp, #8
     10c:	e3a0042f 	mov	r0, #788529152	@ 0x2f000000
     110:	e5900030 	ldr	r0, [r0, #48]	@ 0x30

00000114 <exc_error>:
     114:	e1a0a00e 	mov	sl, lr
     118:	e14f8000 	mrs	r8, SPSR
     11c:	e38890c0 	orr	r9, r8, #192	@ 0xc0
     120:	e3c99020 	bic	r9, r9, #32
     124:	e12ff009 	msr	CPSR_fsxc, r9
     128:	ea000002 	b	138 <cc_error>

0000012c <rt_error>:
     12c:	e1a0b000 	mov	fp, r0
     130:	e10f8000 	mrs	r8, CPSR
     134:	e1a0a00e 	mov	sl, lr

00000138 <cc_error>:
     138:	e59fc048 	ldr	ip, [pc, #72]	@ 188 <DMA_CRCT+0x8>
     13c:	e59cc000 	ldr	ip, [ip]
     140:	e3a09080 	mov	r9, #128	@ 0x80
     144:	e59fe040 	ldr	lr, [pc, #64]	@ 18c <DMA_CRCT+0xc>
     148:	e02ee99c 	mla	lr, ip, r9, lr
     14c:	e1a0900d 	mov	r9, sp
     150:	e88e07ff 	stm	lr, {r0, r1, r2, r3, r4, r5, r6, r7, r8, r9, sl}
     154:	e5ceb02c 	strb	fp, [lr, #44]	@ 0x2c
     158:	e3a08002 	mov	r8, #2
     15c:	e5ce802e 	strb	r8, [lr, #46]	@ 0x2e
     160:	e1a0000b 	mov	r0, fp
     164:	e321f0d3 	msr	CPSR_c, #211	@ 0xd3
     168:	fa00160a 	blx	5998 <rte_handler>

0000016c <cpu_shutdown>:
     16c:	e321f0d3 	msr	CPSR_c, #211	@ 0xd3
     170:	e3a0042f 	mov	r0, #788529152	@ 0x2f000000
     174:	e3e01000 	mvn	r1, #0
     178:	e5801014 	str	r1, [r0, #20]

0000017c <cpu_sleep>:
     17c:	ee070f90 	mcr	15, 0, r0, cr7, cr0, {4}
     180:	eafffffd 	b	17c <cpu_sleep>
     184:	00001f7e 	.word	0x00001f7e
     188:	00400aac 	.word	0x00400aac
     18c:	e5007000 	.word	0xe5007000

00000190 <cpu_init_mode>:
     190:	e10f3000 	mrs	r3, CPSR
     194:	e121f001 	msr	CPSR_c, r1
     198:	e1a0d000 	mov	sp, r0
     19c:	e12ff003 	msr	CPSR_fsxc, r3
     1a0:	e0400102 	sub	r0, r0, r2, lsl #2
     1a4:	e12fff1e 	bx	lr

000001a8 <cpu_int_enable>:
     1a8:	e10f0000 	mrs	r0, CPSR
     1ac:	e3c010c0 	bic	r1, r0, #192	@ 0xc0
     1b0:	e121f001 	msr	CPSR_c, r1
     1b4:	e12fff1e 	bx	lr

000001b8 <cpu_int_disable>:
     1b8:	e10f0000 	mrs	r0, CPSR
     1bc:	e38010c0 	orr	r1, r0, #192	@ 0xc0
     1c0:	e121f001 	msr	CPSR_c, r1
     1c4:	e12fff1e 	bx	lr

000001c8 <cpu_int_restore>:
     1c8:	e12ff000 	msr	CPSR_fsxc, r0
     1cc:	e12fff1e 	bx	lr

000001d0 <cpu_wfi>:
     1d0:	ee070f90 	mcr	15, 0, r0, cr7, cr0, {4}
     1d4:	e12fff1e 	bx	lr

000001d8 <sark_lock_get>:
     1d8:	e3a0c4e2 	mov	ip, #-503316480	@ 0xe2000000
     1dc:	e08cc100 	add	ip, ip, r0, lsl #2
     1e0:	e10f0000 	mrs	r0, CPSR
     1e4:	e38010c0 	orr	r1, r0, #192	@ 0xc0
     1e8:	e121f001 	msr	CPSR_c, r1

000001ec <lg1>:
     1ec:	e59c1100 	ldr	r1, [ip, #256]	@ 0x100
     1f0:	e3110102 	tst	r1, #-2147483648	@ 0x80000000
     1f4:	1afffffc 	bne	1ec <lg1>
     1f8:	e12fff1e 	bx	lr

000001fc <sark_lock_free>:
     1fc:	e3a0c4e2 	mov	ip, #-503316480	@ 0xe2000000
     200:	e08c1101 	add	r1, ip, r1, lsl #2
     204:	e5911180 	ldr	r1, [r1, #384]	@ 0x180
     208:	e121f000 	msr	CPSR_c, r0
     20c:	e12fff1e 	bx	lr

00000210 <sark_mem_cpy>:
     210:	e2522001 	subs	r2, r2, #1
     214:	24d13001 	ldrbcs	r3, [r1], #1
     218:	24c03001 	strbcs	r3, [r0], #1
     21c:	2afffffb 	bcs	210 <sark_mem_cpy>
     220:	e12fff1e 	bx	lr

00000224 <sark_str_cpy>:
     224:	e4d12001 	ldrb	r2, [r1], #1
     228:	e3520000 	cmp	r2, #0
     22c:	e4c02001 	strb	r2, [r0], #1
     230:	1afffffb 	bne	224 <sark_str_cpy>
     234:	e12fff1e 	bx	lr

00000238 <sark_word_set>:
     238:	e1a03001 	mov	r3, r1

0000023c <ws1>:
     23c:	e2522010 	subs	r2, r2, #16
     240:	28a0000a 	stmiacs	r0!, {r1, r3}
     244:	28a0000a 	stmiacs	r0!, {r1, r3}
     248:	2afffffb 	bcs	23c <ws1>
     24c:	e1b02e82 	lsls	r2, r2, #29
     250:	28a0000a 	stmiacs	r0!, {r1, r3}
     254:	48a00002 	stmiami	r0!, {r1}
     258:	e12fff1e 	bx	lr

0000025c <sark_msg_cpy>:
     25c:	e2800004 	add	r0, r0, #4
     260:	e2811004 	add	r1, r1, #4
     264:	e1d120b0 	ldrh	r2, [r1]
     268:	e2822004 	add	r2, r2, #4

0000026c <sark_word_cpy>:
     26c:	e3120003 	tst	r2, #3
     270:	13c22003 	bicne	r2, r2, #3
     274:	12822004 	addne	r2, r2, #4
     278:	e92d4010 	push	{r4, lr}
     27c:	e2522020 	subs	r2, r2, #32
     280:	3a000005 	bcc	29c <wc2>

00000284 <wc1>:
     284:	e8b15018 	ldm	r1!, {r3, r4, ip, lr}
     288:	e8a05018 	stmia	r0!, {r3, r4, ip, lr}
     28c:	e8b15018 	ldm	r1!, {r3, r4, ip, lr}
     290:	e8a05018 	stmia	r0!, {r3, r4, ip, lr}
     294:	e2522020 	subs	r2, r2, #32
     298:	2afffff9 	bcs	284 <wc1>

0000029c <wc2>:
     29c:	e1b0ce02 	lsls	ip, r2, #28
     2a0:	28b15018 	ldmcs	r1!, {r3, r4, ip, lr}
     2a4:	28a05018 	stmiacs	r0!, {r3, r4, ip, lr}
     2a8:	48b10018 	ldmmi	r1!, {r3, r4}
     2ac:	48a00018 	stmiami	r0!, {r3, r4}
     2b0:	e1b0cf02 	lsls	ip, r2, #30
     2b4:	24913004 	ldrcs	r3, [r1], #4
     2b8:	24803004 	strcs	r3, [r0], #4
     2bc:	e8bd8010 	pop	{r4, pc}

000002c0 <sark_div10>:
     2c0:	e241200a 	sub	r2, r1, #10
     2c4:	e0411121 	sub	r1, r1, r1, lsr #2
     2c8:	e0811221 	add	r1, r1, r1, lsr #4
     2cc:	e0811421 	add	r1, r1, r1, lsr #8
     2d0:	e0811821 	add	r1, r1, r1, lsr #16
     2d4:	e1a011a1 	lsr	r1, r1, #3
     2d8:	e0813101 	add	r3, r1, r1, lsl #2
     2dc:	e0522083 	subs	r2, r2, r3, lsl #1
     2e0:	52811001 	addpl	r1, r1, #1
     2e4:	4282200a 	addmi	r2, r2, #10
     2e8:	e8800006 	stm	r0, {r1, r2}
     2ec:	e12fff1e 	bx	lr

000002f0 <sark_int_han>:
     2f0:	e92d500f 	push	{r0, r1, r2, r3, ip, lr}
     2f4:	e24e0004 	sub	r0, lr, #4
     2f8:	e14fc000 	mrs	ip, SPSR
     2fc:	e321f01f 	msr	CPSR_c, #31
     300:	e92d5000 	push	{ip, lr}
     304:	fa0016a6 	blx	5da4 <sark_int>
     308:	e8bd5000 	pop	{ip, lr}
     30c:	e321f092 	msr	CPSR_c, #146	@ 0x92
     310:	e16ff00c 	msr	SPSR_fsxc, ip
     314:	e3a0042f 	mov	r0, #788529152	@ 0x2f000000
     318:	e5800030 	str	r0, [r0, #48]	@ 0x30
     31c:	e8bd500f 	pop	{r0, r1, r2, r3, ip, lr}

00000320 <null_int_han>:
     320:	e25ef004 	subs	pc, lr, #4

00000324 <schedule>:
     324:	e92d5000 	push	{ip, lr}
     328:	e10fc000 	mrs	ip, CPSR
     32c:	e3cce01f 	bic	lr, ip, #31
     330:	e38ee01f 	orr	lr, lr, #31
     334:	e121f00e 	msr	CPSR_c, lr
     338:	e92d5000 	push	{ip, lr}
     33c:	fa001b49 	blx	7068 <schedule_sysmode>
     340:	e8bd5000 	pop	{ip, lr}
     344:	e121f00c 	msr	CPSR_c, ip
     348:	e8bd5000 	pop	{ip, lr}
     34c:	e12fff1e 	bx	lr

00000350 <sark_config>:
     350:	4770      	bx	lr

00000352 <sark_bx>:
     352:	4700      	bx	r0

00000354 <__gnu_thumb1_case_uqi>:
     354:	468c      	mov	ip, r1
     356:	4671      	mov	r1, lr
     358:	3901      	subs	r1, #1
     35a:	5c09      	ldrb	r1, [r1, r0]
     35c:	0049      	lsls	r1, r1, #1
     35e:	448e      	add	lr, r1
     360:	4661      	mov	r1, ip
     362:	4770      	bx	lr

00000364 <sark_aplx>:
     364:	b5f2      	push	{r1, r4, r5, r6, r7, lr}
     366:	4905      	ldr	r1, [pc, #20]	@ (37c <aplx_buffer>)
     368:	a605      	add	r6, pc, #20	@ (adr r6, 380 <aplx_loader>)
     36a:	2740      	movs	r7, #64	@ 0x40

0000036c <aplx_l0>:
     36c:	ce3c      	ldmia	r6!, {r2, r3, r4, r5}
     36e:	c13c      	stmia	r1!, {r2, r3, r4, r5}
     370:	3f10      	subs	r7, #16
     372:	d1fb      	bne.n	36c <aplx_l0>
     374:	1c04      	adds	r4, r0, #0
     376:	393f      	subs	r1, #63	@ 0x3f
     378:	4708      	bx	r1
	...

0000037c <aplx_buffer>:
     37c:	00007fc0 	.word	0x00007fc0

00000380 <aplx_loader>:
     380:	cc0f      	ldmia	r4!, {r0, r1, r2, r3}
     382:	2801      	cmp	r0, #1
     384:	d008      	beq.n	398 <aplx_copy>
     386:	2802      	cmp	r0, #2
     388:	d004      	beq.n	394 <aplx_rcopy>
     38a:	2803      	cmp	r0, #3
     38c:	d00b      	beq.n	3a6 <aplx_fill>
     38e:	2804      	cmp	r0, #4
     390:	d011      	beq.n	3b6 <aplx_exec>
     392:	bdf2      	pop	{r1, r4, r5, r6, r7, pc}

00000394 <aplx_rcopy>:
     394:	1912      	adds	r2, r2, r4
     396:	3a10      	subs	r2, #16

00000398 <aplx_copy>:
     398:	cae1      	ldmia	r2!, {r0, r5, r6, r7}
     39a:	c1e1      	stmia	r1!, {r0, r5, r6, r7}
     39c:	cae1      	ldmia	r2!, {r0, r5, r6, r7}
     39e:	c1e1      	stmia	r1!, {r0, r5, r6, r7}
     3a0:	3b20      	subs	r3, #32
     3a2:	d8f9      	bhi.n	398 <aplx_copy>
     3a4:	e7ec      	b.n	380 <aplx_loader>

000003a6 <aplx_fill>:
     3a6:	1c1d      	adds	r5, r3, #0
     3a8:	1c1e      	adds	r6, r3, #0
     3aa:	1c1f      	adds	r7, r3, #0

000003ac <aplx_l1>:
     3ac:	c1e8      	stmia	r1!, {r3, r5, r6, r7}
     3ae:	c1e8      	stmia	r1!, {r3, r5, r6, r7}
     3b0:	3a20      	subs	r2, #32
     3b2:	d8fb      	bhi.n	3ac <aplx_l1>
     3b4:	e7e4      	b.n	380 <aplx_loader>

000003b6 <aplx_exec>:
     3b6:	9800      	ldr	r0, [sp, #0]
     3b8:	4788      	blx	r1
     3ba:	e7e1      	b.n	380 <aplx_loader>

000003bc <spin1_set_timer_tick>:
     3bc:	e92d4800 	push	{fp, lr}
     3c0:	e28db004 	add	fp, sp, #4
     3c4:	e24dd008 	sub	sp, sp, #8
     3c8:	e50b0008 	str	r0, [fp, #-8]
     3cc:	e3a01000 	mov	r1, #0
     3d0:	e51b0008 	ldr	r0, [fp, #-8]
     3d4:	fa001ade 	blx	6f54 <spin1_set_timer_tick_and_phase>
     3d8:	e1a00000 	nop			@ (mov r0, r0)
     3dc:	e24bd004 	sub	sp, fp, #4
     3e0:	e8bd8800 	pop	{fp, pc}

000003e4 <spin1_send_mc_packet>:
     3e4:	e92d4800 	push	{fp, lr}
     3e8:	e28db004 	add	fp, sp, #4
     3ec:	e24dd018 	sub	sp, sp, #24
     3f0:	e50b0010 	str	r0, [fp, #-16]
     3f4:	e50b1014 	str	r1, [fp, #-20]	@ 0xffffffec
     3f8:	e50b2018 	str	r2, [fp, #-24]	@ 0xffffffe8
     3fc:	e51b3018 	ldr	r3, [fp, #-24]	@ 0xffffffe8
     400:	e3530000 	cmp	r3, #0
     404:	0a000001 	beq	410 <MC_TABLE_SIZE+0x10>
     408:	e3a03802 	mov	r3, #131072	@ 0x20000
     40c:	ea000000 	b	414 <MC_TABLE_SIZE+0x14>
     410:	e3a03000 	mov	r3, #0
     414:	e50b3008 	str	r3, [fp, #-8]
     418:	e51b2008 	ldr	r2, [fp, #-8]
     41c:	e51b1014 	ldr	r1, [fp, #-20]	@ 0xffffffec
     420:	e51b0010 	ldr	r0, [fp, #-16]
     424:	fa001ad2 	blx	6f74 <spin1_send_packet>
     428:	e1a03000 	mov	r3, r0
     42c:	e1a00003 	mov	r0, r3
     430:	e24bd004 	sub	sp, fp, #4
     434:	e8bd8800 	pop	{fp, pc}

00000438 <timer_callback>:
     438:	e92d4800 	push	{fp, lr}
     43c:	e28db004 	add	fp, sp, #4
     440:	e24dd008 	sub	sp, sp, #8
     444:	e50b0008 	str	r0, [fp, #-8]
     448:	e50b100c 	str	r1, [fp, #-12]
     44c:	e59f2064 	ldr	r2, [pc, #100]	@ 4b8 <timer_callback+0x80>
     450:	e51b3008 	ldr	r3, [fp, #-8]
     454:	e5823000 	str	r3, [r2]
     458:	e59f3058 	ldr	r3, [pc, #88]	@ 4b8 <timer_callback+0x80>
     45c:	e5933000 	ldr	r3, [r3]
     460:	e1a00003 	mov	r0, r3
     464:	eb000134 	bl	93c <neuron_update_all>
     468:	e59f304c 	ldr	r3, [pc, #76]	@ 4bc <timer_callback+0x84>
     46c:	e5933000 	ldr	r3, [r3]
     470:	e3530000 	cmp	r3, #0
     474:	0a00000a 	beq	4a4 <timer_callback+0x6c>
     478:	e59f303c 	ldr	r3, [pc, #60]	@ 4bc <timer_callback+0x84>
     47c:	e5933000 	ldr	r3, [r3]
     480:	e1a00003 	mov	r0, r3
     484:	eb000475 	bl	1660 <synapse_modulate_all>
     488:	e59f302c 	ldr	r3, [pc, #44]	@ 4bc <timer_callback+0x84>
     48c:	e5933000 	ldr	r3, [r3]
     490:	e1a00003 	mov	r0, r3
     494:	eb000b0f 	bl	30d8 <cra_state_record_reward>
     498:	e59f301c 	ldr	r3, [pc, #28]	@ 4bc <timer_callback+0x84>
     49c:	e3a02000 	mov	r2, #0
     4a0:	e5832000 	str	r2, [r3]
     4a4:	e59f0014 	ldr	r0, [pc, #20]	@ 4c0 <timer_callback+0x88>
     4a8:	eb000419 	bl	1514 <synapse_decay_traces_all>
     4ac:	e1a00000 	nop			@ (mov r0, r0)
     4b0:	e24bd004 	sub	sp, fp, #4
     4b4:	e8bd8800 	pop	{fp, pc}
     4b8:	00400010 	.word	0x00400010
     4bc:	00400014 	.word	0x00400014
     4c0:	00007f5c 	.word	0x00007f5c

000004c4 <mc_packet_callback>:
     4c4:	e92d4800 	push	{fp, lr}
     4c8:	e28db004 	add	fp, sp, #4
     4cc:	e24dd010 	sub	sp, sp, #16
     4d0:	e50b0010 	str	r0, [fp, #-16]
     4d4:	e50b1014 	str	r1, [fp, #-20]	@ 0xffffffec
     4d8:	e51b3010 	ldr	r3, [fp, #-16]
     4dc:	e1a03c23 	lsr	r3, r3, #24
     4e0:	e50b3008 	str	r3, [fp, #-8]
     4e4:	e59f3030 	ldr	r3, [pc, #48]	@ 51c <mc_packet_callback+0x58>
     4e8:	e5933000 	ldr	r3, [r3]
     4ec:	e51b2008 	ldr	r2, [fp, #-8]
     4f0:	e1520003 	cmp	r2, r3
     4f4:	1a000005 	bne	510 <mc_packet_callback+0x4c>
     4f8:	e51b3010 	ldr	r3, [fp, #-16]
     4fc:	e3c334ff 	bic	r3, r3, #-16777216	@ 0xff000000
     500:	e50b300c 	str	r3, [fp, #-12]
     504:	e51b000c 	ldr	r0, [fp, #-12]
     508:	eb0003cb 	bl	143c <synapse_deliver_spike>
     50c:	ea000000 	b	514 <mc_packet_callback+0x50>
     510:	e1a00000 	nop			@ (mov r0, r0)
     514:	e24bd004 	sub	sp, fp, #4
     518:	e8bd8800 	pop	{fp, pc}
     51c:	00400000 	.word	0x00400000

00000520 <sdp_callback>:
     520:	e92d4800 	push	{fp, lr}
     524:	e28db004 	add	fp, sp, #4
     528:	e24dd008 	sub	sp, sp, #8
     52c:	e50b0008 	str	r0, [fp, #-8]
     530:	e50b100c 	str	r1, [fp, #-12]
     534:	e51b100c 	ldr	r1, [fp, #-12]
     538:	e51b0008 	ldr	r0, [fp, #-8]
     53c:	eb0012be 	bl	503c <sdp_rx_callback>
     540:	e1a00000 	nop			@ (mov r0, r0)
     544:	e24bd004 	sub	sp, fp, #4
     548:	e8bd8800 	pop	{fp, pc}

0000054c <get_app_id>:
     54c:	e52db004 	push	{fp}		@ (str fp, [sp, #-4]!)
     550:	e28db000 	add	fp, sp, #0
     554:	e59f3010 	ldr	r3, [pc, #16]	@ 56c <get_app_id+0x20>
     558:	e5933000 	ldr	r3, [r3]
     55c:	e1a00003 	mov	r0, r3
     560:	e28bd000 	add	sp, fp, #0
     564:	e49db004 	pop	{fp}		@ (ldr fp, [sp], #4)
     568:	e12fff1e 	bx	lr
     56c:	00400000 	.word	0x00400000

00000570 <emit_spike>:
     570:	e92d4800 	push	{fp, lr}
     574:	e28db004 	add	fp, sp, #4
     578:	e24dd010 	sub	sp, sp, #16
     57c:	e50b0010 	str	r0, [fp, #-16]
     580:	e59f3038 	ldr	r3, [pc, #56]	@ 5c0 <SPARE_SIZE+0x20>
     584:	e5933000 	ldr	r3, [r3]
     588:	e1a02c03 	lsl	r2, r3, #24
     58c:	e51b3010 	ldr	r3, [fp, #-16]
     590:	e3c334ff 	bic	r3, r3, #-16777216	@ 0xff000000
     594:	e1823003 	orr	r3, r2, r3
     598:	e50b3008 	str	r3, [fp, #-8]
     59c:	e59f3020 	ldr	r3, [pc, #32]	@ 5c4 <SPARE_SIZE+0x24>
     5a0:	e5933000 	ldr	r3, [r3]
     5a4:	e3a02001 	mov	r2, #1
     5a8:	e1a01003 	mov	r1, r3
     5ac:	e51b0008 	ldr	r0, [fp, #-8]
     5b0:	ebffff8b 	bl	3e4 <spin1_send_mc_packet>
     5b4:	e1a00000 	nop			@ (mov r0, r0)
     5b8:	e24bd004 	sub	sp, fp, #4
     5bc:	e8bd8800 	pop	{fp, pc}
     5c0:	00400000 	.word	0x00400000
     5c4:	00400010 	.word	0x00400010

000005c8 <c_main>:
     5c8:	e92d4800 	push	{fp, lr}
     5cc:	e28db004 	add	fp, sp, #4
     5d0:	e3a00007 	mov	r0, #7
     5d4:	fa0014f5 	blx	59b0 <sark_cpu_state>
     5d8:	eb00001b 	bl	64c <neuron_mgr_init>
     5dc:	eb000816 	bl	263c <cra_state_init>
     5e0:	eb001431 	bl	56ac <router_init>
     5e4:	eb00128e 	bl	5024 <host_if_init>
     5e8:	e3a00ffa 	mov	r0, #1000	@ 0x3e8
     5ec:	ebffff72 	bl	3bc <spin1_set_timer_tick>
     5f0:	e3a02001 	mov	r2, #1
     5f4:	e59f1044 	ldr	r1, [pc, #68]	@ 640 <ETH_TX_SIZE+0x40>
     5f8:	e3a00002 	mov	r0, #2
     5fc:	fa001a25 	blx	6e98 <spin1_callback_on>
     600:	e3a02000 	mov	r2, #0
     604:	e59f1038 	ldr	r1, [pc, #56]	@ 644 <ETH_TX_SIZE+0x44>
     608:	e3a00000 	mov	r0, #0
     60c:	fa001a21 	blx	6e98 <spin1_callback_on>
     610:	e3a02000 	mov	r2, #0
     614:	e59f1028 	ldr	r1, [pc, #40]	@ 644 <ETH_TX_SIZE+0x44>
     618:	e3a00005 	mov	r0, #5
     61c:	fa001a1d 	blx	6e98 <spin1_callback_on>
     620:	e3a02000 	mov	r2, #0
     624:	e59f101c 	ldr	r1, [pc, #28]	@ 648 <ETH_TX_SIZE+0x48>
     628:	e3a00003 	mov	r0, #3
     62c:	fa001a19 	blx	6e98 <spin1_callback_on>
     630:	e3a00000 	mov	r0, #0
     634:	fa001a4b 	blx	6f68 <spin1_start>
     638:	e1a00000 	nop			@ (mov r0, r0)
     63c:	e8bd8800 	pop	{fp, pc}
     640:	00000438 	.word	0x00000438
     644:	000004c4 	.word	0x000004c4
     648:	00000520 	.word	0x00000520

0000064c <neuron_mgr_init>:
     64c:	e92d4800 	push	{fp, lr}
     650:	e28db004 	add	fp, sp, #4
     654:	e59f3028 	ldr	r3, [pc, #40]	@ 684 <neuron_mgr_init+0x38>
     658:	e3a02000 	mov	r2, #0
     65c:	e5832000 	str	r2, [r3]
     660:	e59f3020 	ldr	r3, [pc, #32]	@ 688 <neuron_mgr_init+0x3c>
     664:	e3a02000 	mov	r2, #0
     668:	e5832000 	str	r2, [r3]
     66c:	ebffffb6 	bl	54c <get_app_id>
     670:	e1a03000 	mov	r3, r0
     674:	e59f2010 	ldr	r2, [pc, #16]	@ 68c <neuron_mgr_init+0x40>
     678:	e5823000 	str	r3, [r2]
     67c:	e1a00000 	nop			@ (mov r0, r0)
     680:	e8bd8800 	pop	{fp, pc}
     684:	00400018 	.word	0x00400018
     688:	0040001c 	.word	0x0040001c
     68c:	00400020 	.word	0x00400020

00000690 <neuron_birth>:
     690:	e92d4800 	push	{fp, lr}
     694:	e28db004 	add	fp, sp, #4
     698:	e24dd010 	sub	sp, sp, #16
     69c:	e50b0010 	str	r0, [fp, #-16]
     6a0:	e59f3110 	ldr	r3, [pc, #272]	@ 7b8 <neuron_birth+0x128>
     6a4:	e5933000 	ldr	r3, [r3]
     6a8:	e3530b01 	cmp	r3, #1024	@ 0x400
     6ac:	3a000001 	bcc	6b8 <neuron_birth+0x28>
     6b0:	e3a03000 	mov	r3, #0
     6b4:	ea00003c 	b	7ac <neuron_birth+0x11c>
     6b8:	e3a01034 	mov	r1, #52	@ 0x34
     6bc:	e3a00001 	mov	r0, #1
     6c0:	fa0016f9 	blx	62ac <sark_alloc>
     6c4:	e1a03000 	mov	r3, r0
     6c8:	e50b3008 	str	r3, [fp, #-8]
     6cc:	e51b3008 	ldr	r3, [fp, #-8]
     6d0:	e3530000 	cmp	r3, #0
     6d4:	1a000001 	bne	6e0 <neuron_birth+0x50>
     6d8:	e3a03000 	mov	r3, #0
     6dc:	ea000032 	b	7ac <neuron_birth+0x11c>
     6e0:	e51b3008 	ldr	r3, [fp, #-8]
     6e4:	e51b2010 	ldr	r2, [fp, #-16]
     6e8:	e5832000 	str	r2, [r3]
     6ec:	e51b3008 	ldr	r3, [fp, #-8]
     6f0:	e59f20c4 	ldr	r2, [pc, #196]	@ 7bc <neuron_birth+0x12c>
     6f4:	e5832004 	str	r2, [r3, #4]
     6f8:	e51b3008 	ldr	r3, [fp, #-8]
     6fc:	e59f20bc 	ldr	r2, [pc, #188]	@ 7c0 <neuron_birth+0x130>
     700:	e5832008 	str	r2, [r3, #8]
     704:	e51b3008 	ldr	r3, [fp, #-8]
     708:	e59f20b4 	ldr	r2, [pc, #180]	@ 7c4 <neuron_birth+0x134>
     70c:	e583200c 	str	r2, [r3, #12]
     710:	e51b3008 	ldr	r3, [fp, #-8]
     714:	e59f20a0 	ldr	r2, [pc, #160]	@ 7bc <neuron_birth+0x12c>
     718:	e5832010 	str	r2, [r3, #16]
     71c:	e51b3008 	ldr	r3, [fp, #-8]
     720:	e3a02000 	mov	r2, #0
     724:	e5832014 	str	r2, [r3, #20]
     728:	e51b3008 	ldr	r3, [fp, #-8]
     72c:	e3a0280a 	mov	r2, #655360	@ 0xa0000
     730:	e5832018 	str	r2, [r3, #24]
     734:	e51b3008 	ldr	r3, [fp, #-8]
     738:	e3a02002 	mov	r2, #2
     73c:	e583201c 	str	r2, [r3, #28]
     740:	e51b3008 	ldr	r3, [fp, #-8]
     744:	e3a02000 	mov	r2, #0
     748:	e5832020 	str	r2, [r3, #32]
     74c:	e51b3008 	ldr	r3, [fp, #-8]
     750:	e3a02000 	mov	r2, #0
     754:	e5832024 	str	r2, [r3, #36]	@ 0x24
     758:	e51b3008 	ldr	r3, [fp, #-8]
     75c:	e3a02000 	mov	r2, #0
     760:	e5832028 	str	r2, [r3, #40]	@ 0x28
     764:	e51b3008 	ldr	r3, [fp, #-8]
     768:	e3a02000 	mov	r2, #0
     76c:	e583202c 	str	r2, [r3, #44]	@ 0x2c
     770:	e59f3050 	ldr	r3, [pc, #80]	@ 7c8 <neuron_birth+0x138>
     774:	e5932000 	ldr	r2, [r3]
     778:	e51b3008 	ldr	r3, [fp, #-8]
     77c:	e5832030 	str	r2, [r3, #48]	@ 0x30
     780:	e59f2040 	ldr	r2, [pc, #64]	@ 7c8 <neuron_birth+0x138>
     784:	e51b3008 	ldr	r3, [fp, #-8]
     788:	e5823000 	str	r3, [r2]
     78c:	e59f3024 	ldr	r3, [pc, #36]	@ 7b8 <neuron_birth+0x128>
     790:	e5933000 	ldr	r3, [r3]
     794:	e2833001 	add	r3, r3, #1
     798:	e59f2018 	ldr	r2, [pc, #24]	@ 7b8 <neuron_birth+0x128>
     79c:	e5823000 	str	r3, [r2]
     7a0:	e51b0010 	ldr	r0, [fp, #-16]
     7a4:	eb0013d1 	bl	56f0 <router_add_neuron>
     7a8:	e51b3008 	ldr	r3, [fp, #-8]
     7ac:	e1a00003 	mov	r0, r3
     7b0:	e24bd004 	sub	sp, fp, #4
     7b4:	e8bd8800 	pop	{fp, pc}
     7b8:	0040001c 	.word	0x0040001c
     7bc:	ffdf8000 	.word	0xffdf8000
     7c0:	ffe48000 	.word	0xffe48000
     7c4:	ffdd0000 	.word	0xffdd0000
     7c8:	00400018 	.word	0x00400018

000007cc <neuron_death>:
     7cc:	e92d4800 	push	{fp, lr}
     7d0:	e28db004 	add	fp, sp, #4
     7d4:	e24dd010 	sub	sp, sp, #16
     7d8:	e50b0010 	str	r0, [fp, #-16]
     7dc:	e59f3094 	ldr	r3, [pc, #148]	@ 878 <STACK_SIZE+0x78>
     7e0:	e50b3008 	str	r3, [fp, #-8]
     7e4:	ea00001b 	b	858 <STACK_SIZE+0x58>
     7e8:	e51b3008 	ldr	r3, [fp, #-8]
     7ec:	e5933000 	ldr	r3, [r3]
     7f0:	e50b300c 	str	r3, [fp, #-12]
     7f4:	e51b300c 	ldr	r3, [fp, #-12]
     7f8:	e5933000 	ldr	r3, [r3]
     7fc:	e51b2010 	ldr	r2, [fp, #-16]
     800:	e1520003 	cmp	r2, r3
     804:	1a000010 	bne	84c <STACK_SIZE+0x4c>
     808:	e51b300c 	ldr	r3, [fp, #-12]
     80c:	e5932030 	ldr	r2, [r3, #48]	@ 0x30
     810:	e51b3008 	ldr	r3, [fp, #-8]
     814:	e5832000 	str	r2, [r3]
     818:	e51b0010 	ldr	r0, [fp, #-16]
     81c:	eb0003cb 	bl	1750 <synapse_remove_incident>
     820:	e51b0010 	ldr	r0, [fp, #-16]
     824:	eb001406 	bl	5844 <router_remove_neuron>
     828:	e51b000c 	ldr	r0, [fp, #-12]
     82c:	fa0016cd 	blx	6368 <sark_free>
     830:	e59f3044 	ldr	r3, [pc, #68]	@ 87c <STACK_SIZE+0x7c>
     834:	e5933000 	ldr	r3, [r3]
     838:	e2433001 	sub	r3, r3, #1
     83c:	e59f2038 	ldr	r2, [pc, #56]	@ 87c <STACK_SIZE+0x7c>
     840:	e5823000 	str	r3, [r2]
     844:	e3a03000 	mov	r3, #0
     848:	ea000007 	b	86c <STACK_SIZE+0x6c>
     84c:	e51b300c 	ldr	r3, [fp, #-12]
     850:	e2833030 	add	r3, r3, #48	@ 0x30
     854:	e50b3008 	str	r3, [fp, #-8]
     858:	e51b3008 	ldr	r3, [fp, #-8]
     85c:	e5933000 	ldr	r3, [r3]
     860:	e3530000 	cmp	r3, #0
     864:	1affffdf 	bne	7e8 <neuron_death+0x1c>
     868:	e3e03000 	mvn	r3, #0
     86c:	e1a00003 	mov	r0, r3
     870:	e24bd004 	sub	sp, fp, #4
     874:	e8bd8800 	pop	{fp, pc}
     878:	00400018 	.word	0x00400018
     87c:	0040001c 	.word	0x0040001c

00000880 <neuron_find>:
     880:	e52db004 	push	{fp}		@ (str fp, [sp, #-4]!)
     884:	e28db000 	add	fp, sp, #0
     888:	e24dd014 	sub	sp, sp, #20
     88c:	e50b0010 	str	r0, [fp, #-16]
     890:	e59f3050 	ldr	r3, [pc, #80]	@ 8e8 <neuron_find+0x68>
     894:	e5933000 	ldr	r3, [r3]
     898:	e50b3008 	str	r3, [fp, #-8]
     89c:	ea000009 	b	8c8 <neuron_find+0x48>
     8a0:	e51b3008 	ldr	r3, [fp, #-8]
     8a4:	e5933000 	ldr	r3, [r3]
     8a8:	e51b2010 	ldr	r2, [fp, #-16]
     8ac:	e1520003 	cmp	r2, r3
     8b0:	1a000001 	bne	8bc <neuron_find+0x3c>
     8b4:	e51b3008 	ldr	r3, [fp, #-8]
     8b8:	ea000006 	b	8d8 <neuron_find+0x58>
     8bc:	e51b3008 	ldr	r3, [fp, #-8]
     8c0:	e5933030 	ldr	r3, [r3, #48]	@ 0x30
     8c4:	e50b3008 	str	r3, [fp, #-8]
     8c8:	e51b3008 	ldr	r3, [fp, #-8]
     8cc:	e3530000 	cmp	r3, #0
     8d0:	1afffff2 	bne	8a0 <neuron_find+0x20>
     8d4:	e3a03000 	mov	r3, #0
     8d8:	e1a00003 	mov	r0, r3
     8dc:	e28bd000 	add	sp, fp, #0
     8e0:	e49db004 	pop	{fp}		@ (ldr fp, [sp], #4)
     8e4:	e12fff1e 	bx	lr
     8e8:	00400018 	.word	0x00400018

000008ec <neuron_add_input>:
     8ec:	e92d4800 	push	{fp, lr}
     8f0:	e28db004 	add	fp, sp, #4
     8f4:	e24dd010 	sub	sp, sp, #16
     8f8:	e50b0010 	str	r0, [fp, #-16]
     8fc:	e50b1014 	str	r1, [fp, #-20]	@ 0xffffffec
     900:	e51b0010 	ldr	r0, [fp, #-16]
     904:	ebffffdd 	bl	880 <neuron_find>
     908:	e50b0008 	str	r0, [fp, #-8]
     90c:	e51b3008 	ldr	r3, [fp, #-8]
     910:	e3530000 	cmp	r3, #0
     914:	0a000005 	beq	930 <neuron_add_input+0x44>
     918:	e51b3008 	ldr	r3, [fp, #-8]
     91c:	e5932024 	ldr	r2, [r3, #36]	@ 0x24
     920:	e51b3014 	ldr	r3, [fp, #-20]	@ 0xffffffec
     924:	e0822003 	add	r2, r2, r3
     928:	e51b3008 	ldr	r3, [fp, #-8]
     92c:	e5832024 	str	r2, [r3, #36]	@ 0x24
     930:	e1a00000 	nop			@ (mov r0, r0)
     934:	e24bd004 	sub	sp, fp, #4
     938:	e8bd8800 	pop	{fp, pc}

0000093c <neuron_update_all>:
     93c:	e92d4800 	push	{fp, lr}
     940:	e28db004 	add	fp, sp, #4
     944:	e24dd010 	sub	sp, sp, #16
     948:	e50b0010 	str	r0, [fp, #-16]
     94c:	e59f3140 	ldr	r3, [pc, #320]	@ a94 <neuron_update_all+0x158>
     950:	e5933000 	ldr	r3, [r3]
     954:	e50b3008 	str	r3, [fp, #-8]
     958:	ea000046 	b	a78 <neuron_update_all+0x13c>
     95c:	e51b3008 	ldr	r3, [fp, #-8]
     960:	e5933020 	ldr	r3, [r3, #32]
     964:	e3530000 	cmp	r3, #0
     968:	0a000009 	beq	994 <neuron_update_all+0x58>
     96c:	e51b3008 	ldr	r3, [fp, #-8]
     970:	e5933020 	ldr	r3, [r3, #32]
     974:	e2432001 	sub	r2, r3, #1
     978:	e51b3008 	ldr	r3, [fp, #-8]
     97c:	e5832020 	str	r2, [r3, #32]
     980:	e51b3008 	ldr	r3, [fp, #-8]
     984:	e593200c 	ldr	r2, [r3, #12]
     988:	e51b3008 	ldr	r3, [fp, #-8]
     98c:	e5832004 	str	r2, [r3, #4]
     990:	ea000032 	b	a60 <neuron_update_all+0x124>
     994:	e51b3008 	ldr	r3, [fp, #-8]
     998:	e5932010 	ldr	r2, [r3, #16]
     99c:	e51b3008 	ldr	r3, [fp, #-8]
     9a0:	e5933004 	ldr	r3, [r3, #4]
     9a4:	e0423003 	sub	r3, r2, r3
     9a8:	e1a02783 	lsl	r2, r3, #15
     9ac:	e51b3008 	ldr	r3, [fp, #-8]
     9b0:	e5933018 	ldr	r3, [r3, #24]
     9b4:	e1a01003 	mov	r1, r3
     9b8:	e1a00002 	mov	r0, r2
     9bc:	eb001b33 	bl	7690 <__divsi3>
     9c0:	e1a03000 	mov	r3, r0
     9c4:	e50b300c 	str	r3, [fp, #-12]
     9c8:	e51b3008 	ldr	r3, [fp, #-8]
     9cc:	e5932004 	ldr	r2, [r3, #4]
     9d0:	e51b3008 	ldr	r3, [fp, #-8]
     9d4:	e5931014 	ldr	r1, [r3, #20]
     9d8:	e51b300c 	ldr	r3, [fp, #-12]
     9dc:	e0811003 	add	r1, r1, r3
     9e0:	e51b3008 	ldr	r3, [fp, #-8]
     9e4:	e5933024 	ldr	r3, [r3, #36]	@ 0x24
     9e8:	e0813003 	add	r3, r1, r3
     9ec:	e0822003 	add	r2, r2, r3
     9f0:	e51b3008 	ldr	r3, [fp, #-8]
     9f4:	e5832004 	str	r2, [r3, #4]
     9f8:	e51b3008 	ldr	r3, [fp, #-8]
     9fc:	e5932004 	ldr	r2, [r3, #4]
     a00:	e51b3008 	ldr	r3, [fp, #-8]
     a04:	e5933008 	ldr	r3, [r3, #8]
     a08:	e1520003 	cmp	r2, r3
     a0c:	ba000013 	blt	a60 <neuron_update_all+0x124>
     a10:	e51b3008 	ldr	r3, [fp, #-8]
     a14:	e593200c 	ldr	r2, [r3, #12]
     a18:	e51b3008 	ldr	r3, [fp, #-8]
     a1c:	e5832004 	str	r2, [r3, #4]
     a20:	e51b3008 	ldr	r3, [fp, #-8]
     a24:	e593201c 	ldr	r2, [r3, #28]
     a28:	e51b3008 	ldr	r3, [fp, #-8]
     a2c:	e5832020 	str	r2, [r3, #32]
     a30:	e51b3008 	ldr	r3, [fp, #-8]
     a34:	e5933028 	ldr	r3, [r3, #40]	@ 0x28
     a38:	e2832001 	add	r2, r3, #1
     a3c:	e51b3008 	ldr	r3, [fp, #-8]
     a40:	e5832028 	str	r2, [r3, #40]	@ 0x28
     a44:	e51b3008 	ldr	r3, [fp, #-8]
     a48:	e51b2010 	ldr	r2, [fp, #-16]
     a4c:	e583202c 	str	r2, [r3, #44]	@ 0x2c
     a50:	e51b3008 	ldr	r3, [fp, #-8]
     a54:	e5933000 	ldr	r3, [r3]
     a58:	e1a00003 	mov	r0, r3
     a5c:	ebfffec3 	bl	570 <emit_spike>
     a60:	e51b3008 	ldr	r3, [fp, #-8]
     a64:	e3a02000 	mov	r2, #0
     a68:	e5832024 	str	r2, [r3, #36]	@ 0x24
     a6c:	e51b3008 	ldr	r3, [fp, #-8]
     a70:	e5933030 	ldr	r3, [r3, #48]	@ 0x30
     a74:	e50b3008 	str	r3, [fp, #-8]
     a78:	e51b3008 	ldr	r3, [fp, #-8]
     a7c:	e3530000 	cmp	r3, #0
     a80:	1affffb5 	bne	95c <neuron_update_all+0x20>
     a84:	e1a00000 	nop			@ (mov r0, r0)
     a88:	e1a00000 	nop			@ (mov r0, r0)
     a8c:	e24bd004 	sub	sp, fp, #4
     a90:	e8bd8800 	pop	{fp, pc}
     a94:	00400018 	.word	0x00400018

00000a98 <neuron_count>:
     a98:	e52db004 	push	{fp}		@ (str fp, [sp, #-4]!)
     a9c:	e28db000 	add	fp, sp, #0
     aa0:	e59f3010 	ldr	r3, [pc, #16]	@ ab8 <neuron_count+0x20>
     aa4:	e5933000 	ldr	r3, [r3]
     aa8:	e1a00003 	mov	r0, r3
     aac:	e28bd000 	add	sp, fp, #0
     ab0:	e49db004 	pop	{fp}		@ (ldr fp, [sp], #4)
     ab4:	e12fff1e 	bx	lr
     ab8:	0040001c 	.word	0x0040001c

00000abc <neuron_list_head>:
     abc:	e52db004 	push	{fp}		@ (str fp, [sp, #-4]!)
     ac0:	e28db000 	add	fp, sp, #0
     ac4:	e59f3010 	ldr	r3, [pc, #16]	@ adc <neuron_list_head+0x20>
     ac8:	e5933000 	ldr	r3, [r3]
     acc:	e1a00003 	mov	r0, r3
     ad0:	e28bd000 	add	sp, fp, #0
     ad4:	e49db004 	pop	{fp}		@ (ldr fp, [sp], #4)
     ad8:	e12fff1e 	bx	lr
     adc:	00400018 	.word	0x00400018

00000ae0 <neuron_reset_all>:
     ae0:	e92d4800 	push	{fp, lr}
     ae4:	e28db004 	add	fp, sp, #4
     ae8:	e24dd008 	sub	sp, sp, #8
     aec:	eb001382 	bl	58fc <router_reset_all>
     af0:	ea000008 	b	b18 <neuron_reset_all+0x38>
     af4:	e59f3044 	ldr	r3, [pc, #68]	@ b40 <neuron_reset_all+0x60>
     af8:	e5933000 	ldr	r3, [r3]
     afc:	e50b3008 	str	r3, [fp, #-8]
     b00:	e51b3008 	ldr	r3, [fp, #-8]
     b04:	e5933030 	ldr	r3, [r3, #48]	@ 0x30
     b08:	e59f2030 	ldr	r2, [pc, #48]	@ b40 <neuron_reset_all+0x60>
     b0c:	e5823000 	str	r3, [r2]
     b10:	e51b0008 	ldr	r0, [fp, #-8]
     b14:	fa001613 	blx	6368 <sark_free>
     b18:	e59f3020 	ldr	r3, [pc, #32]	@ b40 <neuron_reset_all+0x60>
     b1c:	e5933000 	ldr	r3, [r3]
     b20:	e3530000 	cmp	r3, #0
     b24:	1afffff2 	bne	af4 <neuron_reset_all+0x14>
     b28:	e59f3014 	ldr	r3, [pc, #20]	@ b44 <neuron_reset_all+0x64>
     b2c:	e3a02000 	mov	r2, #0
     b30:	e5832000 	str	r2, [r3]
     b34:	e1a00000 	nop			@ (mov r0, r0)
     b38:	e24bd004 	sub	sp, fp, #4
     b3c:	e8bd8800 	pop	{fp, pc}
     b40:	00400018 	.word	0x00400018
     b44:	0040001c 	.word	0x0040001c

00000b48 <_find_post>:
     b48:	e52db004 	push	{fp}		@ (str fp, [sp, #-4]!)
     b4c:	e28db000 	add	fp, sp, #0
     b50:	e24dd014 	sub	sp, sp, #20
     b54:	e50b0010 	str	r0, [fp, #-16]
     b58:	e59f3050 	ldr	r3, [pc, #80]	@ bb0 <_find_post+0x68>
     b5c:	e5933000 	ldr	r3, [r3]
     b60:	e50b3008 	str	r3, [fp, #-8]
     b64:	ea000009 	b	b90 <_find_post+0x48>
     b68:	e51b3008 	ldr	r3, [fp, #-8]
     b6c:	e5933000 	ldr	r3, [r3]
     b70:	e51b2010 	ldr	r2, [fp, #-16]
     b74:	e1520003 	cmp	r2, r3
     b78:	1a000001 	bne	b84 <_find_post+0x3c>
     b7c:	e51b3008 	ldr	r3, [fp, #-8]
     b80:	ea000006 	b	ba0 <_find_post+0x58>
     b84:	e51b3008 	ldr	r3, [fp, #-8]
     b88:	e5933008 	ldr	r3, [r3, #8]
     b8c:	e50b3008 	str	r3, [fp, #-8]
     b90:	e51b3008 	ldr	r3, [fp, #-8]
     b94:	e3530000 	cmp	r3, #0
     b98:	1afffff2 	bne	b68 <_find_post+0x20>
     b9c:	e3a03000 	mov	r3, #0
     ba0:	e1a00003 	mov	r0, r3
     ba4:	e28bd000 	add	sp, fp, #0
     ba8:	e49db004 	pop	{fp}		@ (ldr fp, [sp], #4)
     bac:	e12fff1e 	bx	lr
     bb0:	00400038 	.word	0x00400038

00000bb4 <_find_pre>:
     bb4:	e52db004 	push	{fp}		@ (str fp, [sp, #-4]!)
     bb8:	e28db000 	add	fp, sp, #0
     bbc:	e24dd014 	sub	sp, sp, #20
     bc0:	e50b0010 	str	r0, [fp, #-16]
     bc4:	e59f3050 	ldr	r3, [pc, #80]	@ c1c <ETH_RX_SIZE+0x1c>
     bc8:	e5933000 	ldr	r3, [r3]
     bcc:	e50b3008 	str	r3, [fp, #-8]
     bd0:	ea000009 	b	bfc <_find_pre+0x48>
     bd4:	e51b3008 	ldr	r3, [fp, #-8]
     bd8:	e5933000 	ldr	r3, [r3]
     bdc:	e51b2010 	ldr	r2, [fp, #-16]
     be0:	e1520003 	cmp	r2, r3
     be4:	1a000001 	bne	bf0 <_find_pre+0x3c>
     be8:	e51b3008 	ldr	r3, [fp, #-8]
     bec:	ea000006 	b	c0c <ETH_RX_SIZE+0xc>
     bf0:	e51b3008 	ldr	r3, [fp, #-8]
     bf4:	e5933008 	ldr	r3, [r3, #8]
     bf8:	e50b3008 	str	r3, [fp, #-8]
     bfc:	e51b3008 	ldr	r3, [fp, #-8]
     c00:	e3530000 	cmp	r3, #0
     c04:	1afffff2 	bne	bd4 <_find_pre+0x20>
     c08:	e3a03000 	mov	r3, #0
     c0c:	e1a00003 	mov	r0, r3
     c10:	e28bd000 	add	sp, fp, #0
     c14:	e49db004 	pop	{fp}		@ (ldr fp, [sp], #4)
     c18:	e12fff1e 	bx	lr
     c1c:	0040003c 	.word	0x0040003c

00000c20 <_find_or_create_post>:
     c20:	e92d4800 	push	{fp, lr}
     c24:	e28db004 	add	fp, sp, #4
     c28:	e24dd010 	sub	sp, sp, #16
     c2c:	e50b0010 	str	r0, [fp, #-16]
     c30:	e51b0010 	ldr	r0, [fp, #-16]
     c34:	ebffffc3 	bl	b48 <_find_post>
     c38:	e50b0008 	str	r0, [fp, #-8]
     c3c:	e51b3008 	ldr	r3, [fp, #-8]
     c40:	e3530000 	cmp	r3, #0
     c44:	0a000001 	beq	c50 <_find_or_create_post+0x30>
     c48:	e51b3008 	ldr	r3, [fp, #-8]
     c4c:	ea000017 	b	cb0 <_find_or_create_post+0x90>
     c50:	e3a0100c 	mov	r1, #12
     c54:	e3a00001 	mov	r0, #1
     c58:	fa001593 	blx	62ac <sark_alloc>
     c5c:	e1a03000 	mov	r3, r0
     c60:	e50b3008 	str	r3, [fp, #-8]
     c64:	e51b3008 	ldr	r3, [fp, #-8]
     c68:	e3530000 	cmp	r3, #0
     c6c:	1a000001 	bne	c78 <_find_or_create_post+0x58>
     c70:	e3a03000 	mov	r3, #0
     c74:	ea00000d 	b	cb0 <_find_or_create_post+0x90>
     c78:	e51b3008 	ldr	r3, [fp, #-8]
     c7c:	e51b2010 	ldr	r2, [fp, #-16]
     c80:	e5832000 	str	r2, [r3]
     c84:	e51b3008 	ldr	r3, [fp, #-8]
     c88:	e3a02000 	mov	r2, #0
     c8c:	e5832004 	str	r2, [r3, #4]
     c90:	e59f3024 	ldr	r3, [pc, #36]	@ cbc <_find_or_create_post+0x9c>
     c94:	e5932000 	ldr	r2, [r3]
     c98:	e51b3008 	ldr	r3, [fp, #-8]
     c9c:	e5832008 	str	r2, [r3, #8]
     ca0:	e59f2014 	ldr	r2, [pc, #20]	@ cbc <_find_or_create_post+0x9c>
     ca4:	e51b3008 	ldr	r3, [fp, #-8]
     ca8:	e5823000 	str	r3, [r2]
     cac:	e51b3008 	ldr	r3, [fp, #-8]
     cb0:	e1a00003 	mov	r0, r3
     cb4:	e24bd004 	sub	sp, fp, #4
     cb8:	e8bd8800 	pop	{fp, pc}
     cbc:	00400038 	.word	0x00400038

00000cc0 <_find_or_create_pre>:
     cc0:	e92d4800 	push	{fp, lr}
     cc4:	e28db004 	add	fp, sp, #4
     cc8:	e24dd010 	sub	sp, sp, #16
     ccc:	e50b0010 	str	r0, [fp, #-16]
     cd0:	e51b0010 	ldr	r0, [fp, #-16]
     cd4:	ebffffb6 	bl	bb4 <_find_pre>
     cd8:	e50b0008 	str	r0, [fp, #-8]
     cdc:	e51b3008 	ldr	r3, [fp, #-8]
     ce0:	e3530000 	cmp	r3, #0
     ce4:	0a000001 	beq	cf0 <_find_or_create_pre+0x30>
     ce8:	e51b3008 	ldr	r3, [fp, #-8]
     cec:	ea000017 	b	d50 <_find_or_create_pre+0x90>
     cf0:	e3a0100c 	mov	r1, #12
     cf4:	e3a00001 	mov	r0, #1
     cf8:	fa00156b 	blx	62ac <sark_alloc>
     cfc:	e1a03000 	mov	r3, r0
     d00:	e50b3008 	str	r3, [fp, #-8]
     d04:	e51b3008 	ldr	r3, [fp, #-8]
     d08:	e3530000 	cmp	r3, #0
     d0c:	1a000001 	bne	d18 <_find_or_create_pre+0x58>
     d10:	e3a03000 	mov	r3, #0
     d14:	ea00000d 	b	d50 <_find_or_create_pre+0x90>
     d18:	e51b3008 	ldr	r3, [fp, #-8]
     d1c:	e51b2010 	ldr	r2, [fp, #-16]
     d20:	e5832000 	str	r2, [r3]
     d24:	e51b3008 	ldr	r3, [fp, #-8]
     d28:	e3a02000 	mov	r2, #0
     d2c:	e5832004 	str	r2, [r3, #4]
     d30:	e59f3024 	ldr	r3, [pc, #36]	@ d5c <_find_or_create_pre+0x9c>
     d34:	e5932000 	ldr	r2, [r3]
     d38:	e51b3008 	ldr	r3, [fp, #-8]
     d3c:	e5832008 	str	r2, [r3, #8]
     d40:	e59f2014 	ldr	r2, [pc, #20]	@ d5c <_find_or_create_pre+0x9c>
     d44:	e51b3008 	ldr	r3, [fp, #-8]
     d48:	e5823000 	str	r3, [r2]
     d4c:	e51b3008 	ldr	r3, [fp, #-8]
     d50:	e1a00003 	mov	r0, r3
     d54:	e24bd004 	sub	sp, fp, #4
     d58:	e8bd8800 	pop	{fp, pc}
     d5c:	0040003c 	.word	0x0040003c

00000d60 <_clip_weight>:
     d60:	e52db004 	push	{fp}		@ (str fp, [sp, #-4]!)
     d64:	e28db000 	add	fp, sp, #0
     d68:	e24dd00c 	sub	sp, sp, #12
     d6c:	e50b0008 	str	r0, [fp, #-8]
     d70:	e51b3008 	ldr	r3, [fp, #-8]
     d74:	e3530902 	cmp	r3, #32768	@ 0x8000
     d78:	da000001 	ble	d84 <_clip_weight+0x24>
     d7c:	e3a03902 	mov	r3, #32768	@ 0x8000
     d80:	ea000005 	b	d9c <_clip_weight+0x3c>
     d84:	e51b3008 	ldr	r3, [fp, #-8]
     d88:	e3730902 	cmn	r3, #32768	@ 0x8000
     d8c:	aa000001 	bge	d98 <_clip_weight+0x38>
     d90:	e59f3014 	ldr	r3, [pc, #20]	@ dac <_clip_weight+0x4c>
     d94:	ea000000 	b	d9c <_clip_weight+0x3c>
     d98:	e51b3008 	ldr	r3, [fp, #-8]
     d9c:	e1a00003 	mov	r0, r3
     da0:	e28bd000 	add	sp, fp, #0
     da4:	e49db004 	pop	{fp}		@ (ldr fp, [sp], #4)
     da8:	e12fff1e 	bx	lr
     dac:	ffff8000 	.word	0xffff8000

00000db0 <_drop_empty_post_entry>:
     db0:	e92d4800 	push	{fp, lr}
     db4:	e28db004 	add	fp, sp, #4
     db8:	e24dd010 	sub	sp, sp, #16
     dbc:	e50b0010 	str	r0, [fp, #-16]
     dc0:	e59f307c 	ldr	r3, [pc, #124]	@ e44 <_drop_empty_post_entry+0x94>
     dc4:	e50b3008 	str	r3, [fp, #-8]
     dc8:	ea000015 	b	e24 <_drop_empty_post_entry+0x74>
     dcc:	e51b3008 	ldr	r3, [fp, #-8]
     dd0:	e5933000 	ldr	r3, [r3]
     dd4:	e50b300c 	str	r3, [fp, #-12]
     dd8:	e51b300c 	ldr	r3, [fp, #-12]
     ddc:	e5933000 	ldr	r3, [r3]
     de0:	e51b2010 	ldr	r2, [fp, #-16]
     de4:	e1520003 	cmp	r2, r3
     de8:	1a00000a 	bne	e18 <_drop_empty_post_entry+0x68>
     dec:	e51b300c 	ldr	r3, [fp, #-12]
     df0:	e5933004 	ldr	r3, [r3, #4]
     df4:	e3530000 	cmp	r3, #0
     df8:	1a00000e 	bne	e38 <_drop_empty_post_entry+0x88>
     dfc:	e51b300c 	ldr	r3, [fp, #-12]
     e00:	e5932008 	ldr	r2, [r3, #8]
     e04:	e51b3008 	ldr	r3, [fp, #-8]
     e08:	e5832000 	str	r2, [r3]
     e0c:	e51b000c 	ldr	r0, [fp, #-12]
     e10:	fa001554 	blx	6368 <sark_free>
     e14:	ea000007 	b	e38 <_drop_empty_post_entry+0x88>
     e18:	e51b300c 	ldr	r3, [fp, #-12]
     e1c:	e2833008 	add	r3, r3, #8
     e20:	e50b3008 	str	r3, [fp, #-8]
     e24:	e51b3008 	ldr	r3, [fp, #-8]
     e28:	e5933000 	ldr	r3, [r3]
     e2c:	e3530000 	cmp	r3, #0
     e30:	1affffe5 	bne	dcc <_drop_empty_post_entry+0x1c>
     e34:	ea000000 	b	e3c <_drop_empty_post_entry+0x8c>
     e38:	e1a00000 	nop			@ (mov r0, r0)
     e3c:	e24bd004 	sub	sp, fp, #4
     e40:	e8bd8800 	pop	{fp, pc}
     e44:	00400038 	.word	0x00400038

00000e48 <_drop_empty_pre_entry>:
     e48:	e92d4800 	push	{fp, lr}
     e4c:	e28db004 	add	fp, sp, #4
     e50:	e24dd010 	sub	sp, sp, #16
     e54:	e50b0010 	str	r0, [fp, #-16]
     e58:	e59f307c 	ldr	r3, [pc, #124]	@ edc <_drop_empty_pre_entry+0x94>
     e5c:	e50b3008 	str	r3, [fp, #-8]
     e60:	ea000015 	b	ebc <_drop_empty_pre_entry+0x74>
     e64:	e51b3008 	ldr	r3, [fp, #-8]
     e68:	e5933000 	ldr	r3, [r3]
     e6c:	e50b300c 	str	r3, [fp, #-12]
     e70:	e51b300c 	ldr	r3, [fp, #-12]
     e74:	e5933000 	ldr	r3, [r3]
     e78:	e51b2010 	ldr	r2, [fp, #-16]
     e7c:	e1520003 	cmp	r2, r3
     e80:	1a00000a 	bne	eb0 <_drop_empty_pre_entry+0x68>
     e84:	e51b300c 	ldr	r3, [fp, #-12]
     e88:	e5933004 	ldr	r3, [r3, #4]
     e8c:	e3530000 	cmp	r3, #0
     e90:	1a00000e 	bne	ed0 <_drop_empty_pre_entry+0x88>
     e94:	e51b300c 	ldr	r3, [fp, #-12]
     e98:	e5932008 	ldr	r2, [r3, #8]
     e9c:	e51b3008 	ldr	r3, [fp, #-8]
     ea0:	e5832000 	str	r2, [r3]
     ea4:	e51b000c 	ldr	r0, [fp, #-12]
     ea8:	fa00152e 	blx	6368 <sark_free>
     eac:	ea000007 	b	ed0 <_drop_empty_pre_entry+0x88>
     eb0:	e51b300c 	ldr	r3, [fp, #-12]
     eb4:	e2833008 	add	r3, r3, #8
     eb8:	e50b3008 	str	r3, [fp, #-8]
     ebc:	e51b3008 	ldr	r3, [fp, #-8]
     ec0:	e5933000 	ldr	r3, [r3]
     ec4:	e3530000 	cmp	r3, #0
     ec8:	1affffe5 	bne	e64 <_drop_empty_pre_entry+0x1c>
     ecc:	ea000000 	b	ed4 <_drop_empty_pre_entry+0x8c>
     ed0:	e1a00000 	nop			@ (mov r0, r0)
     ed4:	e24bd004 	sub	sp, fp, #4
     ed8:	e8bd8800 	pop	{fp, pc}
     edc:	0040003c 	.word	0x0040003c

00000ee0 <_unlink_from_post>:
     ee0:	e92d4800 	push	{fp, lr}
     ee4:	e28db004 	add	fp, sp, #4
     ee8:	e24dd010 	sub	sp, sp, #16
     eec:	e50b0010 	str	r0, [fp, #-16]
     ef0:	e51b3010 	ldr	r3, [fp, #-16]
     ef4:	e5933004 	ldr	r3, [r3, #4]
     ef8:	e1a00003 	mov	r0, r3
     efc:	ebffff11 	bl	b48 <_find_post>
     f00:	e50b000c 	str	r0, [fp, #-12]
     f04:	e51b300c 	ldr	r3, [fp, #-12]
     f08:	e3530000 	cmp	r3, #0
     f0c:	0a00001d 	beq	f88 <RTR_TST2+0x84>
     f10:	e51b300c 	ldr	r3, [fp, #-12]
     f14:	e2833004 	add	r3, r3, #4
     f18:	e50b3008 	str	r3, [fp, #-8]
     f1c:	ea000014 	b	f74 <RTR_TST2+0x70>
     f20:	e51b3008 	ldr	r3, [fp, #-8]
     f24:	e5933000 	ldr	r3, [r3]
     f28:	e51b2010 	ldr	r2, [fp, #-16]
     f2c:	e1520003 	cmp	r2, r3
     f30:	1a00000b 	bne	f64 <RTR_TST2+0x60>
     f34:	e51b3010 	ldr	r3, [fp, #-16]
     f38:	e5932018 	ldr	r2, [r3, #24]
     f3c:	e51b3008 	ldr	r3, [fp, #-8]
     f40:	e5832000 	str	r2, [r3]
     f44:	e51b3010 	ldr	r3, [fp, #-16]
     f48:	e3a02000 	mov	r2, #0
     f4c:	e5832018 	str	r2, [r3, #24]
     f50:	e51b3010 	ldr	r3, [fp, #-16]
     f54:	e5933004 	ldr	r3, [r3, #4]
     f58:	e1a00003 	mov	r0, r3
     f5c:	ebffff93 	bl	db0 <_drop_empty_post_entry>
     f60:	ea000009 	b	f8c <RTR_TST2+0x88>
     f64:	e51b3008 	ldr	r3, [fp, #-8]
     f68:	e5933000 	ldr	r3, [r3]
     f6c:	e2833018 	add	r3, r3, #24
     f70:	e50b3008 	str	r3, [fp, #-8]
     f74:	e51b3008 	ldr	r3, [fp, #-8]
     f78:	e5933000 	ldr	r3, [r3]
     f7c:	e3530000 	cmp	r3, #0
     f80:	1affffe6 	bne	f20 <RTR_TST2+0x1c>
     f84:	ea000000 	b	f8c <RTR_TST2+0x88>
     f88:	e1a00000 	nop			@ (mov r0, r0)
     f8c:	e24bd004 	sub	sp, fp, #4
     f90:	e8bd8800 	pop	{fp, pc}

00000f94 <_unlink_from_pre>:
     f94:	e92d4800 	push	{fp, lr}
     f98:	e28db004 	add	fp, sp, #4
     f9c:	e24dd010 	sub	sp, sp, #16
     fa0:	e50b0010 	str	r0, [fp, #-16]
     fa4:	e51b3010 	ldr	r3, [fp, #-16]
     fa8:	e5933000 	ldr	r3, [r3]
     fac:	e1a00003 	mov	r0, r3
     fb0:	ebfffeff 	bl	bb4 <_find_pre>
     fb4:	e50b000c 	str	r0, [fp, #-12]
     fb8:	e51b300c 	ldr	r3, [fp, #-12]
     fbc:	e3530000 	cmp	r3, #0
     fc0:	0a00001d 	beq	103c <SV_SIZE+0x3c>
     fc4:	e51b300c 	ldr	r3, [fp, #-12]
     fc8:	e2833004 	add	r3, r3, #4
     fcc:	e50b3008 	str	r3, [fp, #-8]
     fd0:	ea000014 	b	1028 <SV_SIZE+0x28>
     fd4:	e51b3008 	ldr	r3, [fp, #-8]
     fd8:	e5933000 	ldr	r3, [r3]
     fdc:	e51b2010 	ldr	r2, [fp, #-16]
     fe0:	e1520003 	cmp	r2, r3
     fe4:	1a00000b 	bne	1018 <SV_SIZE+0x18>
     fe8:	e51b3010 	ldr	r3, [fp, #-16]
     fec:	e593201c 	ldr	r2, [r3, #28]
     ff0:	e51b3008 	ldr	r3, [fp, #-8]
     ff4:	e5832000 	str	r2, [r3]
     ff8:	e51b3010 	ldr	r3, [fp, #-16]
     ffc:	e3a02000 	mov	r2, #0
    1000:	e583201c 	str	r2, [r3, #28]
    1004:	e51b3010 	ldr	r3, [fp, #-16]
    1008:	e5933000 	ldr	r3, [r3]
    100c:	e1a00003 	mov	r0, r3
    1010:	ebffff8c 	bl	e48 <_drop_empty_pre_entry>
    1014:	ea000009 	b	1040 <SV_SIZE+0x40>
    1018:	e51b3008 	ldr	r3, [fp, #-8]
    101c:	e5933000 	ldr	r3, [r3]
    1020:	e283301c 	add	r3, r3, #28
    1024:	e50b3008 	str	r3, [fp, #-8]
    1028:	e51b3008 	ldr	r3, [fp, #-8]
    102c:	e5933000 	ldr	r3, [r3]
    1030:	e3530000 	cmp	r3, #0
    1034:	1affffe6 	bne	fd4 <_unlink_from_pre+0x40>
    1038:	ea000000 	b	1040 <SV_SIZE+0x40>
    103c:	e1a00000 	nop			@ (mov r0, r0)
    1040:	e24bd004 	sub	sp, fp, #4
    1044:	e8bd8800 	pop	{fp, pc}

00001048 <_unlink_from_active>:
    1048:	e52db004 	push	{fp}		@ (str fp, [sp, #-4]!)
    104c:	e28db000 	add	fp, sp, #0
    1050:	e24dd014 	sub	sp, sp, #20
    1054:	e50b0010 	str	r0, [fp, #-16]
    1058:	e51b3010 	ldr	r3, [fp, #-16]
    105c:	e5d33014 	ldrb	r3, [r3, #20]
    1060:	e3530000 	cmp	r3, #0
    1064:	0a000027 	beq	1108 <_unlink_from_active+0xc0>
    1068:	e59f30b0 	ldr	r3, [pc, #176]	@ 1120 <_unlink_from_active+0xd8>
    106c:	e50b3008 	str	r3, [fp, #-8]
    1070:	ea00001c 	b	10e8 <_unlink_from_active+0xa0>
    1074:	e51b3008 	ldr	r3, [fp, #-8]
    1078:	e5933000 	ldr	r3, [r3]
    107c:	e51b2010 	ldr	r2, [fp, #-16]
    1080:	e1520003 	cmp	r2, r3
    1084:	1a000013 	bne	10d8 <_unlink_from_active+0x90>
    1088:	e51b3010 	ldr	r3, [fp, #-16]
    108c:	e5932020 	ldr	r2, [r3, #32]
    1090:	e51b3008 	ldr	r3, [fp, #-8]
    1094:	e5832000 	str	r2, [r3]
    1098:	e51b3010 	ldr	r3, [fp, #-16]
    109c:	e3a02000 	mov	r2, #0
    10a0:	e5832020 	str	r2, [r3, #32]
    10a4:	e51b3010 	ldr	r3, [fp, #-16]
    10a8:	e3a02000 	mov	r2, #0
    10ac:	e5c32014 	strb	r2, [r3, #20]
    10b0:	e59f306c 	ldr	r3, [pc, #108]	@ 1124 <_unlink_from_active+0xdc>
    10b4:	e5933000 	ldr	r3, [r3]
    10b8:	e3530000 	cmp	r3, #0
    10bc:	0a000013 	beq	1110 <_unlink_from_active+0xc8>
    10c0:	e59f305c 	ldr	r3, [pc, #92]	@ 1124 <_unlink_from_active+0xdc>
    10c4:	e5933000 	ldr	r3, [r3]
    10c8:	e2433001 	sub	r3, r3, #1
    10cc:	e59f2050 	ldr	r2, [pc, #80]	@ 1124 <_unlink_from_active+0xdc>
    10d0:	e5823000 	str	r3, [r2]
    10d4:	ea00000d 	b	1110 <_unlink_from_active+0xc8>
    10d8:	e51b3008 	ldr	r3, [fp, #-8]
    10dc:	e5933000 	ldr	r3, [r3]
    10e0:	e2833020 	add	r3, r3, #32
    10e4:	e50b3008 	str	r3, [fp, #-8]
    10e8:	e51b3008 	ldr	r3, [fp, #-8]
    10ec:	e5933000 	ldr	r3, [r3]
    10f0:	e3530000 	cmp	r3, #0
    10f4:	1affffde 	bne	1074 <_unlink_from_active+0x2c>
    10f8:	e51b3010 	ldr	r3, [fp, #-16]
    10fc:	e3a02000 	mov	r2, #0
    1100:	e5c32014 	strb	r2, [r3, #20]
    1104:	ea000002 	b	1114 <_unlink_from_active+0xcc>
    1108:	e1a00000 	nop			@ (mov r0, r0)
    110c:	ea000000 	b	1114 <_unlink_from_active+0xcc>
    1110:	e1a00000 	nop			@ (mov r0, r0)
    1114:	e28bd000 	add	sp, fp, #0
    1118:	e49db004 	pop	{fp}		@ (ldr fp, [sp], #4)
    111c:	e12fff1e 	bx	lr
    1120:	00400040 	.word	0x00400040
    1124:	00400028 	.word	0x00400028

00001128 <_activate_trace>:
    1128:	e52db004 	push	{fp}		@ (str fp, [sp, #-4]!)
    112c:	e28db000 	add	fp, sp, #0
    1130:	e24dd00c 	sub	sp, sp, #12
    1134:	e50b0008 	str	r0, [fp, #-8]
    1138:	e51b3008 	ldr	r3, [fp, #-8]
    113c:	e5d33014 	ldrb	r3, [r3, #20]
    1140:	e3530000 	cmp	r3, #0
    1144:	1a00000f 	bne	1188 <_activate_trace+0x60>
    1148:	e59f3048 	ldr	r3, [pc, #72]	@ 1198 <_activate_trace+0x70>
    114c:	e5932000 	ldr	r2, [r3]
    1150:	e51b3008 	ldr	r3, [fp, #-8]
    1154:	e5832020 	str	r2, [r3, #32]
    1158:	e59f2038 	ldr	r2, [pc, #56]	@ 1198 <_activate_trace+0x70>
    115c:	e51b3008 	ldr	r3, [fp, #-8]
    1160:	e5823000 	str	r3, [r2]
    1164:	e51b3008 	ldr	r3, [fp, #-8]
    1168:	e3a02001 	mov	r2, #1
    116c:	e5c32014 	strb	r2, [r3, #20]
    1170:	e59f3024 	ldr	r3, [pc, #36]	@ 119c <_activate_trace+0x74>
    1174:	e5933000 	ldr	r3, [r3]
    1178:	e2833001 	add	r3, r3, #1
    117c:	e59f2018 	ldr	r2, [pc, #24]	@ 119c <_activate_trace+0x74>
    1180:	e5823000 	str	r3, [r2]
    1184:	ea000000 	b	118c <_activate_trace+0x64>
    1188:	e1a00000 	nop			@ (mov r0, r0)
    118c:	e28bd000 	add	sp, fp, #0
    1190:	e49db004 	pop	{fp}		@ (ldr fp, [sp], #4)
    1194:	e12fff1e 	bx	lr
    1198:	00400040 	.word	0x00400040
    119c:	00400028 	.word	0x00400028

000011a0 <_free_synapse>:
    11a0:	e92d4800 	push	{fp, lr}
    11a4:	e28db004 	add	fp, sp, #4
    11a8:	e24dd010 	sub	sp, sp, #16
    11ac:	e50b0010 	str	r0, [fp, #-16]
    11b0:	e51b3010 	ldr	r3, [fp, #-16]
    11b4:	e5933000 	ldr	r3, [r3]
    11b8:	e50b3008 	str	r3, [fp, #-8]
    11bc:	e51b3010 	ldr	r3, [fp, #-16]
    11c0:	e5933004 	ldr	r3, [r3, #4]
    11c4:	e50b300c 	str	r3, [fp, #-12]
    11c8:	e51b0010 	ldr	r0, [fp, #-16]
    11cc:	ebffff9d 	bl	1048 <_unlink_from_active>
    11d0:	e51b0010 	ldr	r0, [fp, #-16]
    11d4:	ebffff41 	bl	ee0 <_unlink_from_post>
    11d8:	e51b0010 	ldr	r0, [fp, #-16]
    11dc:	ebffff6c 	bl	f94 <_unlink_from_pre>
    11e0:	e51b0010 	ldr	r0, [fp, #-16]
    11e4:	fa00145f 	blx	6368 <sark_free>
    11e8:	e59f3038 	ldr	r3, [pc, #56]	@ 1228 <ZI_LENGTH+0x64>
    11ec:	e5933000 	ldr	r3, [r3]
    11f0:	e3530000 	cmp	r3, #0
    11f4:	0a000004 	beq	120c <ZI_LENGTH+0x48>
    11f8:	e59f3028 	ldr	r3, [pc, #40]	@ 1228 <ZI_LENGTH+0x64>
    11fc:	e5933000 	ldr	r3, [r3]
    1200:	e2433001 	sub	r3, r3, #1
    1204:	e59f201c 	ldr	r2, [pc, #28]	@ 1228 <ZI_LENGTH+0x64>
    1208:	e5823000 	str	r3, [r2]
    120c:	e51b000c 	ldr	r0, [fp, #-12]
    1210:	ebfffee6 	bl	db0 <_drop_empty_post_entry>
    1214:	e51b0008 	ldr	r0, [fp, #-8]
    1218:	ebffff0a 	bl	e48 <_drop_empty_pre_entry>
    121c:	e1a00000 	nop			@ (mov r0, r0)
    1220:	e24bd004 	sub	sp, fp, #4
    1224:	e8bd8800 	pop	{fp, pc}
    1228:	00400024 	.word	0x00400024

0000122c <_find_synapse>:
    122c:	e92d4800 	push	{fp, lr}
    1230:	e28db004 	add	fp, sp, #4
    1234:	e24dd010 	sub	sp, sp, #16
    1238:	e50b0010 	str	r0, [fp, #-16]
    123c:	e50b1014 	str	r1, [fp, #-20]	@ 0xffffffec
    1240:	e51b0010 	ldr	r0, [fp, #-16]
    1244:	ebfffe5a 	bl	bb4 <_find_pre>
    1248:	e50b000c 	str	r0, [fp, #-12]
    124c:	e51b300c 	ldr	r3, [fp, #-12]
    1250:	e3530000 	cmp	r3, #0
    1254:	1a000001 	bne	1260 <_find_synapse+0x34>
    1258:	e3a03000 	mov	r3, #0
    125c:	ea000011 	b	12a8 <_find_synapse+0x7c>
    1260:	e51b300c 	ldr	r3, [fp, #-12]
    1264:	e5933004 	ldr	r3, [r3, #4]
    1268:	e50b3008 	str	r3, [fp, #-8]
    126c:	ea000009 	b	1298 <_find_synapse+0x6c>
    1270:	e51b3008 	ldr	r3, [fp, #-8]
    1274:	e5933004 	ldr	r3, [r3, #4]
    1278:	e51b2014 	ldr	r2, [fp, #-20]	@ 0xffffffec
    127c:	e1520003 	cmp	r2, r3
    1280:	1a000001 	bne	128c <_find_synapse+0x60>
    1284:	e51b3008 	ldr	r3, [fp, #-8]
    1288:	ea000006 	b	12a8 <_find_synapse+0x7c>
    128c:	e51b3008 	ldr	r3, [fp, #-8]
    1290:	e593301c 	ldr	r3, [r3, #28]
    1294:	e50b3008 	str	r3, [fp, #-8]
    1298:	e51b3008 	ldr	r3, [fp, #-8]
    129c:	e3530000 	cmp	r3, #0
    12a0:	1afffff2 	bne	1270 <_find_synapse+0x44>
    12a4:	e3a03000 	mov	r3, #0
    12a8:	e1a00003 	mov	r0, r3
    12ac:	e24bd004 	sub	sp, fp, #4
    12b0:	e8bd8800 	pop	{fp, pc}

000012b4 <synapse_create>:
    12b4:	e92d4800 	push	{fp, lr}
    12b8:	e28db004 	add	fp, sp, #4
    12bc:	e24dd020 	sub	sp, sp, #32
    12c0:	e50b0018 	str	r0, [fp, #-24]	@ 0xffffffe8
    12c4:	e50b101c 	str	r1, [fp, #-28]	@ 0xffffffe4
    12c8:	e50b2020 	str	r2, [fp, #-32]	@ 0xffffffe0
    12cc:	e50b3024 	str	r3, [fp, #-36]	@ 0xffffffdc
    12d0:	e51b001c 	ldr	r0, [fp, #-28]	@ 0xffffffe4
    12d4:	ebfffe51 	bl	c20 <_find_or_create_post>
    12d8:	e50b0008 	str	r0, [fp, #-8]
    12dc:	e51b0018 	ldr	r0, [fp, #-24]	@ 0xffffffe8
    12e0:	ebfffe76 	bl	cc0 <_find_or_create_pre>
    12e4:	e50b000c 	str	r0, [fp, #-12]
    12e8:	e51b3008 	ldr	r3, [fp, #-8]
    12ec:	e3530000 	cmp	r3, #0
    12f0:	0a000002 	beq	1300 <synapse_create+0x4c>
    12f4:	e51b300c 	ldr	r3, [fp, #-12]
    12f8:	e3530000 	cmp	r3, #0
    12fc:	1a000001 	bne	1308 <synapse_create+0x54>
    1300:	e3e03000 	mvn	r3, #0
    1304:	ea000034 	b	13dc <synapse_create+0x128>
    1308:	e3a01024 	mov	r1, #36	@ 0x24
    130c:	e3a00001 	mov	r0, #1
    1310:	fa0013e5 	blx	62ac <sark_alloc>
    1314:	e1a03000 	mov	r3, r0
    1318:	e50b3010 	str	r3, [fp, #-16]
    131c:	e51b3010 	ldr	r3, [fp, #-16]
    1320:	e3530000 	cmp	r3, #0
    1324:	1a000001 	bne	1330 <synapse_create+0x7c>
    1328:	e3e03000 	mvn	r3, #0
    132c:	ea00002a 	b	13dc <synapse_create+0x128>
    1330:	e51b3010 	ldr	r3, [fp, #-16]
    1334:	e51b2018 	ldr	r2, [fp, #-24]	@ 0xffffffe8
    1338:	e5832000 	str	r2, [r3]
    133c:	e51b3010 	ldr	r3, [fp, #-16]
    1340:	e51b201c 	ldr	r2, [fp, #-28]	@ 0xffffffe4
    1344:	e5832004 	str	r2, [r3, #4]
    1348:	e51b0020 	ldr	r0, [fp, #-32]	@ 0xffffffe0
    134c:	ebfffe83 	bl	d60 <_clip_weight>
    1350:	e1a02000 	mov	r2, r0
    1354:	e51b3010 	ldr	r3, [fp, #-16]
    1358:	e5832008 	str	r2, [r3, #8]
    135c:	e51b3010 	ldr	r3, [fp, #-16]
    1360:	e3a02000 	mov	r2, #0
    1364:	e583200c 	str	r2, [r3, #12]
    1368:	e51b3010 	ldr	r3, [fp, #-16]
    136c:	e51b2024 	ldr	r2, [fp, #-36]	@ 0xffffffdc
    1370:	e5832010 	str	r2, [r3, #16]
    1374:	e51b3010 	ldr	r3, [fp, #-16]
    1378:	e3a02000 	mov	r2, #0
    137c:	e5c32014 	strb	r2, [r3, #20]
    1380:	e51b3010 	ldr	r3, [fp, #-16]
    1384:	e3a02000 	mov	r2, #0
    1388:	e5832020 	str	r2, [r3, #32]
    138c:	e51b3008 	ldr	r3, [fp, #-8]
    1390:	e5932004 	ldr	r2, [r3, #4]
    1394:	e51b3010 	ldr	r3, [fp, #-16]
    1398:	e5832018 	str	r2, [r3, #24]
    139c:	e51b3008 	ldr	r3, [fp, #-8]
    13a0:	e51b2010 	ldr	r2, [fp, #-16]
    13a4:	e5832004 	str	r2, [r3, #4]
    13a8:	e51b300c 	ldr	r3, [fp, #-12]
    13ac:	e5932004 	ldr	r2, [r3, #4]
    13b0:	e51b3010 	ldr	r3, [fp, #-16]
    13b4:	e583201c 	str	r2, [r3, #28]
    13b8:	e51b300c 	ldr	r3, [fp, #-12]
    13bc:	e51b2010 	ldr	r2, [fp, #-16]
    13c0:	e5832004 	str	r2, [r3, #4]
    13c4:	e59f301c 	ldr	r3, [pc, #28]	@ 13e8 <synapse_create+0x134>
    13c8:	e5933000 	ldr	r3, [r3]
    13cc:	e2833001 	add	r3, r3, #1
    13d0:	e59f2010 	ldr	r2, [pc, #16]	@ 13e8 <synapse_create+0x134>
    13d4:	e5823000 	str	r3, [r2]
    13d8:	e3a03000 	mov	r3, #0
    13dc:	e1a00003 	mov	r0, r3
    13e0:	e24bd004 	sub	sp, fp, #4
    13e4:	e8bd8800 	pop	{fp, pc}
    13e8:	00400024 	.word	0x00400024

000013ec <synapse_remove>:
    13ec:	e92d4800 	push	{fp, lr}
    13f0:	e28db004 	add	fp, sp, #4
    13f4:	e24dd010 	sub	sp, sp, #16
    13f8:	e50b0010 	str	r0, [fp, #-16]
    13fc:	e50b1014 	str	r1, [fp, #-20]	@ 0xffffffec
    1400:	e51b1014 	ldr	r1, [fp, #-20]	@ 0xffffffec
    1404:	e51b0010 	ldr	r0, [fp, #-16]
    1408:	ebffff87 	bl	122c <_find_synapse>
    140c:	e50b0008 	str	r0, [fp, #-8]
    1410:	e51b3008 	ldr	r3, [fp, #-8]
    1414:	e3530000 	cmp	r3, #0
    1418:	1a000001 	bne	1424 <synapse_remove+0x38>
    141c:	e3e03000 	mvn	r3, #0
    1420:	ea000002 	b	1430 <synapse_remove+0x44>
    1424:	e51b0008 	ldr	r0, [fp, #-8]
    1428:	ebffff5c 	bl	11a0 <_free_synapse>
    142c:	e3a03000 	mov	r3, #0
    1430:	e1a00003 	mov	r0, r3
    1434:	e24bd004 	sub	sp, fp, #4
    1438:	e8bd8800 	pop	{fp, pc}

0000143c <synapse_deliver_spike>:
    143c:	e92d4800 	push	{fp, lr}
    1440:	e28db004 	add	fp, sp, #4
    1444:	e24dd018 	sub	sp, sp, #24
    1448:	e50b0018 	str	r0, [fp, #-24]	@ 0xffffffe8
    144c:	e59f30bc 	ldr	r3, [pc, #188]	@ 1510 <synapse_deliver_spike+0xd4>
    1450:	e3a02000 	mov	r2, #0
    1454:	e5832000 	str	r2, [r3]
    1458:	e51b0018 	ldr	r0, [fp, #-24]	@ 0xffffffe8
    145c:	ebfffdd4 	bl	bb4 <_find_pre>
    1460:	e50b0010 	str	r0, [fp, #-16]
    1464:	e51b3010 	ldr	r3, [fp, #-16]
    1468:	e3530000 	cmp	r3, #0
    146c:	0a000024 	beq	1504 <synapse_deliver_spike+0xc8>
    1470:	e51b3010 	ldr	r3, [fp, #-16]
    1474:	e5933004 	ldr	r3, [r3, #4]
    1478:	e50b3008 	str	r3, [fp, #-8]
    147c:	ea00001c 	b	14f4 <synapse_deliver_spike+0xb8>
    1480:	e59f3088 	ldr	r3, [pc, #136]	@ 1510 <synapse_deliver_spike+0xd4>
    1484:	e5933000 	ldr	r3, [r3]
    1488:	e2833001 	add	r3, r3, #1
    148c:	e59f207c 	ldr	r2, [pc, #124]	@ 1510 <synapse_deliver_spike+0xd4>
    1490:	e5823000 	str	r3, [r2]
    1494:	e51b3008 	ldr	r3, [fp, #-8]
    1498:	e593300c 	ldr	r3, [r3, #12]
    149c:	e2833902 	add	r3, r3, #32768	@ 0x8000
    14a0:	e50b300c 	str	r3, [fp, #-12]
    14a4:	e51b300c 	ldr	r3, [fp, #-12]
    14a8:	e3530902 	cmp	r3, #32768	@ 0x8000
    14ac:	da000001 	ble	14b8 <synapse_deliver_spike+0x7c>
    14b0:	e3a03902 	mov	r3, #32768	@ 0x8000
    14b4:	e50b300c 	str	r3, [fp, #-12]
    14b8:	e51b3008 	ldr	r3, [fp, #-8]
    14bc:	e51b200c 	ldr	r2, [fp, #-12]
    14c0:	e583200c 	str	r2, [r3, #12]
    14c4:	e51b0008 	ldr	r0, [fp, #-8]
    14c8:	ebffff16 	bl	1128 <_activate_trace>
    14cc:	e51b3008 	ldr	r3, [fp, #-8]
    14d0:	e5932004 	ldr	r2, [r3, #4]
    14d4:	e51b3008 	ldr	r3, [fp, #-8]
    14d8:	e5933008 	ldr	r3, [r3, #8]
    14dc:	e1a01003 	mov	r1, r3
    14e0:	e1a00002 	mov	r0, r2
    14e4:	ebfffd00 	bl	8ec <neuron_add_input>
    14e8:	e51b3008 	ldr	r3, [fp, #-8]
    14ec:	e593301c 	ldr	r3, [r3, #28]
    14f0:	e50b3008 	str	r3, [fp, #-8]
    14f4:	e51b3008 	ldr	r3, [fp, #-8]
    14f8:	e3530000 	cmp	r3, #0
    14fc:	1affffdf 	bne	1480 <synapse_deliver_spike+0x44>
    1500:	ea000000 	b	1508 <synapse_deliver_spike+0xcc>
    1504:	e1a00000 	nop			@ (mov r0, r0)
    1508:	e24bd004 	sub	sp, fp, #4
    150c:	e8bd8800 	pop	{fp, pc}
    1510:	0040002c 	.word	0x0040002c

00001514 <synapse_decay_traces_all>:
    1514:	e92d08f0 	push	{r4, r5, r6, r7, fp}
    1518:	e28db010 	add	fp, sp, #16
    151c:	e24dd014 	sub	sp, sp, #20
    1520:	e50b0020 	str	r0, [fp, #-32]	@ 0xffffffe0
    1524:	e59f1128 	ldr	r1, [pc, #296]	@ 1654 <synapse_decay_traces_all+0x140>
    1528:	e3a00000 	mov	r0, #0
    152c:	e5810000 	str	r0, [r1]
    1530:	e59f1120 	ldr	r1, [pc, #288]	@ 1658 <synapse_decay_traces_all+0x144>
    1534:	e50b1018 	str	r1, [fp, #-24]	@ 0xffffffe8
    1538:	ea00003c 	b	1630 <synapse_decay_traces_all+0x11c>
    153c:	e51b1018 	ldr	r1, [fp, #-24]	@ 0xffffffe8
    1540:	e5911000 	ldr	r1, [r1]
    1544:	e50b101c 	str	r1, [fp, #-28]	@ 0xffffffe4
    1548:	e59f1104 	ldr	r1, [pc, #260]	@ 1654 <synapse_decay_traces_all+0x140>
    154c:	e5911000 	ldr	r1, [r1]
    1550:	e2811001 	add	r1, r1, #1
    1554:	e59f00f8 	ldr	r0, [pc, #248]	@ 1654 <synapse_decay_traces_all+0x140>
    1558:	e5801000 	str	r1, [r0]
    155c:	e51b101c 	ldr	r1, [fp, #-28]	@ 0xffffffe4
    1560:	e591100c 	ldr	r1, [r1, #12]
    1564:	e1a00fc1 	asr	r0, r1, #31
    1568:	e1a04001 	mov	r4, r1
    156c:	e1a05000 	mov	r5, r0
    1570:	e51b1020 	ldr	r1, [fp, #-32]	@ 0xffffffe0
    1574:	e1a00fc1 	asr	r0, r1, #31
    1578:	e1a06001 	mov	r6, r1
    157c:	e1a07000 	mov	r7, r0
    1580:	e0000596 	mul	r0, r6, r5
    1584:	e0010794 	mul	r1, r4, r7
    1588:	e0801001 	add	r1, r0, r1
    158c:	e0802694 	umull	r2, r0, r4, r6
    1590:	e1a03000 	mov	r3, r0
    1594:	e0811003 	add	r1, r1, r3
    1598:	e1a03001 	mov	r3, r1
    159c:	e3a00000 	mov	r0, #0
    15a0:	e3a01000 	mov	r1, #0
    15a4:	e1a007a2 	lsr	r0, r2, #15
    15a8:	e1800883 	orr	r0, r0, r3, lsl #17
    15ac:	e1a017c3 	asr	r1, r3, #15
    15b0:	e51b101c 	ldr	r1, [fp, #-28]	@ 0xffffffe4
    15b4:	e581000c 	str	r0, [r1, #12]
    15b8:	e51b101c 	ldr	r1, [fp, #-28]	@ 0xffffffe4
    15bc:	e591100c 	ldr	r1, [r1, #12]
    15c0:	e3510001 	cmp	r1, #1
    15c4:	ca000016 	bgt	1624 <synapse_decay_traces_all+0x110>
    15c8:	e51b101c 	ldr	r1, [fp, #-28]	@ 0xffffffe4
    15cc:	e3a00000 	mov	r0, #0
    15d0:	e581000c 	str	r0, [r1, #12]
    15d4:	e51b101c 	ldr	r1, [fp, #-28]	@ 0xffffffe4
    15d8:	e5910020 	ldr	r0, [r1, #32]
    15dc:	e51b1018 	ldr	r1, [fp, #-24]	@ 0xffffffe8
    15e0:	e5810000 	str	r0, [r1]
    15e4:	e51b101c 	ldr	r1, [fp, #-28]	@ 0xffffffe4
    15e8:	e3a00000 	mov	r0, #0
    15ec:	e5810020 	str	r0, [r1, #32]
    15f0:	e51b101c 	ldr	r1, [fp, #-28]	@ 0xffffffe4
    15f4:	e3a00000 	mov	r0, #0
    15f8:	e5c10014 	strb	r0, [r1, #20]
    15fc:	e59f1058 	ldr	r1, [pc, #88]	@ 165c <synapse_decay_traces_all+0x148>
    1600:	e5911000 	ldr	r1, [r1]
    1604:	e3510000 	cmp	r1, #0
    1608:	0a000008 	beq	1630 <synapse_decay_traces_all+0x11c>
    160c:	e59f1048 	ldr	r1, [pc, #72]	@ 165c <synapse_decay_traces_all+0x148>
    1610:	e5911000 	ldr	r1, [r1]
    1614:	e2411001 	sub	r1, r1, #1
    1618:	e59f003c 	ldr	r0, [pc, #60]	@ 165c <synapse_decay_traces_all+0x148>
    161c:	e5801000 	str	r1, [r0]
    1620:	ea000002 	b	1630 <synapse_decay_traces_all+0x11c>
    1624:	e51b101c 	ldr	r1, [fp, #-28]	@ 0xffffffe4
    1628:	e2811020 	add	r1, r1, #32
    162c:	e50b1018 	str	r1, [fp, #-24]	@ 0xffffffe8
    1630:	e51b1018 	ldr	r1, [fp, #-24]	@ 0xffffffe8
    1634:	e5911000 	ldr	r1, [r1]
    1638:	e3510000 	cmp	r1, #0
    163c:	1affffbe 	bne	153c <synapse_decay_traces_all+0x28>
    1640:	e1a00000 	nop			@ (mov r0, r0)
    1644:	e1a00000 	nop			@ (mov r0, r0)
    1648:	e24bd010 	sub	sp, fp, #16
    164c:	e8bd08f0 	pop	{r4, r5, r6, r7, fp}
    1650:	e12fff1e 	bx	lr
    1654:	00400030 	.word	0x00400030
    1658:	00400040 	.word	0x00400040
    165c:	00400028 	.word	0x00400028

00001660 <synapse_modulate_all>:
    1660:	e92d4bf0 	push	{r4, r5, r6, r7, r8, r9, fp, lr}
    1664:	e28db01c 	add	fp, sp, #28
    1668:	e24dd010 	sub	sp, sp, #16
    166c:	e50b0028 	str	r0, [fp, #-40]	@ 0xffffffd8
    1670:	e59f30d0 	ldr	r3, [pc, #208]	@ 1748 <synapse_modulate_all+0xe8>
    1674:	e3a02000 	mov	r2, #0
    1678:	e5832000 	str	r2, [r3]
    167c:	e59f30c8 	ldr	r3, [pc, #200]	@ 174c <synapse_modulate_all+0xec>
    1680:	e5933000 	ldr	r3, [r3]
    1684:	e50b3020 	str	r3, [fp, #-32]	@ 0xffffffe0
    1688:	ea000027 	b	172c <synapse_modulate_all+0xcc>
    168c:	e59f30b4 	ldr	r3, [pc, #180]	@ 1748 <synapse_modulate_all+0xe8>
    1690:	e5933000 	ldr	r3, [r3]
    1694:	e2833001 	add	r3, r3, #1
    1698:	e59f20a8 	ldr	r2, [pc, #168]	@ 1748 <synapse_modulate_all+0xe8>
    169c:	e5823000 	str	r3, [r2]
    16a0:	e51b3028 	ldr	r3, [fp, #-40]	@ 0xffffffd8
    16a4:	e1a02fc3 	asr	r2, r3, #31
    16a8:	e1a06003 	mov	r6, r3
    16ac:	e1a07002 	mov	r7, r2
    16b0:	e51b3020 	ldr	r3, [fp, #-32]	@ 0xffffffe0
    16b4:	e593300c 	ldr	r3, [r3, #12]
    16b8:	e1a02fc3 	asr	r2, r3, #31
    16bc:	e1a08003 	mov	r8, r3
    16c0:	e1a09002 	mov	r9, r2
    16c4:	e0020798 	mul	r2, r8, r7
    16c8:	e0030996 	mul	r3, r6, r9
    16cc:	e0823003 	add	r3, r2, r3
    16d0:	e0824896 	umull	r4, r2, r6, r8
    16d4:	e1a05002 	mov	r5, r2
    16d8:	e0833005 	add	r3, r3, r5
    16dc:	e1a05003 	mov	r5, r3
    16e0:	e3a02000 	mov	r2, #0
    16e4:	e3a03000 	mov	r3, #0
    16e8:	e1a027a4 	lsr	r2, r4, #15
    16ec:	e1822885 	orr	r2, r2, r5, lsl #17
    16f0:	e1a037c5 	asr	r3, r5, #15
    16f4:	e1a03002 	mov	r3, r2
    16f8:	e50b3024 	str	r3, [fp, #-36]	@ 0xffffffdc
    16fc:	e51b3020 	ldr	r3, [fp, #-32]	@ 0xffffffe0
    1700:	e5932008 	ldr	r2, [r3, #8]
    1704:	e51b3024 	ldr	r3, [fp, #-36]	@ 0xffffffdc
    1708:	e0823003 	add	r3, r2, r3
    170c:	e1a00003 	mov	r0, r3
    1710:	ebfffd92 	bl	d60 <_clip_weight>
    1714:	e1a02000 	mov	r2, r0
    1718:	e51b3020 	ldr	r3, [fp, #-32]	@ 0xffffffe0
    171c:	e5832008 	str	r2, [r3, #8]
    1720:	e51b3020 	ldr	r3, [fp, #-32]	@ 0xffffffe0
    1724:	e5933020 	ldr	r3, [r3, #32]
    1728:	e50b3020 	str	r3, [fp, #-32]	@ 0xffffffe0
    172c:	e51b3020 	ldr	r3, [fp, #-32]	@ 0xffffffe0
    1730:	e3530000 	cmp	r3, #0
    1734:	1affffd4 	bne	168c <synapse_modulate_all+0x2c>
    1738:	e1a00000 	nop			@ (mov r0, r0)
    173c:	e1a00000 	nop			@ (mov r0, r0)
    1740:	e24bd01c 	sub	sp, fp, #28
    1744:	e8bd8bf0 	pop	{r4, r5, r6, r7, r8, r9, fp, pc}
    1748:	00400034 	.word	0x00400034
    174c:	00400040 	.word	0x00400040

00001750 <synapse_remove_incident>:
    1750:	e92d4800 	push	{fp, lr}
    1754:	e28db004 	add	fp, sp, #4
    1758:	e24dd018 	sub	sp, sp, #24
    175c:	e50b0018 	str	r0, [fp, #-24]	@ 0xffffffe8
    1760:	e3a03000 	mov	r3, #0
    1764:	e54b3005 	strb	r3, [fp, #-5]
    1768:	e3a03000 	mov	r3, #0
    176c:	e54b3005 	strb	r3, [fp, #-5]
    1770:	e59f30b8 	ldr	r3, [pc, #184]	@ 1830 <synapse_remove_incident+0xe0>
    1774:	e5933000 	ldr	r3, [r3]
    1778:	e50b300c 	str	r3, [fp, #-12]
    177c:	ea00001e 	b	17fc <synapse_remove_incident+0xac>
    1780:	e51b300c 	ldr	r3, [fp, #-12]
    1784:	e5933004 	ldr	r3, [r3, #4]
    1788:	e50b3010 	str	r3, [fp, #-16]
    178c:	ea000011 	b	17d8 <synapse_remove_incident+0x88>
    1790:	e51b3010 	ldr	r3, [fp, #-16]
    1794:	e5933000 	ldr	r3, [r3]
    1798:	e51b2018 	ldr	r2, [fp, #-24]	@ 0xffffffe8
    179c:	e1520003 	cmp	r2, r3
    17a0:	0a000004 	beq	17b8 <synapse_remove_incident+0x68>
    17a4:	e51b3010 	ldr	r3, [fp, #-16]
    17a8:	e5933004 	ldr	r3, [r3, #4]
    17ac:	e51b2018 	ldr	r2, [fp, #-24]	@ 0xffffffe8
    17b0:	e1520003 	cmp	r2, r3
    17b4:	1a000004 	bne	17cc <synapse_remove_incident+0x7c>
    17b8:	e51b0010 	ldr	r0, [fp, #-16]
    17bc:	ebfffe77 	bl	11a0 <_free_synapse>
    17c0:	e3a03001 	mov	r3, #1
    17c4:	e54b3005 	strb	r3, [fp, #-5]
    17c8:	ea000005 	b	17e4 <synapse_remove_incident+0x94>
    17cc:	e51b3010 	ldr	r3, [fp, #-16]
    17d0:	e5933018 	ldr	r3, [r3, #24]
    17d4:	e50b3010 	str	r3, [fp, #-16]
    17d8:	e51b3010 	ldr	r3, [fp, #-16]
    17dc:	e3530000 	cmp	r3, #0
    17e0:	1affffea 	bne	1790 <synapse_remove_incident+0x40>
    17e4:	e55b3005 	ldrb	r3, [fp, #-5]
    17e8:	e3530000 	cmp	r3, #0
    17ec:	1a000002 	bne	17fc <synapse_remove_incident+0xac>
    17f0:	e51b300c 	ldr	r3, [fp, #-12]
    17f4:	e5933008 	ldr	r3, [r3, #8]
    17f8:	e50b300c 	str	r3, [fp, #-12]
    17fc:	e51b300c 	ldr	r3, [fp, #-12]
    1800:	e3530000 	cmp	r3, #0
    1804:	0a000002 	beq	1814 <synapse_remove_incident+0xc4>
    1808:	e55b3005 	ldrb	r3, [fp, #-5]
    180c:	e3530000 	cmp	r3, #0
    1810:	0affffda 	beq	1780 <synapse_remove_incident+0x30>
    1814:	e55b3005 	ldrb	r3, [fp, #-5]
    1818:	e3530000 	cmp	r3, #0
    181c:	1affffd1 	bne	1768 <synapse_remove_incident+0x18>
    1820:	e1a00000 	nop			@ (mov r0, r0)
    1824:	e1a00000 	nop			@ (mov r0, r0)
    1828:	e24bd004 	sub	sp, fp, #4
    182c:	e8bd8800 	pop	{fp, pc}
    1830:	00400038 	.word	0x00400038

00001834 <synapse_reset_all>:
    1834:	e92d4800 	push	{fp, lr}
    1838:	e28db004 	add	fp, sp, #4
    183c:	e24dd010 	sub	sp, sp, #16
    1840:	ea000016 	b	18a0 <synapse_reset_all+0x6c>
    1844:	e59f30f0 	ldr	r3, [pc, #240]	@ 193c <synapse_reset_all+0x108>
    1848:	e5933000 	ldr	r3, [r3]
    184c:	e50b3010 	str	r3, [fp, #-16]
    1850:	e51b3010 	ldr	r3, [fp, #-16]
    1854:	e5933004 	ldr	r3, [r3, #4]
    1858:	e50b3008 	str	r3, [fp, #-8]
    185c:	ea000006 	b	187c <synapse_reset_all+0x48>
    1860:	e51b3008 	ldr	r3, [fp, #-8]
    1864:	e5933018 	ldr	r3, [r3, #24]
    1868:	e50b3014 	str	r3, [fp, #-20]	@ 0xffffffec
    186c:	e51b0008 	ldr	r0, [fp, #-8]
    1870:	fa0012bc 	blx	6368 <sark_free>
    1874:	e51b3014 	ldr	r3, [fp, #-20]	@ 0xffffffec
    1878:	e50b3008 	str	r3, [fp, #-8]
    187c:	e51b3008 	ldr	r3, [fp, #-8]
    1880:	e3530000 	cmp	r3, #0
    1884:	1afffff5 	bne	1860 <synapse_reset_all+0x2c>
    1888:	e51b3010 	ldr	r3, [fp, #-16]
    188c:	e5933008 	ldr	r3, [r3, #8]
    1890:	e59f20a4 	ldr	r2, [pc, #164]	@ 193c <synapse_reset_all+0x108>
    1894:	e5823000 	str	r3, [r2]
    1898:	e51b0010 	ldr	r0, [fp, #-16]
    189c:	fa0012b1 	blx	6368 <sark_free>
    18a0:	e59f3094 	ldr	r3, [pc, #148]	@ 193c <synapse_reset_all+0x108>
    18a4:	e5933000 	ldr	r3, [r3]
    18a8:	e3530000 	cmp	r3, #0
    18ac:	1affffe4 	bne	1844 <synapse_reset_all+0x10>
    18b0:	ea000008 	b	18d8 <synapse_reset_all+0xa4>
    18b4:	e59f3084 	ldr	r3, [pc, #132]	@ 1940 <synapse_reset_all+0x10c>
    18b8:	e5933000 	ldr	r3, [r3]
    18bc:	e50b300c 	str	r3, [fp, #-12]
    18c0:	e51b300c 	ldr	r3, [fp, #-12]
    18c4:	e5933008 	ldr	r3, [r3, #8]
    18c8:	e59f2070 	ldr	r2, [pc, #112]	@ 1940 <synapse_reset_all+0x10c>
    18cc:	e5823000 	str	r3, [r2]
    18d0:	e51b000c 	ldr	r0, [fp, #-12]
    18d4:	fa0012a3 	blx	6368 <sark_free>
    18d8:	e59f3060 	ldr	r3, [pc, #96]	@ 1940 <synapse_reset_all+0x10c>
    18dc:	e5933000 	ldr	r3, [r3]
    18e0:	e3530000 	cmp	r3, #0
    18e4:	1afffff2 	bne	18b4 <synapse_reset_all+0x80>
    18e8:	e59f3054 	ldr	r3, [pc, #84]	@ 1944 <synapse_reset_all+0x110>
    18ec:	e3a02000 	mov	r2, #0
    18f0:	e5832000 	str	r2, [r3]
    18f4:	e59f304c 	ldr	r3, [pc, #76]	@ 1948 <synapse_reset_all+0x114>
    18f8:	e3a02000 	mov	r2, #0
    18fc:	e5832000 	str	r2, [r3]
    1900:	e59f3044 	ldr	r3, [pc, #68]	@ 194c <synapse_reset_all+0x118>
    1904:	e3a02000 	mov	r2, #0
    1908:	e5832000 	str	r2, [r3]
    190c:	e59f303c 	ldr	r3, [pc, #60]	@ 1950 <synapse_reset_all+0x11c>
    1910:	e3a02000 	mov	r2, #0
    1914:	e5832000 	str	r2, [r3]
    1918:	e59f3034 	ldr	r3, [pc, #52]	@ 1954 <synapse_reset_all+0x120>
    191c:	e3a02000 	mov	r2, #0
    1920:	e5832000 	str	r2, [r3]
    1924:	e59f302c 	ldr	r3, [pc, #44]	@ 1958 <synapse_reset_all+0x124>
    1928:	e3a02000 	mov	r2, #0
    192c:	e5832000 	str	r2, [r3]
    1930:	e1a00000 	nop			@ (mov r0, r0)
    1934:	e24bd004 	sub	sp, fp, #4
    1938:	e8bd8800 	pop	{fp, pc}
    193c:	00400038 	.word	0x00400038
    1940:	0040003c 	.word	0x0040003c
    1944:	00400040 	.word	0x00400040
    1948:	00400024 	.word	0x00400024
    194c:	00400028 	.word	0x00400028
    1950:	0040002c 	.word	0x0040002c
    1954:	00400030 	.word	0x00400030
    1958:	00400034 	.word	0x00400034

0000195c <synapse_count>:
    195c:	e52db004 	push	{fp}		@ (str fp, [sp, #-4]!)
    1960:	e28db000 	add	fp, sp, #0
    1964:	e59f3010 	ldr	r3, [pc, #16]	@ 197c <synapse_count+0x20>
    1968:	e5933000 	ldr	r3, [r3]
    196c:	e1a00003 	mov	r0, r3
    1970:	e28bd000 	add	sp, fp, #0
    1974:	e49db004 	pop	{fp}		@ (ldr fp, [sp], #4)
    1978:	e12fff1e 	bx	lr
    197c:	00400024 	.word	0x00400024

00001980 <synapse_active_trace_count>:
    1980:	e52db004 	push	{fp}		@ (str fp, [sp, #-4]!)
    1984:	e28db000 	add	fp, sp, #0
    1988:	e59f3010 	ldr	r3, [pc, #16]	@ 19a0 <synapse_active_trace_count+0x20>
    198c:	e5933000 	ldr	r3, [r3]
    1990:	e1a00003 	mov	r0, r3
    1994:	e28bd000 	add	sp, fp, #0
    1998:	e49db004 	pop	{fp}		@ (ldr fp, [sp], #4)
    199c:	e12fff1e 	bx	lr
    19a0:	00400028 	.word	0x00400028

000019a4 <synapse_last_delivery_visit_count>:
    19a4:	e52db004 	push	{fp}		@ (str fp, [sp, #-4]!)
    19a8:	e28db000 	add	fp, sp, #0
    19ac:	e59f3010 	ldr	r3, [pc, #16]	@ 19c4 <synapse_last_delivery_visit_count+0x20>
    19b0:	e5933000 	ldr	r3, [r3]
    19b4:	e1a00003 	mov	r0, r3
    19b8:	e28bd000 	add	sp, fp, #0
    19bc:	e49db004 	pop	{fp}		@ (ldr fp, [sp], #4)
    19c0:	e12fff1e 	bx	lr
    19c4:	0040002c 	.word	0x0040002c

000019c8 <synapse_last_decay_visit_count>:
    19c8:	e52db004 	push	{fp}		@ (str fp, [sp, #-4]!)
    19cc:	e28db000 	add	fp, sp, #0
    19d0:	e59f3010 	ldr	r3, [pc, #16]	@ 19e8 <synapse_last_decay_visit_count+0x20>
    19d4:	e5933000 	ldr	r3, [r3]
    19d8:	e1a00003 	mov	r0, r3
    19dc:	e28bd000 	add	sp, fp, #0
    19e0:	e49db004 	pop	{fp}		@ (ldr fp, [sp], #4)
    19e4:	e12fff1e 	bx	lr
    19e8:	00400030 	.word	0x00400030

000019ec <synapse_last_modulation_visit_count>:
    19ec:	e52db004 	push	{fp}		@ (str fp, [sp, #-4]!)
    19f0:	e28db000 	add	fp, sp, #0
    19f4:	e59f3010 	ldr	r3, [pc, #16]	@ 1a0c <synapse_last_modulation_visit_count+0x20>
    19f8:	e5933000 	ldr	r3, [r3]
    19fc:	e1a00003 	mov	r0, r3
    1a00:	e28bd000 	add	sp, fp, #0
    1a04:	e49db004 	pop	{fp}		@ (ldr fp, [sp], #4)
    1a08:	e12fff1e 	bx	lr
    1a0c:	00400034 	.word	0x00400034

00001a10 <synapse_get_weight>:
    1a10:	e92d4800 	push	{fp, lr}
    1a14:	e28db004 	add	fp, sp, #4
    1a18:	e24dd018 	sub	sp, sp, #24
    1a1c:	e50b0010 	str	r0, [fp, #-16]
    1a20:	e50b1014 	str	r1, [fp, #-20]	@ 0xffffffec
    1a24:	e50b2018 	str	r2, [fp, #-24]	@ 0xffffffe8
    1a28:	e51b1014 	ldr	r1, [fp, #-20]	@ 0xffffffec
    1a2c:	e51b0010 	ldr	r0, [fp, #-16]
    1a30:	ebfffdfd 	bl	122c <_find_synapse>
    1a34:	e50b0008 	str	r0, [fp, #-8]
    1a38:	e51b3008 	ldr	r3, [fp, #-8]
    1a3c:	e3530000 	cmp	r3, #0
    1a40:	1a000001 	bne	1a4c <synapse_get_weight+0x3c>
    1a44:	e3e03000 	mvn	r3, #0
    1a48:	ea000007 	b	1a6c <synapse_get_weight+0x5c>
    1a4c:	e51b3018 	ldr	r3, [fp, #-24]	@ 0xffffffe8
    1a50:	e3530000 	cmp	r3, #0
    1a54:	0a000003 	beq	1a68 <synapse_get_weight+0x58>
    1a58:	e51b3008 	ldr	r3, [fp, #-8]
    1a5c:	e5932008 	ldr	r2, [r3, #8]
    1a60:	e51b3018 	ldr	r3, [fp, #-24]	@ 0xffffffe8
    1a64:	e5832000 	str	r2, [r3]
    1a68:	e3a03000 	mov	r3, #0
    1a6c:	e1a00003 	mov	r0, r3
    1a70:	e24bd004 	sub	sp, fp, #4
    1a74:	e8bd8800 	pop	{fp, pc}

00001a78 <synapse_get_eligibility_trace>:
    1a78:	e92d4800 	push	{fp, lr}
    1a7c:	e28db004 	add	fp, sp, #4
    1a80:	e24dd018 	sub	sp, sp, #24
    1a84:	e50b0010 	str	r0, [fp, #-16]
    1a88:	e50b1014 	str	r1, [fp, #-20]	@ 0xffffffec
    1a8c:	e50b2018 	str	r2, [fp, #-24]	@ 0xffffffe8
    1a90:	e51b1014 	ldr	r1, [fp, #-20]	@ 0xffffffec
    1a94:	e51b0010 	ldr	r0, [fp, #-16]
    1a98:	ebfffde3 	bl	122c <_find_synapse>
    1a9c:	e50b0008 	str	r0, [fp, #-8]
    1aa0:	e51b3008 	ldr	r3, [fp, #-8]
    1aa4:	e3530000 	cmp	r3, #0
    1aa8:	1a000001 	bne	1ab4 <synapse_get_eligibility_trace+0x3c>
    1aac:	e3e03000 	mvn	r3, #0
    1ab0:	ea000007 	b	1ad4 <synapse_get_eligibility_trace+0x5c>
    1ab4:	e51b3018 	ldr	r3, [fp, #-24]	@ 0xffffffe8
    1ab8:	e3530000 	cmp	r3, #0
    1abc:	0a000003 	beq	1ad0 <synapse_get_eligibility_trace+0x58>
    1ac0:	e51b3008 	ldr	r3, [fp, #-8]
    1ac4:	e593200c 	ldr	r2, [r3, #12]
    1ac8:	e51b3018 	ldr	r3, [fp, #-24]	@ 0xffffffe8
    1acc:	e5832000 	str	r2, [r3]
    1ad0:	e3a03000 	mov	r3, #0
    1ad4:	e1a00003 	mov	r0, r3
    1ad8:	e24bd004 	sub	sp, fp, #4
    1adc:	e8bd8800 	pop	{fp, pc}

00001ae0 <_clear_slots>:
    1ae0:	e52db004 	push	{fp}		@ (str fp, [sp, #-4]!)
    1ae4:	e28db000 	add	fp, sp, #0
    1ae8:	e24dd00c 	sub	sp, sp, #12
    1aec:	e3a03000 	mov	r3, #0
    1af0:	e50b3008 	str	r3, [fp, #-8]
    1af4:	ea000033 	b	1bc8 <_clear_slots+0xe8>
    1af8:	e59f10e8 	ldr	r1, [pc, #232]	@ 1be8 <_clear_slots+0x108>
    1afc:	e51b2008 	ldr	r2, [fp, #-8]
    1b00:	e1a03002 	mov	r3, r2
    1b04:	e1a03103 	lsl	r3, r3, #2
    1b08:	e0833002 	add	r3, r3, r2
    1b0c:	e1a03103 	lsl	r3, r3, #2
    1b10:	e0813003 	add	r3, r1, r3
    1b14:	e3a02000 	mov	r2, #0
    1b18:	e5832000 	str	r2, [r3]
    1b1c:	e59f10c4 	ldr	r1, [pc, #196]	@ 1be8 <_clear_slots+0x108>
    1b20:	e51b2008 	ldr	r2, [fp, #-8]
    1b24:	e1a03002 	mov	r3, r2
    1b28:	e1a03103 	lsl	r3, r3, #2
    1b2c:	e0833002 	add	r3, r3, r2
    1b30:	e1a03103 	lsl	r3, r3, #2
    1b34:	e0813003 	add	r3, r1, r3
    1b38:	e2833004 	add	r3, r3, #4
    1b3c:	e3a02000 	mov	r2, #0
    1b40:	e5832000 	str	r2, [r3]
    1b44:	e59f109c 	ldr	r1, [pc, #156]	@ 1be8 <_clear_slots+0x108>
    1b48:	e51b2008 	ldr	r2, [fp, #-8]
    1b4c:	e1a03002 	mov	r3, r2
    1b50:	e1a03103 	lsl	r3, r3, #2
    1b54:	e0833002 	add	r3, r3, r2
    1b58:	e1a03103 	lsl	r3, r3, #2
    1b5c:	e0813003 	add	r3, r1, r3
    1b60:	e2833008 	add	r3, r3, #8
    1b64:	e3a02000 	mov	r2, #0
    1b68:	e5832000 	str	r2, [r3]
    1b6c:	e59f1074 	ldr	r1, [pc, #116]	@ 1be8 <_clear_slots+0x108>
    1b70:	e51b2008 	ldr	r2, [fp, #-8]
    1b74:	e1a03002 	mov	r3, r2
    1b78:	e1a03103 	lsl	r3, r3, #2
    1b7c:	e0833002 	add	r3, r3, r2
    1b80:	e1a03103 	lsl	r3, r3, #2
    1b84:	e0813003 	add	r3, r1, r3
    1b88:	e283300c 	add	r3, r3, #12
    1b8c:	e3a02000 	mov	r2, #0
    1b90:	e5832000 	str	r2, [r3]
    1b94:	e59f104c 	ldr	r1, [pc, #76]	@ 1be8 <_clear_slots+0x108>
    1b98:	e51b2008 	ldr	r2, [fp, #-8]
    1b9c:	e1a03002 	mov	r3, r2
    1ba0:	e1a03103 	lsl	r3, r3, #2
    1ba4:	e0833002 	add	r3, r3, r2
    1ba8:	e1a03103 	lsl	r3, r3, #2
    1bac:	e0813003 	add	r3, r1, r3
    1bb0:	e2833010 	add	r3, r3, #16
    1bb4:	e3a02000 	mov	r2, #0
    1bb8:	e5c32000 	strb	r2, [r3]
    1bbc:	e51b3008 	ldr	r3, [fp, #-8]
    1bc0:	e2833001 	add	r3, r3, #1
    1bc4:	e50b3008 	str	r3, [fp, #-8]
    1bc8:	e51b3008 	ldr	r3, [fp, #-8]
    1bcc:	e3530007 	cmp	r3, #7
    1bd0:	9affffc8 	bls	1af8 <_clear_slots+0x18>
    1bd4:	e1a00000 	nop			@ (mov r0, r0)
    1bd8:	e1a00000 	nop			@ (mov r0, r0)
    1bdc:	e28bd000 	add	sp, fp, #0
    1be0:	e49db004 	pop	{fp}		@ (ldr fp, [sp], #4)
    1be4:	e12fff1e 	bx	lr
    1be8:	00400044 	.word	0x00400044

00001bec <_clear_route_slots>:
    1bec:	e52db004 	push	{fp}		@ (str fp, [sp, #-4]!)
    1bf0:	e28db000 	add	fp, sp, #0
    1bf4:	e24dd00c 	sub	sp, sp, #12
    1bf8:	e3a03000 	mov	r3, #0
    1bfc:	e50b3008 	str	r3, [fp, #-8]
    1c00:	ea000033 	b	1cd4 <_clear_route_slots+0xe8>
    1c04:	e59f10e8 	ldr	r1, [pc, #232]	@ 1cf4 <_clear_route_slots+0x108>
    1c08:	e51b2008 	ldr	r2, [fp, #-8]
    1c0c:	e1a03002 	mov	r3, r2
    1c10:	e1a03103 	lsl	r3, r3, #2
    1c14:	e0833002 	add	r3, r3, r2
    1c18:	e1a03103 	lsl	r3, r3, #2
    1c1c:	e0813003 	add	r3, r1, r3
    1c20:	e3a02000 	mov	r2, #0
    1c24:	e5832000 	str	r2, [r3]
    1c28:	e59f10c4 	ldr	r1, [pc, #196]	@ 1cf4 <_clear_route_slots+0x108>
    1c2c:	e51b2008 	ldr	r2, [fp, #-8]
    1c30:	e1a03002 	mov	r3, r2
    1c34:	e1a03103 	lsl	r3, r3, #2
    1c38:	e0833002 	add	r3, r3, r2
    1c3c:	e1a03103 	lsl	r3, r3, #2
    1c40:	e0813003 	add	r3, r1, r3
    1c44:	e2833004 	add	r3, r3, #4
    1c48:	e3a02000 	mov	r2, #0
    1c4c:	e5832000 	str	r2, [r3]
    1c50:	e59f109c 	ldr	r1, [pc, #156]	@ 1cf4 <_clear_route_slots+0x108>
    1c54:	e51b2008 	ldr	r2, [fp, #-8]
    1c58:	e1a03002 	mov	r3, r2
    1c5c:	e1a03103 	lsl	r3, r3, #2
    1c60:	e0833002 	add	r3, r3, r2
    1c64:	e1a03103 	lsl	r3, r3, #2
    1c68:	e0813003 	add	r3, r1, r3
    1c6c:	e2833008 	add	r3, r3, #8
    1c70:	e3a02000 	mov	r2, #0
    1c74:	e5832000 	str	r2, [r3]
    1c78:	e59f1074 	ldr	r1, [pc, #116]	@ 1cf4 <_clear_route_slots+0x108>
    1c7c:	e51b2008 	ldr	r2, [fp, #-8]
    1c80:	e1a03002 	mov	r3, r2
    1c84:	e1a03103 	lsl	r3, r3, #2
    1c88:	e0833002 	add	r3, r3, r2
    1c8c:	e1a03103 	lsl	r3, r3, #2
    1c90:	e0813003 	add	r3, r1, r3
    1c94:	e283300c 	add	r3, r3, #12
    1c98:	e3a02000 	mov	r2, #0
    1c9c:	e5832000 	str	r2, [r3]
    1ca0:	e59f104c 	ldr	r1, [pc, #76]	@ 1cf4 <_clear_route_slots+0x108>
    1ca4:	e51b2008 	ldr	r2, [fp, #-8]
    1ca8:	e1a03002 	mov	r3, r2
    1cac:	e1a03103 	lsl	r3, r3, #2
    1cb0:	e0833002 	add	r3, r3, r2
    1cb4:	e1a03103 	lsl	r3, r3, #2
    1cb8:	e0813003 	add	r3, r1, r3
    1cbc:	e2833010 	add	r3, r3, #16
    1cc0:	e3a02000 	mov	r2, #0
    1cc4:	e5c32000 	strb	r2, [r3]
    1cc8:	e51b3008 	ldr	r3, [fp, #-8]
    1ccc:	e2833001 	add	r3, r3, #1
    1cd0:	e50b3008 	str	r3, [fp, #-8]
    1cd4:	e51b3008 	ldr	r3, [fp, #-8]
    1cd8:	e3530007 	cmp	r3, #7
    1cdc:	9affffc8 	bls	1c04 <_clear_route_slots+0x18>
    1ce0:	e1a00000 	nop			@ (mov r0, r0)
    1ce4:	e1a00000 	nop			@ (mov r0, r0)
    1ce8:	e28bd000 	add	sp, fp, #0
    1cec:	e49db004 	pop	{fp}		@ (ldr fp, [sp], #4)
    1cf0:	e12fff1e 	bx	lr
    1cf4:	004000e4 	.word	0x004000e4

00001cf8 <_clear_memory_slots>:
    1cf8:	e52db004 	push	{fp}		@ (str fp, [sp, #-4]!)
    1cfc:	e28db000 	add	fp, sp, #0
    1d00:	e24dd00c 	sub	sp, sp, #12
    1d04:	e3a03000 	mov	r3, #0
    1d08:	e50b3008 	str	r3, [fp, #-8]
    1d0c:	ea000033 	b	1de0 <_clear_memory_slots+0xe8>
    1d10:	e59f10e8 	ldr	r1, [pc, #232]	@ 1e00 <_clear_memory_slots+0x108>
    1d14:	e51b2008 	ldr	r2, [fp, #-8]
    1d18:	e1a03002 	mov	r3, r2
    1d1c:	e1a03103 	lsl	r3, r3, #2
    1d20:	e0833002 	add	r3, r3, r2
    1d24:	e1a03103 	lsl	r3, r3, #2
    1d28:	e0813003 	add	r3, r1, r3
    1d2c:	e3a02000 	mov	r2, #0
    1d30:	e5832000 	str	r2, [r3]
    1d34:	e59f10c4 	ldr	r1, [pc, #196]	@ 1e00 <_clear_memory_slots+0x108>
    1d38:	e51b2008 	ldr	r2, [fp, #-8]
    1d3c:	e1a03002 	mov	r3, r2
    1d40:	e1a03103 	lsl	r3, r3, #2
    1d44:	e0833002 	add	r3, r3, r2
    1d48:	e1a03103 	lsl	r3, r3, #2
    1d4c:	e0813003 	add	r3, r1, r3
    1d50:	e2833004 	add	r3, r3, #4
    1d54:	e3a02000 	mov	r2, #0
    1d58:	e5832000 	str	r2, [r3]
    1d5c:	e59f109c 	ldr	r1, [pc, #156]	@ 1e00 <_clear_memory_slots+0x108>
    1d60:	e51b2008 	ldr	r2, [fp, #-8]
    1d64:	e1a03002 	mov	r3, r2
    1d68:	e1a03103 	lsl	r3, r3, #2
    1d6c:	e0833002 	add	r3, r3, r2
    1d70:	e1a03103 	lsl	r3, r3, #2
    1d74:	e0813003 	add	r3, r1, r3
    1d78:	e2833008 	add	r3, r3, #8
    1d7c:	e3a02000 	mov	r2, #0
    1d80:	e5832000 	str	r2, [r3]
    1d84:	e59f1074 	ldr	r1, [pc, #116]	@ 1e00 <_clear_memory_slots+0x108>
    1d88:	e51b2008 	ldr	r2, [fp, #-8]
    1d8c:	e1a03002 	mov	r3, r2
    1d90:	e1a03103 	lsl	r3, r3, #2
    1d94:	e0833002 	add	r3, r3, r2
    1d98:	e1a03103 	lsl	r3, r3, #2
    1d9c:	e0813003 	add	r3, r1, r3
    1da0:	e283300c 	add	r3, r3, #12
    1da4:	e3a02000 	mov	r2, #0
    1da8:	e5832000 	str	r2, [r3]
    1dac:	e59f104c 	ldr	r1, [pc, #76]	@ 1e00 <_clear_memory_slots+0x108>
    1db0:	e51b2008 	ldr	r2, [fp, #-8]
    1db4:	e1a03002 	mov	r3, r2
    1db8:	e1a03103 	lsl	r3, r3, #2
    1dbc:	e0833002 	add	r3, r3, r2
    1dc0:	e1a03103 	lsl	r3, r3, #2
    1dc4:	e0813003 	add	r3, r1, r3
    1dc8:	e2833010 	add	r3, r3, #16
    1dcc:	e3a02000 	mov	r2, #0
    1dd0:	e5c32000 	strb	r2, [r3]
    1dd4:	e51b3008 	ldr	r3, [fp, #-8]
    1dd8:	e2833001 	add	r3, r3, #1
    1ddc:	e50b3008 	str	r3, [fp, #-8]
    1de0:	e51b3008 	ldr	r3, [fp, #-8]
    1de4:	e3530007 	cmp	r3, #7
    1de8:	9affffc8 	bls	1d10 <_clear_memory_slots+0x18>
    1dec:	e1a00000 	nop			@ (mov r0, r0)
    1df0:	e1a00000 	nop			@ (mov r0, r0)
    1df4:	e28bd000 	add	sp, fp, #0
    1df8:	e49db004 	pop	{fp}		@ (ldr fp, [sp], #4)
    1dfc:	e12fff1e 	bx	lr
    1e00:	00400184 	.word	0x00400184

00001e04 <_clear_summary>:
    1e04:	e52db004 	push	{fp}		@ (str fp, [sp, #-4]!)
    1e08:	e28db000 	add	fp, sp, #0
    1e0c:	e24dd00c 	sub	sp, sp, #12
    1e10:	e50b0008 	str	r0, [fp, #-8]
    1e14:	e59f317c 	ldr	r3, [pc, #380]	@ 1f98 <_clear_summary+0x194>
    1e18:	e3a02000 	mov	r2, #0
    1e1c:	e5832000 	str	r2, [r3]
    1e20:	e59f3170 	ldr	r3, [pc, #368]	@ 1f98 <_clear_summary+0x194>
    1e24:	e3a02000 	mov	r2, #0
    1e28:	e5832004 	str	r2, [r3, #4]
    1e2c:	e59f3164 	ldr	r3, [pc, #356]	@ 1f98 <_clear_summary+0x194>
    1e30:	e3a02000 	mov	r2, #0
    1e34:	e5832008 	str	r2, [r3, #8]
    1e38:	e59f3158 	ldr	r3, [pc, #344]	@ 1f98 <_clear_summary+0x194>
    1e3c:	e3a02000 	mov	r2, #0
    1e40:	e583200c 	str	r2, [r3, #12]
    1e44:	e59f314c 	ldr	r3, [pc, #332]	@ 1f98 <_clear_summary+0x194>
    1e48:	e3a02000 	mov	r2, #0
    1e4c:	e5832010 	str	r2, [r3, #16]
    1e50:	e59f3140 	ldr	r3, [pc, #320]	@ 1f98 <_clear_summary+0x194>
    1e54:	e3a02000 	mov	r2, #0
    1e58:	e5832014 	str	r2, [r3, #20]
    1e5c:	e59f3134 	ldr	r3, [pc, #308]	@ 1f98 <_clear_summary+0x194>
    1e60:	e3a02000 	mov	r2, #0
    1e64:	e5832018 	str	r2, [r3, #24]
    1e68:	e59f3128 	ldr	r3, [pc, #296]	@ 1f98 <_clear_summary+0x194>
    1e6c:	e3a02000 	mov	r2, #0
    1e70:	e583201c 	str	r2, [r3, #28]
    1e74:	e59f311c 	ldr	r3, [pc, #284]	@ 1f98 <_clear_summary+0x194>
    1e78:	e3a02000 	mov	r2, #0
    1e7c:	e5832020 	str	r2, [r3, #32]
    1e80:	e59f3110 	ldr	r3, [pc, #272]	@ 1f98 <_clear_summary+0x194>
    1e84:	e3a02000 	mov	r2, #0
    1e88:	e5832024 	str	r2, [r3, #36]	@ 0x24
    1e8c:	e59f3104 	ldr	r3, [pc, #260]	@ 1f98 <_clear_summary+0x194>
    1e90:	e3a02000 	mov	r2, #0
    1e94:	e5832028 	str	r2, [r3, #40]	@ 0x28
    1e98:	e59f20f8 	ldr	r2, [pc, #248]	@ 1f98 <_clear_summary+0x194>
    1e9c:	e51b3008 	ldr	r3, [fp, #-8]
    1ea0:	e582302c 	str	r3, [r2, #44]	@ 0x2c
    1ea4:	e59f30ec 	ldr	r3, [pc, #236]	@ 1f98 <_clear_summary+0x194>
    1ea8:	e3a02000 	mov	r2, #0
    1eac:	e5832030 	str	r2, [r3, #48]	@ 0x30
    1eb0:	e59f30e0 	ldr	r3, [pc, #224]	@ 1f98 <_clear_summary+0x194>
    1eb4:	e3a02000 	mov	r2, #0
    1eb8:	e5832034 	str	r2, [r3, #52]	@ 0x34
    1ebc:	e59f30d4 	ldr	r3, [pc, #212]	@ 1f98 <_clear_summary+0x194>
    1ec0:	e3a02000 	mov	r2, #0
    1ec4:	e5832038 	str	r2, [r3, #56]	@ 0x38
    1ec8:	e59f30c8 	ldr	r3, [pc, #200]	@ 1f98 <_clear_summary+0x194>
    1ecc:	e3a02000 	mov	r2, #0
    1ed0:	e583203c 	str	r2, [r3, #60]	@ 0x3c
    1ed4:	e59f30bc 	ldr	r3, [pc, #188]	@ 1f98 <_clear_summary+0x194>
    1ed8:	e3a02000 	mov	r2, #0
    1edc:	e5832040 	str	r2, [r3, #64]	@ 0x40
    1ee0:	e59f30b0 	ldr	r3, [pc, #176]	@ 1f98 <_clear_summary+0x194>
    1ee4:	e3a02000 	mov	r2, #0
    1ee8:	e5832044 	str	r2, [r3, #68]	@ 0x44
    1eec:	e59f30a4 	ldr	r3, [pc, #164]	@ 1f98 <_clear_summary+0x194>
    1ef0:	e3a02000 	mov	r2, #0
    1ef4:	e5832048 	str	r2, [r3, #72]	@ 0x48
    1ef8:	e59f3098 	ldr	r3, [pc, #152]	@ 1f98 <_clear_summary+0x194>
    1efc:	e3a02000 	mov	r2, #0
    1f00:	e583204c 	str	r2, [r3, #76]	@ 0x4c
    1f04:	e59f308c 	ldr	r3, [pc, #140]	@ 1f98 <_clear_summary+0x194>
    1f08:	e3a02000 	mov	r2, #0
    1f0c:	e5832050 	str	r2, [r3, #80]	@ 0x50
    1f10:	e59f3080 	ldr	r3, [pc, #128]	@ 1f98 <_clear_summary+0x194>
    1f14:	e3a02000 	mov	r2, #0
    1f18:	e5832054 	str	r2, [r3, #84]	@ 0x54
    1f1c:	e59f3074 	ldr	r3, [pc, #116]	@ 1f98 <_clear_summary+0x194>
    1f20:	e3a02000 	mov	r2, #0
    1f24:	e5832058 	str	r2, [r3, #88]	@ 0x58
    1f28:	e59f3068 	ldr	r3, [pc, #104]	@ 1f98 <_clear_summary+0x194>
    1f2c:	e3a02000 	mov	r2, #0
    1f30:	e583205c 	str	r2, [r3, #92]	@ 0x5c
    1f34:	e59f305c 	ldr	r3, [pc, #92]	@ 1f98 <_clear_summary+0x194>
    1f38:	e3a02000 	mov	r2, #0
    1f3c:	e5832060 	str	r2, [r3, #96]	@ 0x60
    1f40:	e59f3050 	ldr	r3, [pc, #80]	@ 1f98 <_clear_summary+0x194>
    1f44:	e3a02000 	mov	r2, #0
    1f48:	e5832064 	str	r2, [r3, #100]	@ 0x64
    1f4c:	e59f3044 	ldr	r3, [pc, #68]	@ 1f98 <_clear_summary+0x194>
    1f50:	e3a02902 	mov	r2, #32768	@ 0x8000
    1f54:	e5832068 	str	r2, [r3, #104]	@ 0x68
    1f58:	e59f3038 	ldr	r3, [pc, #56]	@ 1f98 <_clear_summary+0x194>
    1f5c:	e3a02902 	mov	r2, #32768	@ 0x8000
    1f60:	e583206c 	str	r2, [r3, #108]	@ 0x6c
    1f64:	e59f302c 	ldr	r3, [pc, #44]	@ 1f98 <_clear_summary+0x194>
    1f68:	e3a02000 	mov	r2, #0
    1f6c:	e5832070 	str	r2, [r3, #112]	@ 0x70
    1f70:	e59f3020 	ldr	r3, [pc, #32]	@ 1f98 <_clear_summary+0x194>
    1f74:	e3a02000 	mov	r2, #0
    1f78:	e5832074 	str	r2, [r3, #116]	@ 0x74
    1f7c:	e59f3014 	ldr	r3, [pc, #20]	@ 1f98 <_clear_summary+0x194>
    1f80:	e3a02000 	mov	r2, #0
    1f84:	e5832078 	str	r2, [r3, #120]	@ 0x78
    1f88:	e1a00000 	nop			@ (mov r0, r0)
    1f8c:	e28bd000 	add	sp, fp, #0
    1f90:	e49db004 	pop	{fp}		@ (ldr fp, [sp], #4)
    1f94:	e12fff1e 	bx	lr
    1f98:	00400a24 	.word	0x00400a24

00001f9c <_clear_pending>:
    1f9c:	e52db004 	push	{fp}		@ (str fp, [sp, #-4]!)
    1fa0:	e28db000 	add	fp, sp, #0
    1fa4:	e24dd00c 	sub	sp, sp, #12
    1fa8:	e3a03000 	mov	r3, #0
    1fac:	e50b3008 	str	r3, [fp, #-8]
    1fb0:	ea000018 	b	2018 <P2P_TABLE_SIZE+0x18>
    1fb4:	e59f207c 	ldr	r2, [pc, #124]	@ 2038 <P2P_TABLE_SIZE+0x38>
    1fb8:	e51b3008 	ldr	r3, [fp, #-8]
    1fbc:	e3a01000 	mov	r1, #0
    1fc0:	e7821203 	str	r1, [r2, r3, lsl #4]
    1fc4:	e59f206c 	ldr	r2, [pc, #108]	@ 2038 <P2P_TABLE_SIZE+0x38>
    1fc8:	e51b3008 	ldr	r3, [fp, #-8]
    1fcc:	e1a03203 	lsl	r3, r3, #4
    1fd0:	e0823003 	add	r3, r2, r3
    1fd4:	e3a02000 	mov	r2, #0
    1fd8:	e5832004 	str	r2, [r3, #4]
    1fdc:	e59f2054 	ldr	r2, [pc, #84]	@ 2038 <P2P_TABLE_SIZE+0x38>
    1fe0:	e51b3008 	ldr	r3, [fp, #-8]
    1fe4:	e1a03203 	lsl	r3, r3, #4
    1fe8:	e0823003 	add	r3, r2, r3
    1fec:	e3a02000 	mov	r2, #0
    1ff0:	e5832008 	str	r2, [r3, #8]
    1ff4:	e59f203c 	ldr	r2, [pc, #60]	@ 2038 <P2P_TABLE_SIZE+0x38>
    1ff8:	e51b3008 	ldr	r3, [fp, #-8]
    1ffc:	e1a03203 	lsl	r3, r3, #4
    2000:	e0823003 	add	r3, r2, r3
    2004:	e3a02000 	mov	r2, #0
    2008:	e5c3200c 	strb	r2, [r3, #12]
    200c:	e51b3008 	ldr	r3, [fp, #-8]
    2010:	e2833001 	add	r3, r3, #1
    2014:	e50b3008 	str	r3, [fp, #-8]
    2018:	e51b3008 	ldr	r3, [fp, #-8]
    201c:	e353007f 	cmp	r3, #127	@ 0x7f
    2020:	9affffe3 	bls	1fb4 <_clear_pending+0x18>
    2024:	e1a00000 	nop			@ (mov r0, r0)
    2028:	e1a00000 	nop			@ (mov r0, r0)
    202c:	e28bd000 	add	sp, fp, #0
    2030:	e49db004 	pop	{fp}		@ (ldr fp, [sp], #4)
    2034:	e12fff1e 	bx	lr
    2038:	00400224 	.word	0x00400224

0000203c <_find_slot>:
    203c:	e52db004 	push	{fp}		@ (str fp, [sp, #-4]!)
    2040:	e28db000 	add	fp, sp, #0
    2044:	e24dd014 	sub	sp, sp, #20
    2048:	e50b0010 	str	r0, [fp, #-16]
    204c:	e3a03000 	mov	r3, #0
    2050:	e50b3008 	str	r3, [fp, #-8]
    2054:	ea00001a 	b	20c4 <_find_slot+0x88>
    2058:	e59f1084 	ldr	r1, [pc, #132]	@ 20e4 <_find_slot+0xa8>
    205c:	e51b2008 	ldr	r2, [fp, #-8]
    2060:	e1a03002 	mov	r3, r2
    2064:	e1a03103 	lsl	r3, r3, #2
    2068:	e0833002 	add	r3, r3, r2
    206c:	e1a03103 	lsl	r3, r3, #2
    2070:	e0813003 	add	r3, r1, r3
    2074:	e2833010 	add	r3, r3, #16
    2078:	e5d33000 	ldrb	r3, [r3]
    207c:	e3530000 	cmp	r3, #0
    2080:	0a00000c 	beq	20b8 <_find_slot+0x7c>
    2084:	e59f1058 	ldr	r1, [pc, #88]	@ 20e4 <_find_slot+0xa8>
    2088:	e51b2008 	ldr	r2, [fp, #-8]
    208c:	e1a03002 	mov	r3, r2
    2090:	e1a03103 	lsl	r3, r3, #2
    2094:	e0833002 	add	r3, r3, r2
    2098:	e1a03103 	lsl	r3, r3, #2
    209c:	e0813003 	add	r3, r1, r3
    20a0:	e5933000 	ldr	r3, [r3]
    20a4:	e51b2010 	ldr	r2, [fp, #-16]
    20a8:	e1520003 	cmp	r2, r3
    20ac:	1a000001 	bne	20b8 <_find_slot+0x7c>
    20b0:	e51b3008 	ldr	r3, [fp, #-8]
    20b4:	ea000006 	b	20d4 <_find_slot+0x98>
    20b8:	e51b3008 	ldr	r3, [fp, #-8]
    20bc:	e2833001 	add	r3, r3, #1
    20c0:	e50b3008 	str	r3, [fp, #-8]
    20c4:	e51b3008 	ldr	r3, [fp, #-8]
    20c8:	e3530007 	cmp	r3, #7
    20cc:	9affffe1 	bls	2058 <_find_slot+0x1c>
    20d0:	e3e03000 	mvn	r3, #0
    20d4:	e1a00003 	mov	r0, r3
    20d8:	e28bd000 	add	sp, fp, #0
    20dc:	e49db004 	pop	{fp}		@ (ldr fp, [sp], #4)
    20e0:	e12fff1e 	bx	lr
    20e4:	00400044 	.word	0x00400044

000020e8 <_select_slot_for_write>:
    20e8:	e52db004 	push	{fp}		@ (str fp, [sp, #-4]!)
    20ec:	e28db000 	add	fp, sp, #0
    20f0:	e24dd024 	sub	sp, sp, #36	@ 0x24
    20f4:	e50b0020 	str	r0, [fp, #-32]	@ 0xffffffe0
    20f8:	e51b3020 	ldr	r3, [fp, #-32]	@ 0xffffffe0
    20fc:	e3a02000 	mov	r2, #0
    2100:	e5832000 	str	r2, [r3]
    2104:	e3a03000 	mov	r3, #0
    2108:	e50b3008 	str	r3, [fp, #-8]
    210c:	ea00000f 	b	2150 <_select_slot_for_write+0x68>
    2110:	e59f1120 	ldr	r1, [pc, #288]	@ 2238 <_select_slot_for_write+0x150>
    2114:	e51b2008 	ldr	r2, [fp, #-8]
    2118:	e1a03002 	mov	r3, r2
    211c:	e1a03103 	lsl	r3, r3, #2
    2120:	e0833002 	add	r3, r3, r2
    2124:	e1a03103 	lsl	r3, r3, #2
    2128:	e0813003 	add	r3, r1, r3
    212c:	e2833010 	add	r3, r3, #16
    2130:	e5d33000 	ldrb	r3, [r3]
    2134:	e3530000 	cmp	r3, #0
    2138:	1a000001 	bne	2144 <_select_slot_for_write+0x5c>
    213c:	e51b3008 	ldr	r3, [fp, #-8]
    2140:	ea000038 	b	2228 <_select_slot_for_write+0x140>
    2144:	e51b3008 	ldr	r3, [fp, #-8]
    2148:	e2833001 	add	r3, r3, #1
    214c:	e50b3008 	str	r3, [fp, #-8]
    2150:	e51b3008 	ldr	r3, [fp, #-8]
    2154:	e3530007 	cmp	r3, #7
    2158:	9affffec 	bls	2110 <_select_slot_for_write+0x28>
    215c:	e3a03000 	mov	r3, #0
    2160:	e50b300c 	str	r3, [fp, #-12]
    2164:	e3a03001 	mov	r3, #1
    2168:	e50b3010 	str	r3, [fp, #-16]
    216c:	ea000026 	b	220c <_select_slot_for_write+0x124>
    2170:	e51b2010 	ldr	r2, [fp, #-16]
    2174:	e1a03002 	mov	r3, r2
    2178:	e1a03103 	lsl	r3, r3, #2
    217c:	e0833002 	add	r3, r3, r2
    2180:	e1a03103 	lsl	r3, r3, #2
    2184:	e59f20ac 	ldr	r2, [pc, #172]	@ 2238 <_select_slot_for_write+0x150>
    2188:	e0833002 	add	r3, r3, r2
    218c:	e50b3014 	str	r3, [fp, #-20]	@ 0xffffffec
    2190:	e51b200c 	ldr	r2, [fp, #-12]
    2194:	e1a03002 	mov	r3, r2
    2198:	e1a03103 	lsl	r3, r3, #2
    219c:	e0833002 	add	r3, r3, r2
    21a0:	e1a03103 	lsl	r3, r3, #2
    21a4:	e59f208c 	ldr	r2, [pc, #140]	@ 2238 <_select_slot_for_write+0x150>
    21a8:	e0833002 	add	r3, r3, r2
    21ac:	e50b3018 	str	r3, [fp, #-24]	@ 0xffffffe8
    21b0:	e51b3014 	ldr	r3, [fp, #-20]	@ 0xffffffec
    21b4:	e5932008 	ldr	r2, [r3, #8]
    21b8:	e51b3018 	ldr	r3, [fp, #-24]	@ 0xffffffe8
    21bc:	e5933008 	ldr	r3, [r3, #8]
    21c0:	e1520003 	cmp	r2, r3
    21c4:	ba00000b 	blt	21f8 <_select_slot_for_write+0x110>
    21c8:	e51b3014 	ldr	r3, [fp, #-20]	@ 0xffffffec
    21cc:	e5932008 	ldr	r2, [r3, #8]
    21d0:	e51b3018 	ldr	r3, [fp, #-24]	@ 0xffffffe8
    21d4:	e5933008 	ldr	r3, [r3, #8]
    21d8:	e1520003 	cmp	r2, r3
    21dc:	1a000007 	bne	2200 <_select_slot_for_write+0x118>
    21e0:	e51b3014 	ldr	r3, [fp, #-20]	@ 0xffffffec
    21e4:	e593200c 	ldr	r2, [r3, #12]
    21e8:	e51b3018 	ldr	r3, [fp, #-24]	@ 0xffffffe8
    21ec:	e593300c 	ldr	r3, [r3, #12]
    21f0:	e1520003 	cmp	r2, r3
    21f4:	2a000001 	bcs	2200 <_select_slot_for_write+0x118>
    21f8:	e51b3010 	ldr	r3, [fp, #-16]
    21fc:	e50b300c 	str	r3, [fp, #-12]
    2200:	e51b3010 	ldr	r3, [fp, #-16]
    2204:	e2833001 	add	r3, r3, #1
    2208:	e50b3010 	str	r3, [fp, #-16]
    220c:	e51b3010 	ldr	r3, [fp, #-16]
    2210:	e3530007 	cmp	r3, #7
    2214:	9affffd5 	bls	2170 <_select_slot_for_write+0x88>
    2218:	e51b3020 	ldr	r3, [fp, #-32]	@ 0xffffffe0
    221c:	e3a02001 	mov	r2, #1
    2220:	e5832000 	str	r2, [r3]
    2224:	e51b300c 	ldr	r3, [fp, #-12]
    2228:	e1a00003 	mov	r0, r3
    222c:	e28bd000 	add	sp, fp, #0
    2230:	e49db004 	pop	{fp}		@ (ldr fp, [sp], #4)
    2234:	e12fff1e 	bx	lr
    2238:	00400044 	.word	0x00400044

0000223c <_find_route_slot>:
    223c:	e52db004 	push	{fp}		@ (str fp, [sp, #-4]!)
    2240:	e28db000 	add	fp, sp, #0
    2244:	e24dd014 	sub	sp, sp, #20
    2248:	e50b0010 	str	r0, [fp, #-16]
    224c:	e3a03000 	mov	r3, #0
    2250:	e50b3008 	str	r3, [fp, #-8]
    2254:	ea00001a 	b	22c4 <_find_route_slot+0x88>
    2258:	e59f1084 	ldr	r1, [pc, #132]	@ 22e4 <_find_route_slot+0xa8>
    225c:	e51b2008 	ldr	r2, [fp, #-8]
    2260:	e1a03002 	mov	r3, r2
    2264:	e1a03103 	lsl	r3, r3, #2
    2268:	e0833002 	add	r3, r3, r2
    226c:	e1a03103 	lsl	r3, r3, #2
    2270:	e0813003 	add	r3, r1, r3
    2274:	e2833010 	add	r3, r3, #16
    2278:	e5d33000 	ldrb	r3, [r3]
    227c:	e3530000 	cmp	r3, #0
    2280:	0a00000c 	beq	22b8 <_find_route_slot+0x7c>
    2284:	e59f1058 	ldr	r1, [pc, #88]	@ 22e4 <_find_route_slot+0xa8>
    2288:	e51b2008 	ldr	r2, [fp, #-8]
    228c:	e1a03002 	mov	r3, r2
    2290:	e1a03103 	lsl	r3, r3, #2
    2294:	e0833002 	add	r3, r3, r2
    2298:	e1a03103 	lsl	r3, r3, #2
    229c:	e0813003 	add	r3, r1, r3
    22a0:	e5933000 	ldr	r3, [r3]
    22a4:	e51b2010 	ldr	r2, [fp, #-16]
    22a8:	e1520003 	cmp	r2, r3
    22ac:	1a000001 	bne	22b8 <_find_route_slot+0x7c>
    22b0:	e51b3008 	ldr	r3, [fp, #-8]
    22b4:	ea000006 	b	22d4 <_find_route_slot+0x98>
    22b8:	e51b3008 	ldr	r3, [fp, #-8]
    22bc:	e2833001 	add	r3, r3, #1
    22c0:	e50b3008 	str	r3, [fp, #-8]
    22c4:	e51b3008 	ldr	r3, [fp, #-8]
    22c8:	e3530007 	cmp	r3, #7
    22cc:	9affffe1 	bls	2258 <_find_route_slot+0x1c>
    22d0:	e3e03000 	mvn	r3, #0
    22d4:	e1a00003 	mov	r0, r3
    22d8:	e28bd000 	add	sp, fp, #0
    22dc:	e49db004 	pop	{fp}		@ (ldr fp, [sp], #4)
    22e0:	e12fff1e 	bx	lr
    22e4:	004000e4 	.word	0x004000e4

000022e8 <_select_route_slot_for_write>:
    22e8:	e52db004 	push	{fp}		@ (str fp, [sp, #-4]!)
    22ec:	e28db000 	add	fp, sp, #0
    22f0:	e24dd024 	sub	sp, sp, #36	@ 0x24
    22f4:	e50b0020 	str	r0, [fp, #-32]	@ 0xffffffe0
    22f8:	e51b3020 	ldr	r3, [fp, #-32]	@ 0xffffffe0
    22fc:	e3a02000 	mov	r2, #0
    2300:	e5832000 	str	r2, [r3]
    2304:	e3a03000 	mov	r3, #0
    2308:	e50b3008 	str	r3, [fp, #-8]
    230c:	ea00000f 	b	2350 <_select_route_slot_for_write+0x68>
    2310:	e59f1120 	ldr	r1, [pc, #288]	@ 2438 <_select_route_slot_for_write+0x150>
    2314:	e51b2008 	ldr	r2, [fp, #-8]
    2318:	e1a03002 	mov	r3, r2
    231c:	e1a03103 	lsl	r3, r3, #2
    2320:	e0833002 	add	r3, r3, r2
    2324:	e1a03103 	lsl	r3, r3, #2
    2328:	e0813003 	add	r3, r1, r3
    232c:	e2833010 	add	r3, r3, #16
    2330:	e5d33000 	ldrb	r3, [r3]
    2334:	e3530000 	cmp	r3, #0
    2338:	1a000001 	bne	2344 <_select_route_slot_for_write+0x5c>
    233c:	e51b3008 	ldr	r3, [fp, #-8]
    2340:	ea000038 	b	2428 <_select_route_slot_for_write+0x140>
    2344:	e51b3008 	ldr	r3, [fp, #-8]
    2348:	e2833001 	add	r3, r3, #1
    234c:	e50b3008 	str	r3, [fp, #-8]
    2350:	e51b3008 	ldr	r3, [fp, #-8]
    2354:	e3530007 	cmp	r3, #7
    2358:	9affffec 	bls	2310 <_select_route_slot_for_write+0x28>
    235c:	e3a03000 	mov	r3, #0
    2360:	e50b300c 	str	r3, [fp, #-12]
    2364:	e3a03001 	mov	r3, #1
    2368:	e50b3010 	str	r3, [fp, #-16]
    236c:	ea000026 	b	240c <_select_route_slot_for_write+0x124>
    2370:	e51b2010 	ldr	r2, [fp, #-16]
    2374:	e1a03002 	mov	r3, r2
    2378:	e1a03103 	lsl	r3, r3, #2
    237c:	e0833002 	add	r3, r3, r2
    2380:	e1a03103 	lsl	r3, r3, #2
    2384:	e59f20ac 	ldr	r2, [pc, #172]	@ 2438 <_select_route_slot_for_write+0x150>
    2388:	e0833002 	add	r3, r3, r2
    238c:	e50b3014 	str	r3, [fp, #-20]	@ 0xffffffec
    2390:	e51b200c 	ldr	r2, [fp, #-12]
    2394:	e1a03002 	mov	r3, r2
    2398:	e1a03103 	lsl	r3, r3, #2
    239c:	e0833002 	add	r3, r3, r2
    23a0:	e1a03103 	lsl	r3, r3, #2
    23a4:	e59f208c 	ldr	r2, [pc, #140]	@ 2438 <_select_route_slot_for_write+0x150>
    23a8:	e0833002 	add	r3, r3, r2
    23ac:	e50b3018 	str	r3, [fp, #-24]	@ 0xffffffe8
    23b0:	e51b3014 	ldr	r3, [fp, #-20]	@ 0xffffffec
    23b4:	e5932008 	ldr	r2, [r3, #8]
    23b8:	e51b3018 	ldr	r3, [fp, #-24]	@ 0xffffffe8
    23bc:	e5933008 	ldr	r3, [r3, #8]
    23c0:	e1520003 	cmp	r2, r3
    23c4:	ba00000b 	blt	23f8 <_select_route_slot_for_write+0x110>
    23c8:	e51b3014 	ldr	r3, [fp, #-20]	@ 0xffffffec
    23cc:	e5932008 	ldr	r2, [r3, #8]
    23d0:	e51b3018 	ldr	r3, [fp, #-24]	@ 0xffffffe8
    23d4:	e5933008 	ldr	r3, [r3, #8]
    23d8:	e1520003 	cmp	r2, r3
    23dc:	1a000007 	bne	2400 <_select_route_slot_for_write+0x118>
    23e0:	e51b3014 	ldr	r3, [fp, #-20]	@ 0xffffffec
    23e4:	e593200c 	ldr	r2, [r3, #12]
    23e8:	e51b3018 	ldr	r3, [fp, #-24]	@ 0xffffffe8
    23ec:	e593300c 	ldr	r3, [r3, #12]
    23f0:	e1520003 	cmp	r2, r3
    23f4:	2a000001 	bcs	2400 <_select_route_slot_for_write+0x118>
    23f8:	e51b3010 	ldr	r3, [fp, #-16]
    23fc:	e50b300c 	str	r3, [fp, #-12]
    2400:	e51b3010 	ldr	r3, [fp, #-16]
    2404:	e2833001 	add	r3, r3, #1
    2408:	e50b3010 	str	r3, [fp, #-16]
    240c:	e51b3010 	ldr	r3, [fp, #-16]
    2410:	e3530007 	cmp	r3, #7
    2414:	9affffd5 	bls	2370 <_select_route_slot_for_write+0x88>
    2418:	e51b3020 	ldr	r3, [fp, #-32]	@ 0xffffffe0
    241c:	e3a02001 	mov	r2, #1
    2420:	e5832000 	str	r2, [r3]
    2424:	e51b300c 	ldr	r3, [fp, #-12]
    2428:	e1a00003 	mov	r0, r3
    242c:	e28bd000 	add	sp, fp, #0
    2430:	e49db004 	pop	{fp}		@ (ldr fp, [sp], #4)
    2434:	e12fff1e 	bx	lr
    2438:	004000e4 	.word	0x004000e4

0000243c <_find_memory_slot>:
    243c:	e52db004 	push	{fp}		@ (str fp, [sp, #-4]!)
    2440:	e28db000 	add	fp, sp, #0
    2444:	e24dd014 	sub	sp, sp, #20
    2448:	e50b0010 	str	r0, [fp, #-16]
    244c:	e3a03000 	mov	r3, #0
    2450:	e50b3008 	str	r3, [fp, #-8]
    2454:	ea00001a 	b	24c4 <_find_memory_slot+0x88>
    2458:	e59f1084 	ldr	r1, [pc, #132]	@ 24e4 <_find_memory_slot+0xa8>
    245c:	e51b2008 	ldr	r2, [fp, #-8]
    2460:	e1a03002 	mov	r3, r2
    2464:	e1a03103 	lsl	r3, r3, #2
    2468:	e0833002 	add	r3, r3, r2
    246c:	e1a03103 	lsl	r3, r3, #2
    2470:	e0813003 	add	r3, r1, r3
    2474:	e2833010 	add	r3, r3, #16
    2478:	e5d33000 	ldrb	r3, [r3]
    247c:	e3530000 	cmp	r3, #0
    2480:	0a00000c 	beq	24b8 <_find_memory_slot+0x7c>
    2484:	e59f1058 	ldr	r1, [pc, #88]	@ 24e4 <_find_memory_slot+0xa8>
    2488:	e51b2008 	ldr	r2, [fp, #-8]
    248c:	e1a03002 	mov	r3, r2
    2490:	e1a03103 	lsl	r3, r3, #2
    2494:	e0833002 	add	r3, r3, r2
    2498:	e1a03103 	lsl	r3, r3, #2
    249c:	e0813003 	add	r3, r1, r3
    24a0:	e5933000 	ldr	r3, [r3]
    24a4:	e51b2010 	ldr	r2, [fp, #-16]
    24a8:	e1520003 	cmp	r2, r3
    24ac:	1a000001 	bne	24b8 <_find_memory_slot+0x7c>
    24b0:	e51b3008 	ldr	r3, [fp, #-8]
    24b4:	ea000006 	b	24d4 <_find_memory_slot+0x98>
    24b8:	e51b3008 	ldr	r3, [fp, #-8]
    24bc:	e2833001 	add	r3, r3, #1
    24c0:	e50b3008 	str	r3, [fp, #-8]
    24c4:	e51b3008 	ldr	r3, [fp, #-8]
    24c8:	e3530007 	cmp	r3, #7
    24cc:	9affffe1 	bls	2458 <_find_memory_slot+0x1c>
    24d0:	e3e03000 	mvn	r3, #0
    24d4:	e1a00003 	mov	r0, r3
    24d8:	e28bd000 	add	sp, fp, #0
    24dc:	e49db004 	pop	{fp}		@ (ldr fp, [sp], #4)
    24e0:	e12fff1e 	bx	lr
    24e4:	00400184 	.word	0x00400184

000024e8 <_select_memory_slot_for_write>:
    24e8:	e52db004 	push	{fp}		@ (str fp, [sp, #-4]!)
    24ec:	e28db000 	add	fp, sp, #0
    24f0:	e24dd024 	sub	sp, sp, #36	@ 0x24
    24f4:	e50b0020 	str	r0, [fp, #-32]	@ 0xffffffe0
    24f8:	e51b3020 	ldr	r3, [fp, #-32]	@ 0xffffffe0
    24fc:	e3a02000 	mov	r2, #0
    2500:	e5832000 	str	r2, [r3]
    2504:	e3a03000 	mov	r3, #0
    2508:	e50b3008 	str	r3, [fp, #-8]
    250c:	ea00000f 	b	2550 <_select_memory_slot_for_write+0x68>
    2510:	e59f1120 	ldr	r1, [pc, #288]	@ 2638 <_select_memory_slot_for_write+0x150>
    2514:	e51b2008 	ldr	r2, [fp, #-8]
    2518:	e1a03002 	mov	r3, r2
    251c:	e1a03103 	lsl	r3, r3, #2
    2520:	e0833002 	add	r3, r3, r2
    2524:	e1a03103 	lsl	r3, r3, #2
    2528:	e0813003 	add	r3, r1, r3
    252c:	e2833010 	add	r3, r3, #16
    2530:	e5d33000 	ldrb	r3, [r3]
    2534:	e3530000 	cmp	r3, #0
    2538:	1a000001 	bne	2544 <_select_memory_slot_for_write+0x5c>
    253c:	e51b3008 	ldr	r3, [fp, #-8]
    2540:	ea000038 	b	2628 <_select_memory_slot_for_write+0x140>
    2544:	e51b3008 	ldr	r3, [fp, #-8]
    2548:	e2833001 	add	r3, r3, #1
    254c:	e50b3008 	str	r3, [fp, #-8]
    2550:	e51b3008 	ldr	r3, [fp, #-8]
    2554:	e3530007 	cmp	r3, #7
    2558:	9affffec 	bls	2510 <_select_memory_slot_for_write+0x28>
    255c:	e3a03000 	mov	r3, #0
    2560:	e50b300c 	str	r3, [fp, #-12]
    2564:	e3a03001 	mov	r3, #1
    2568:	e50b3010 	str	r3, [fp, #-16]
    256c:	ea000026 	b	260c <_select_memory_slot_for_write+0x124>
    2570:	e51b2010 	ldr	r2, [fp, #-16]
    2574:	e1a03002 	mov	r3, r2
    2578:	e1a03103 	lsl	r3, r3, #2
    257c:	e0833002 	add	r3, r3, r2
    2580:	e1a03103 	lsl	r3, r3, #2
    2584:	e59f20ac 	ldr	r2, [pc, #172]	@ 2638 <_select_memory_slot_for_write+0x150>
    2588:	e0833002 	add	r3, r3, r2
    258c:	e50b3014 	str	r3, [fp, #-20]	@ 0xffffffec
    2590:	e51b200c 	ldr	r2, [fp, #-12]
    2594:	e1a03002 	mov	r3, r2
    2598:	e1a03103 	lsl	r3, r3, #2
    259c:	e0833002 	add	r3, r3, r2
    25a0:	e1a03103 	lsl	r3, r3, #2
    25a4:	e59f208c 	ldr	r2, [pc, #140]	@ 2638 <_select_memory_slot_for_write+0x150>
    25a8:	e0833002 	add	r3, r3, r2
    25ac:	e50b3018 	str	r3, [fp, #-24]	@ 0xffffffe8
    25b0:	e51b3014 	ldr	r3, [fp, #-20]	@ 0xffffffec
    25b4:	e5932008 	ldr	r2, [r3, #8]
    25b8:	e51b3018 	ldr	r3, [fp, #-24]	@ 0xffffffe8
    25bc:	e5933008 	ldr	r3, [r3, #8]
    25c0:	e1520003 	cmp	r2, r3
    25c4:	ba00000b 	blt	25f8 <_select_memory_slot_for_write+0x110>
    25c8:	e51b3014 	ldr	r3, [fp, #-20]	@ 0xffffffec
    25cc:	e5932008 	ldr	r2, [r3, #8]
    25d0:	e51b3018 	ldr	r3, [fp, #-24]	@ 0xffffffe8
    25d4:	e5933008 	ldr	r3, [r3, #8]
    25d8:	e1520003 	cmp	r2, r3
    25dc:	1a000007 	bne	2600 <_select_memory_slot_for_write+0x118>
    25e0:	e51b3014 	ldr	r3, [fp, #-20]	@ 0xffffffec
    25e4:	e593200c 	ldr	r2, [r3, #12]
    25e8:	e51b3018 	ldr	r3, [fp, #-24]	@ 0xffffffe8
    25ec:	e593300c 	ldr	r3, [r3, #12]
    25f0:	e1520003 	cmp	r2, r3
    25f4:	2a000001 	bcs	2600 <_select_memory_slot_for_write+0x118>
    25f8:	e51b3010 	ldr	r3, [fp, #-16]
    25fc:	e50b300c 	str	r3, [fp, #-12]
    2600:	e51b3010 	ldr	r3, [fp, #-16]
    2604:	e2833001 	add	r3, r3, #1
    2608:	e50b3010 	str	r3, [fp, #-16]
    260c:	e51b3010 	ldr	r3, [fp, #-16]
    2610:	e3530007 	cmp	r3, #7
    2614:	9affffd5 	bls	2570 <_select_memory_slot_for_write+0x88>
    2618:	e51b3020 	ldr	r3, [fp, #-32]	@ 0xffffffe0
    261c:	e3a02001 	mov	r2, #1
    2620:	e5832000 	str	r2, [r3]
    2624:	e51b300c 	ldr	r3, [fp, #-12]
    2628:	e1a00003 	mov	r0, r3
    262c:	e28bd000 	add	sp, fp, #0
    2630:	e49db004 	pop	{fp}		@ (ldr fp, [sp], #4)
    2634:	e12fff1e 	bx	lr
    2638:	00400184 	.word	0x00400184

0000263c <cra_state_init>:
    263c:	e92d4800 	push	{fp, lr}
    2640:	e28db004 	add	fp, sp, #4
    2644:	ebfffd25 	bl	1ae0 <_clear_slots>
    2648:	ebfffd67 	bl	1bec <_clear_route_slots>
    264c:	ebfffda9 	bl	1cf8 <_clear_memory_slots>
    2650:	ebfffe51 	bl	1f9c <_clear_pending>
    2654:	e3a00000 	mov	r0, #0
    2658:	ebfffde9 	bl	1e04 <_clear_summary>
    265c:	e1a00000 	nop			@ (mov r0, r0)
    2660:	e8bd8800 	pop	{fp, pc}

00002664 <cra_state_reset>:
    2664:	e92d4800 	push	{fp, lr}
    2668:	e28db004 	add	fp, sp, #4
    266c:	e24dd008 	sub	sp, sp, #8
    2670:	e59f302c 	ldr	r3, [pc, #44]	@ 26a4 <cra_state_reset+0x40>
    2674:	e593302c 	ldr	r3, [r3, #44]	@ 0x2c
    2678:	e2833001 	add	r3, r3, #1
    267c:	e50b3008 	str	r3, [fp, #-8]
    2680:	ebfffd16 	bl	1ae0 <_clear_slots>
    2684:	ebfffd58 	bl	1bec <_clear_route_slots>
    2688:	ebfffd9a 	bl	1cf8 <_clear_memory_slots>
    268c:	ebfffe42 	bl	1f9c <_clear_pending>
    2690:	e51b0008 	ldr	r0, [fp, #-8]
    2694:	ebfffdda 	bl	1e04 <_clear_summary>
    2698:	e1a00000 	nop			@ (mov r0, r0)
    269c:	e24bd004 	sub	sp, fp, #4
    26a0:	e8bd8800 	pop	{fp, pc}
    26a4:	00400a24 	.word	0x00400a24

000026a8 <cra_state_write_context>:
    26a8:	e92d4800 	push	{fp, lr}
    26ac:	e28db004 	add	fp, sp, #4
    26b0:	e24dd018 	sub	sp, sp, #24
    26b4:	e50b0010 	str	r0, [fp, #-16]
    26b8:	e50b1014 	str	r1, [fp, #-20]	@ 0xffffffec
    26bc:	e50b2018 	str	r2, [fp, #-24]	@ 0xffffffe8
    26c0:	e50b301c 	str	r3, [fp, #-28]	@ 0xffffffe4
    26c4:	e51b0010 	ldr	r0, [fp, #-16]
    26c8:	ebfffe5b 	bl	203c <_find_slot>
    26cc:	e50b0008 	str	r0, [fp, #-8]
    26d0:	e3a03000 	mov	r3, #0
    26d4:	e50b300c 	str	r3, [fp, #-12]
    26d8:	e51b3008 	ldr	r3, [fp, #-8]
    26dc:	e3530000 	cmp	r3, #0
    26e0:	aa000003 	bge	26f4 <cra_state_write_context+0x4c>
    26e4:	e24b300c 	sub	r3, fp, #12
    26e8:	e1a00003 	mov	r0, r3
    26ec:	ebfffe7d 	bl	20e8 <_select_slot_for_write>
    26f0:	e50b0008 	str	r0, [fp, #-8]
    26f4:	e51b3008 	ldr	r3, [fp, #-8]
    26f8:	e3530000 	cmp	r3, #0
    26fc:	aa000001 	bge	2708 <cra_state_write_context+0x60>
    2700:	e3e03000 	mvn	r3, #0
    2704:	ea00004f 	b	2848 <cra_state_write_context+0x1a0>
    2708:	e59f1144 	ldr	r1, [pc, #324]	@ 2854 <cra_state_write_context+0x1ac>
    270c:	e51b2008 	ldr	r2, [fp, #-8]
    2710:	e1a03002 	mov	r3, r2
    2714:	e1a03103 	lsl	r3, r3, #2
    2718:	e0833002 	add	r3, r3, r2
    271c:	e1a03103 	lsl	r3, r3, #2
    2720:	e0813003 	add	r3, r1, r3
    2724:	e2833010 	add	r3, r3, #16
    2728:	e5d33000 	ldrb	r3, [r3]
    272c:	e3530000 	cmp	r3, #0
    2730:	1a000005 	bne	274c <cra_state_write_context+0xa4>
    2734:	e59f311c 	ldr	r3, [pc, #284]	@ 2858 <cra_state_write_context+0x1b0>
    2738:	e5933000 	ldr	r3, [r3]
    273c:	e2833001 	add	r3, r3, #1
    2740:	e59f2110 	ldr	r2, [pc, #272]	@ 2858 <cra_state_write_context+0x1b0>
    2744:	e5823000 	str	r3, [r2]
    2748:	ea000007 	b	276c <cra_state_write_context+0xc4>
    274c:	e51b300c 	ldr	r3, [fp, #-12]
    2750:	e3530000 	cmp	r3, #0
    2754:	0a000004 	beq	276c <cra_state_write_context+0xc4>
    2758:	e59f30f8 	ldr	r3, [pc, #248]	@ 2858 <cra_state_write_context+0x1b0>
    275c:	e5933010 	ldr	r3, [r3, #16]
    2760:	e2833001 	add	r3, r3, #1
    2764:	e59f20ec 	ldr	r2, [pc, #236]	@ 2858 <cra_state_write_context+0x1b0>
    2768:	e5823010 	str	r3, [r2, #16]
    276c:	e59f10e0 	ldr	r1, [pc, #224]	@ 2854 <cra_state_write_context+0x1ac>
    2770:	e51b2008 	ldr	r2, [fp, #-8]
    2774:	e1a03002 	mov	r3, r2
    2778:	e1a03103 	lsl	r3, r3, #2
    277c:	e0833002 	add	r3, r3, r2
    2780:	e1a03103 	lsl	r3, r3, #2
    2784:	e0813003 	add	r3, r1, r3
    2788:	e51b2010 	ldr	r2, [fp, #-16]
    278c:	e5832000 	str	r2, [r3]
    2790:	e59f10bc 	ldr	r1, [pc, #188]	@ 2854 <cra_state_write_context+0x1ac>
    2794:	e51b2008 	ldr	r2, [fp, #-8]
    2798:	e1a03002 	mov	r3, r2
    279c:	e1a03103 	lsl	r3, r3, #2
    27a0:	e0833002 	add	r3, r3, r2
    27a4:	e1a03103 	lsl	r3, r3, #2
    27a8:	e0813003 	add	r3, r1, r3
    27ac:	e2833004 	add	r3, r3, #4
    27b0:	e51b2014 	ldr	r2, [fp, #-20]	@ 0xffffffec
    27b4:	e5832000 	str	r2, [r3]
    27b8:	e59f1094 	ldr	r1, [pc, #148]	@ 2854 <cra_state_write_context+0x1ac>
    27bc:	e51b2008 	ldr	r2, [fp, #-8]
    27c0:	e1a03002 	mov	r3, r2
    27c4:	e1a03103 	lsl	r3, r3, #2
    27c8:	e0833002 	add	r3, r3, r2
    27cc:	e1a03103 	lsl	r3, r3, #2
    27d0:	e0813003 	add	r3, r1, r3
    27d4:	e2833008 	add	r3, r3, #8
    27d8:	e51b2018 	ldr	r2, [fp, #-24]	@ 0xffffffe8
    27dc:	e5832000 	str	r2, [r3]
    27e0:	e59f106c 	ldr	r1, [pc, #108]	@ 2854 <cra_state_write_context+0x1ac>
    27e4:	e51b2008 	ldr	r2, [fp, #-8]
    27e8:	e1a03002 	mov	r3, r2
    27ec:	e1a03103 	lsl	r3, r3, #2
    27f0:	e0833002 	add	r3, r3, r2
    27f4:	e1a03103 	lsl	r3, r3, #2
    27f8:	e0813003 	add	r3, r1, r3
    27fc:	e283300c 	add	r3, r3, #12
    2800:	e51b201c 	ldr	r2, [fp, #-28]	@ 0xffffffe4
    2804:	e5832000 	str	r2, [r3]
    2808:	e59f1044 	ldr	r1, [pc, #68]	@ 2854 <cra_state_write_context+0x1ac>
    280c:	e51b2008 	ldr	r2, [fp, #-8]
    2810:	e1a03002 	mov	r3, r2
    2814:	e1a03103 	lsl	r3, r3, #2
    2818:	e0833002 	add	r3, r3, r2
    281c:	e1a03103 	lsl	r3, r3, #2
    2820:	e0813003 	add	r3, r1, r3
    2824:	e2833010 	add	r3, r3, #16
    2828:	e3a02001 	mov	r2, #1
    282c:	e5c32000 	strb	r2, [r3]
    2830:	e59f3020 	ldr	r3, [pc, #32]	@ 2858 <cra_state_write_context+0x1b0>
    2834:	e5933004 	ldr	r3, [r3, #4]
    2838:	e2833001 	add	r3, r3, #1
    283c:	e59f2014 	ldr	r2, [pc, #20]	@ 2858 <cra_state_write_context+0x1b0>
    2840:	e5823004 	str	r3, [r2, #4]
    2844:	e3a03000 	mov	r3, #0
    2848:	e1a00003 	mov	r0, r3
    284c:	e24bd004 	sub	sp, fp, #4
    2850:	e8bd8800 	pop	{fp, pc}
    2854:	00400044 	.word	0x00400044
    2858:	00400a24 	.word	0x00400a24

0000285c <cra_state_read_context>:
    285c:	e92d4800 	push	{fp, lr}
    2860:	e28db004 	add	fp, sp, #4
    2864:	e24dd018 	sub	sp, sp, #24
    2868:	e50b0010 	str	r0, [fp, #-16]
    286c:	e50b1014 	str	r1, [fp, #-20]	@ 0xffffffec
    2870:	e50b2018 	str	r2, [fp, #-24]	@ 0xffffffe8
    2874:	e51b0010 	ldr	r0, [fp, #-16]
    2878:	ebfffdef 	bl	203c <_find_slot>
    287c:	e50b0008 	str	r0, [fp, #-8]
    2880:	e51b3008 	ldr	r3, [fp, #-8]
    2884:	e3530000 	cmp	r3, #0
    2888:	aa000006 	bge	28a8 <cra_state_read_context+0x4c>
    288c:	e59f30a8 	ldr	r3, [pc, #168]	@ 293c <cra_state_read_context+0xe0>
    2890:	e593300c 	ldr	r3, [r3, #12]
    2894:	e2833001 	add	r3, r3, #1
    2898:	e59f209c 	ldr	r2, [pc, #156]	@ 293c <cra_state_read_context+0xe0>
    289c:	e582300c 	str	r3, [r2, #12]
    28a0:	e3e03000 	mvn	r3, #0
    28a4:	ea000021 	b	2930 <cra_state_read_context+0xd4>
    28a8:	e51b3014 	ldr	r3, [fp, #-20]	@ 0xffffffec
    28ac:	e3530000 	cmp	r3, #0
    28b0:	0a00000a 	beq	28e0 <cra_state_read_context+0x84>
    28b4:	e59f1084 	ldr	r1, [pc, #132]	@ 2940 <cra_state_read_context+0xe4>
    28b8:	e51b2008 	ldr	r2, [fp, #-8]
    28bc:	e1a03002 	mov	r3, r2
    28c0:	e1a03103 	lsl	r3, r3, #2
    28c4:	e0833002 	add	r3, r3, r2
    28c8:	e1a03103 	lsl	r3, r3, #2
    28cc:	e0813003 	add	r3, r1, r3
    28d0:	e2833004 	add	r3, r3, #4
    28d4:	e5932000 	ldr	r2, [r3]
    28d8:	e51b3014 	ldr	r3, [fp, #-20]	@ 0xffffffec
    28dc:	e5832000 	str	r2, [r3]
    28e0:	e51b3018 	ldr	r3, [fp, #-24]	@ 0xffffffe8
    28e4:	e3530000 	cmp	r3, #0
    28e8:	0a00000a 	beq	2918 <cra_state_read_context+0xbc>
    28ec:	e59f104c 	ldr	r1, [pc, #76]	@ 2940 <cra_state_read_context+0xe4>
    28f0:	e51b2008 	ldr	r2, [fp, #-8]
    28f4:	e1a03002 	mov	r3, r2
    28f8:	e1a03103 	lsl	r3, r3, #2
    28fc:	e0833002 	add	r3, r3, r2
    2900:	e1a03103 	lsl	r3, r3, #2
    2904:	e0813003 	add	r3, r1, r3
    2908:	e2833008 	add	r3, r3, #8
    290c:	e5932000 	ldr	r2, [r3]
    2910:	e51b3018 	ldr	r3, [fp, #-24]	@ 0xffffffe8
    2914:	e5832000 	str	r2, [r3]
    2918:	e59f301c 	ldr	r3, [pc, #28]	@ 293c <cra_state_read_context+0xe0>
    291c:	e5933008 	ldr	r3, [r3, #8]
    2920:	e2833001 	add	r3, r3, #1
    2924:	e59f2010 	ldr	r2, [pc, #16]	@ 293c <cra_state_read_context+0xe0>
    2928:	e5823008 	str	r3, [r2, #8]
    292c:	e3a03000 	mov	r3, #0
    2930:	e1a00003 	mov	r0, r3
    2934:	e24bd004 	sub	sp, fp, #4
    2938:	e8bd8800 	pop	{fp, pc}
    293c:	00400a24 	.word	0x00400a24
    2940:	00400044 	.word	0x00400044

00002944 <cra_state_active_slot_count>:
    2944:	e52db004 	push	{fp}		@ (str fp, [sp, #-4]!)
    2948:	e28db000 	add	fp, sp, #0
    294c:	e59f3010 	ldr	r3, [pc, #16]	@ 2964 <cra_state_active_slot_count+0x20>
    2950:	e5933000 	ldr	r3, [r3]
    2954:	e1a00003 	mov	r0, r3
    2958:	e28bd000 	add	sp, fp, #0
    295c:	e49db004 	pop	{fp}		@ (ldr fp, [sp], #4)
    2960:	e12fff1e 	bx	lr
    2964:	00400a24 	.word	0x00400a24

00002968 <cra_state_write_route>:
    2968:	e52db004 	push	{fp}		@ (str fp, [sp, #-4]!)
    296c:	e28db000 	add	fp, sp, #0
    2970:	e24dd014 	sub	sp, sp, #20
    2974:	e50b0008 	str	r0, [fp, #-8]
    2978:	e50b100c 	str	r1, [fp, #-12]
    297c:	e50b2010 	str	r2, [fp, #-16]
    2980:	e59f2038 	ldr	r2, [pc, #56]	@ 29c0 <cra_state_write_route+0x58>
    2984:	e51b3008 	ldr	r3, [fp, #-8]
    2988:	e5823068 	str	r3, [r2, #104]	@ 0x68
    298c:	e59f202c 	ldr	r2, [pc, #44]	@ 29c0 <cra_state_write_route+0x58>
    2990:	e51b300c 	ldr	r3, [fp, #-12]
    2994:	e582306c 	str	r3, [r2, #108]	@ 0x6c
    2998:	e59f3020 	ldr	r3, [pc, #32]	@ 29c0 <cra_state_write_route+0x58>
    299c:	e5933030 	ldr	r3, [r3, #48]	@ 0x30
    29a0:	e2833001 	add	r3, r3, #1
    29a4:	e59f2014 	ldr	r2, [pc, #20]	@ 29c0 <cra_state_write_route+0x58>
    29a8:	e5823030 	str	r3, [r2, #48]	@ 0x30
    29ac:	e3a03000 	mov	r3, #0
    29b0:	e1a00003 	mov	r0, r3
    29b4:	e28bd000 	add	sp, fp, #0
    29b8:	e49db004 	pop	{fp}		@ (ldr fp, [sp], #4)
    29bc:	e12fff1e 	bx	lr
    29c0:	00400a24 	.word	0x00400a24

000029c4 <cra_state_read_route>:
    29c4:	e52db004 	push	{fp}		@ (str fp, [sp, #-4]!)
    29c8:	e28db000 	add	fp, sp, #0
    29cc:	e24dd00c 	sub	sp, sp, #12
    29d0:	e50b0008 	str	r0, [fp, #-8]
    29d4:	e50b100c 	str	r1, [fp, #-12]
    29d8:	e51b3008 	ldr	r3, [fp, #-8]
    29dc:	e3530000 	cmp	r3, #0
    29e0:	0a000003 	beq	29f4 <cra_state_read_route+0x30>
    29e4:	e59f304c 	ldr	r3, [pc, #76]	@ 2a38 <cra_state_read_route+0x74>
    29e8:	e5932068 	ldr	r2, [r3, #104]	@ 0x68
    29ec:	e51b3008 	ldr	r3, [fp, #-8]
    29f0:	e5832000 	str	r2, [r3]
    29f4:	e51b300c 	ldr	r3, [fp, #-12]
    29f8:	e3530000 	cmp	r3, #0
    29fc:	0a000003 	beq	2a10 <cra_state_read_route+0x4c>
    2a00:	e59f3030 	ldr	r3, [pc, #48]	@ 2a38 <cra_state_read_route+0x74>
    2a04:	e593206c 	ldr	r2, [r3, #108]	@ 0x6c
    2a08:	e51b300c 	ldr	r3, [fp, #-12]
    2a0c:	e5832000 	str	r2, [r3]
    2a10:	e59f3020 	ldr	r3, [pc, #32]	@ 2a38 <cra_state_read_route+0x74>
    2a14:	e5933034 	ldr	r3, [r3, #52]	@ 0x34
    2a18:	e2833001 	add	r3, r3, #1
    2a1c:	e59f2014 	ldr	r2, [pc, #20]	@ 2a38 <cra_state_read_route+0x74>
    2a20:	e5823034 	str	r3, [r2, #52]	@ 0x34
    2a24:	e3a03000 	mov	r3, #0
    2a28:	e1a00003 	mov	r0, r3
    2a2c:	e28bd000 	add	sp, fp, #0
    2a30:	e49db004 	pop	{fp}		@ (ldr fp, [sp], #4)
    2a34:	e12fff1e 	bx	lr
    2a38:	00400a24 	.word	0x00400a24

00002a3c <cra_state_write_route_slot>:
    2a3c:	e92d4800 	push	{fp, lr}
    2a40:	e28db004 	add	fp, sp, #4
    2a44:	e24dd018 	sub	sp, sp, #24
    2a48:	e50b0010 	str	r0, [fp, #-16]
    2a4c:	e50b1014 	str	r1, [fp, #-20]	@ 0xffffffec
    2a50:	e50b2018 	str	r2, [fp, #-24]	@ 0xffffffe8
    2a54:	e50b301c 	str	r3, [fp, #-28]	@ 0xffffffe4
    2a58:	e51b0010 	ldr	r0, [fp, #-16]
    2a5c:	ebfffdf6 	bl	223c <_find_route_slot>
    2a60:	e50b0008 	str	r0, [fp, #-8]
    2a64:	e3a03000 	mov	r3, #0
    2a68:	e50b300c 	str	r3, [fp, #-12]
    2a6c:	e51b3008 	ldr	r3, [fp, #-8]
    2a70:	e3530000 	cmp	r3, #0
    2a74:	aa000003 	bge	2a88 <cra_state_write_route_slot+0x4c>
    2a78:	e24b300c 	sub	r3, fp, #12
    2a7c:	e1a00003 	mov	r0, r3
    2a80:	ebfffe18 	bl	22e8 <_select_route_slot_for_write>
    2a84:	e50b0008 	str	r0, [fp, #-8]
    2a88:	e51b3008 	ldr	r3, [fp, #-8]
    2a8c:	e3530000 	cmp	r3, #0
    2a90:	aa000001 	bge	2a9c <cra_state_write_route_slot+0x60>
    2a94:	e3e03000 	mvn	r3, #0
    2a98:	ea00004f 	b	2bdc <cra_state_write_route_slot+0x1a0>
    2a9c:	e59f1144 	ldr	r1, [pc, #324]	@ 2be8 <cra_state_write_route_slot+0x1ac>
    2aa0:	e51b2008 	ldr	r2, [fp, #-8]
    2aa4:	e1a03002 	mov	r3, r2
    2aa8:	e1a03103 	lsl	r3, r3, #2
    2aac:	e0833002 	add	r3, r3, r2
    2ab0:	e1a03103 	lsl	r3, r3, #2
    2ab4:	e0813003 	add	r3, r1, r3
    2ab8:	e2833010 	add	r3, r3, #16
    2abc:	e5d33000 	ldrb	r3, [r3]
    2ac0:	e3530000 	cmp	r3, #0
    2ac4:	1a000005 	bne	2ae0 <cra_state_write_route_slot+0xa4>
    2ac8:	e59f311c 	ldr	r3, [pc, #284]	@ 2bec <cra_state_write_route_slot+0x1b0>
    2acc:	e5933038 	ldr	r3, [r3, #56]	@ 0x38
    2ad0:	e2833001 	add	r3, r3, #1
    2ad4:	e59f2110 	ldr	r2, [pc, #272]	@ 2bec <cra_state_write_route_slot+0x1b0>
    2ad8:	e5823038 	str	r3, [r2, #56]	@ 0x38
    2adc:	ea000007 	b	2b00 <cra_state_write_route_slot+0xc4>
    2ae0:	e51b300c 	ldr	r3, [fp, #-12]
    2ae4:	e3530000 	cmp	r3, #0
    2ae8:	0a000004 	beq	2b00 <cra_state_write_route_slot+0xc4>
    2aec:	e59f30f8 	ldr	r3, [pc, #248]	@ 2bec <cra_state_write_route_slot+0x1b0>
    2af0:	e5933048 	ldr	r3, [r3, #72]	@ 0x48
    2af4:	e2833001 	add	r3, r3, #1
    2af8:	e59f20ec 	ldr	r2, [pc, #236]	@ 2bec <cra_state_write_route_slot+0x1b0>
    2afc:	e5823048 	str	r3, [r2, #72]	@ 0x48
    2b00:	e59f10e0 	ldr	r1, [pc, #224]	@ 2be8 <cra_state_write_route_slot+0x1ac>
    2b04:	e51b2008 	ldr	r2, [fp, #-8]
    2b08:	e1a03002 	mov	r3, r2
    2b0c:	e1a03103 	lsl	r3, r3, #2
    2b10:	e0833002 	add	r3, r3, r2
    2b14:	e1a03103 	lsl	r3, r3, #2
    2b18:	e0813003 	add	r3, r1, r3
    2b1c:	e51b2010 	ldr	r2, [fp, #-16]
    2b20:	e5832000 	str	r2, [r3]
    2b24:	e59f10bc 	ldr	r1, [pc, #188]	@ 2be8 <cra_state_write_route_slot+0x1ac>
    2b28:	e51b2008 	ldr	r2, [fp, #-8]
    2b2c:	e1a03002 	mov	r3, r2
    2b30:	e1a03103 	lsl	r3, r3, #2
    2b34:	e0833002 	add	r3, r3, r2
    2b38:	e1a03103 	lsl	r3, r3, #2
    2b3c:	e0813003 	add	r3, r1, r3
    2b40:	e2833004 	add	r3, r3, #4
    2b44:	e51b2014 	ldr	r2, [fp, #-20]	@ 0xffffffec
    2b48:	e5832000 	str	r2, [r3]
    2b4c:	e59f1094 	ldr	r1, [pc, #148]	@ 2be8 <cra_state_write_route_slot+0x1ac>
    2b50:	e51b2008 	ldr	r2, [fp, #-8]
    2b54:	e1a03002 	mov	r3, r2
    2b58:	e1a03103 	lsl	r3, r3, #2
    2b5c:	e0833002 	add	r3, r3, r2
    2b60:	e1a03103 	lsl	r3, r3, #2
    2b64:	e0813003 	add	r3, r1, r3
    2b68:	e2833008 	add	r3, r3, #8
    2b6c:	e51b2018 	ldr	r2, [fp, #-24]	@ 0xffffffe8
    2b70:	e5832000 	str	r2, [r3]
    2b74:	e59f106c 	ldr	r1, [pc, #108]	@ 2be8 <cra_state_write_route_slot+0x1ac>
    2b78:	e51b2008 	ldr	r2, [fp, #-8]
    2b7c:	e1a03002 	mov	r3, r2
    2b80:	e1a03103 	lsl	r3, r3, #2
    2b84:	e0833002 	add	r3, r3, r2
    2b88:	e1a03103 	lsl	r3, r3, #2
    2b8c:	e0813003 	add	r3, r1, r3
    2b90:	e283300c 	add	r3, r3, #12
    2b94:	e51b201c 	ldr	r2, [fp, #-28]	@ 0xffffffe4
    2b98:	e5832000 	str	r2, [r3]
    2b9c:	e59f1044 	ldr	r1, [pc, #68]	@ 2be8 <cra_state_write_route_slot+0x1ac>
    2ba0:	e51b2008 	ldr	r2, [fp, #-8]
    2ba4:	e1a03002 	mov	r3, r2
    2ba8:	e1a03103 	lsl	r3, r3, #2
    2bac:	e0833002 	add	r3, r3, r2
    2bb0:	e1a03103 	lsl	r3, r3, #2
    2bb4:	e0813003 	add	r3, r1, r3
    2bb8:	e2833010 	add	r3, r3, #16
    2bbc:	e3a02001 	mov	r2, #1
    2bc0:	e5c32000 	strb	r2, [r3]
    2bc4:	e59f3020 	ldr	r3, [pc, #32]	@ 2bec <cra_state_write_route_slot+0x1b0>
    2bc8:	e593303c 	ldr	r3, [r3, #60]	@ 0x3c
    2bcc:	e2833001 	add	r3, r3, #1
    2bd0:	e59f2014 	ldr	r2, [pc, #20]	@ 2bec <cra_state_write_route_slot+0x1b0>
    2bd4:	e582303c 	str	r3, [r2, #60]	@ 0x3c
    2bd8:	e3a03000 	mov	r3, #0
    2bdc:	e1a00003 	mov	r0, r3
    2be0:	e24bd004 	sub	sp, fp, #4
    2be4:	e8bd8800 	pop	{fp, pc}
    2be8:	004000e4 	.word	0x004000e4
    2bec:	00400a24 	.word	0x00400a24

00002bf0 <cra_state_read_route_slot>:
    2bf0:	e92d4800 	push	{fp, lr}
    2bf4:	e28db004 	add	fp, sp, #4
    2bf8:	e24dd018 	sub	sp, sp, #24
    2bfc:	e50b0010 	str	r0, [fp, #-16]
    2c00:	e50b1014 	str	r1, [fp, #-20]	@ 0xffffffec
    2c04:	e50b2018 	str	r2, [fp, #-24]	@ 0xffffffe8
    2c08:	e51b0010 	ldr	r0, [fp, #-16]
    2c0c:	ebfffd8a 	bl	223c <_find_route_slot>
    2c10:	e50b0008 	str	r0, [fp, #-8]
    2c14:	e51b3008 	ldr	r3, [fp, #-8]
    2c18:	e3530000 	cmp	r3, #0
    2c1c:	aa000006 	bge	2c3c <cra_state_read_route_slot+0x4c>
    2c20:	e59f30a8 	ldr	r3, [pc, #168]	@ 2cd0 <cra_state_read_route_slot+0xe0>
    2c24:	e5933044 	ldr	r3, [r3, #68]	@ 0x44
    2c28:	e2833001 	add	r3, r3, #1
    2c2c:	e59f209c 	ldr	r2, [pc, #156]	@ 2cd0 <cra_state_read_route_slot+0xe0>
    2c30:	e5823044 	str	r3, [r2, #68]	@ 0x44
    2c34:	e3e03000 	mvn	r3, #0
    2c38:	ea000021 	b	2cc4 <cra_state_read_route_slot+0xd4>
    2c3c:	e51b3014 	ldr	r3, [fp, #-20]	@ 0xffffffec
    2c40:	e3530000 	cmp	r3, #0
    2c44:	0a00000a 	beq	2c74 <cra_state_read_route_slot+0x84>
    2c48:	e59f1084 	ldr	r1, [pc, #132]	@ 2cd4 <cra_state_read_route_slot+0xe4>
    2c4c:	e51b2008 	ldr	r2, [fp, #-8]
    2c50:	e1a03002 	mov	r3, r2
    2c54:	e1a03103 	lsl	r3, r3, #2
    2c58:	e0833002 	add	r3, r3, r2
    2c5c:	e1a03103 	lsl	r3, r3, #2
    2c60:	e0813003 	add	r3, r1, r3
    2c64:	e2833004 	add	r3, r3, #4
    2c68:	e5932000 	ldr	r2, [r3]
    2c6c:	e51b3014 	ldr	r3, [fp, #-20]	@ 0xffffffec
    2c70:	e5832000 	str	r2, [r3]
    2c74:	e51b3018 	ldr	r3, [fp, #-24]	@ 0xffffffe8
    2c78:	e3530000 	cmp	r3, #0
    2c7c:	0a00000a 	beq	2cac <cra_state_read_route_slot+0xbc>
    2c80:	e59f104c 	ldr	r1, [pc, #76]	@ 2cd4 <cra_state_read_route_slot+0xe4>
    2c84:	e51b2008 	ldr	r2, [fp, #-8]
    2c88:	e1a03002 	mov	r3, r2
    2c8c:	e1a03103 	lsl	r3, r3, #2
    2c90:	e0833002 	add	r3, r3, r2
    2c94:	e1a03103 	lsl	r3, r3, #2
    2c98:	e0813003 	add	r3, r1, r3
    2c9c:	e2833008 	add	r3, r3, #8
    2ca0:	e5932000 	ldr	r2, [r3]
    2ca4:	e51b3018 	ldr	r3, [fp, #-24]	@ 0xffffffe8
    2ca8:	e5832000 	str	r2, [r3]
    2cac:	e59f301c 	ldr	r3, [pc, #28]	@ 2cd0 <cra_state_read_route_slot+0xe0>
    2cb0:	e5933040 	ldr	r3, [r3, #64]	@ 0x40
    2cb4:	e2833001 	add	r3, r3, #1
    2cb8:	e59f2010 	ldr	r2, [pc, #16]	@ 2cd0 <cra_state_read_route_slot+0xe0>
    2cbc:	e5823040 	str	r3, [r2, #64]	@ 0x40
    2cc0:	e3a03000 	mov	r3, #0
    2cc4:	e1a00003 	mov	r0, r3
    2cc8:	e24bd004 	sub	sp, fp, #4
    2ccc:	e8bd8800 	pop	{fp, pc}
    2cd0:	00400a24 	.word	0x00400a24
    2cd4:	004000e4 	.word	0x004000e4

00002cd8 <cra_state_active_route_slot_count>:
    2cd8:	e52db004 	push	{fp}		@ (str fp, [sp, #-4]!)
    2cdc:	e28db000 	add	fp, sp, #0
    2ce0:	e59f3010 	ldr	r3, [pc, #16]	@ 2cf8 <cra_state_active_route_slot_count+0x20>
    2ce4:	e5933038 	ldr	r3, [r3, #56]	@ 0x38
    2ce8:	e1a00003 	mov	r0, r3
    2cec:	e28bd000 	add	sp, fp, #0
    2cf0:	e49db004 	pop	{fp}		@ (ldr fp, [sp], #4)
    2cf4:	e12fff1e 	bx	lr
    2cf8:	00400a24 	.word	0x00400a24

00002cfc <cra_state_write_memory_slot>:
    2cfc:	e92d4800 	push	{fp, lr}
    2d00:	e28db004 	add	fp, sp, #4
    2d04:	e24dd018 	sub	sp, sp, #24
    2d08:	e50b0010 	str	r0, [fp, #-16]
    2d0c:	e50b1014 	str	r1, [fp, #-20]	@ 0xffffffec
    2d10:	e50b2018 	str	r2, [fp, #-24]	@ 0xffffffe8
    2d14:	e50b301c 	str	r3, [fp, #-28]	@ 0xffffffe4
    2d18:	e51b0010 	ldr	r0, [fp, #-16]
    2d1c:	ebfffdc6 	bl	243c <_find_memory_slot>
    2d20:	e50b0008 	str	r0, [fp, #-8]
    2d24:	e3a03000 	mov	r3, #0
    2d28:	e50b300c 	str	r3, [fp, #-12]
    2d2c:	e51b3008 	ldr	r3, [fp, #-8]
    2d30:	e3530000 	cmp	r3, #0
    2d34:	aa000003 	bge	2d48 <cra_state_write_memory_slot+0x4c>
    2d38:	e24b300c 	sub	r3, fp, #12
    2d3c:	e1a00003 	mov	r0, r3
    2d40:	ebfffde8 	bl	24e8 <_select_memory_slot_for_write>
    2d44:	e50b0008 	str	r0, [fp, #-8]
    2d48:	e51b3008 	ldr	r3, [fp, #-8]
    2d4c:	e3530000 	cmp	r3, #0
    2d50:	aa000001 	bge	2d5c <cra_state_write_memory_slot+0x60>
    2d54:	e3e03000 	mvn	r3, #0
    2d58:	ea00004f 	b	2e9c <cra_state_write_memory_slot+0x1a0>
    2d5c:	e59f1144 	ldr	r1, [pc, #324]	@ 2ea8 <cra_state_write_memory_slot+0x1ac>
    2d60:	e51b2008 	ldr	r2, [fp, #-8]
    2d64:	e1a03002 	mov	r3, r2
    2d68:	e1a03103 	lsl	r3, r3, #2
    2d6c:	e0833002 	add	r3, r3, r2
    2d70:	e1a03103 	lsl	r3, r3, #2
    2d74:	e0813003 	add	r3, r1, r3
    2d78:	e2833010 	add	r3, r3, #16
    2d7c:	e5d33000 	ldrb	r3, [r3]
    2d80:	e3530000 	cmp	r3, #0
    2d84:	1a000005 	bne	2da0 <cra_state_write_memory_slot+0xa4>
    2d88:	e59f311c 	ldr	r3, [pc, #284]	@ 2eac <cra_state_write_memory_slot+0x1b0>
    2d8c:	e593304c 	ldr	r3, [r3, #76]	@ 0x4c
    2d90:	e2833001 	add	r3, r3, #1
    2d94:	e59f2110 	ldr	r2, [pc, #272]	@ 2eac <cra_state_write_memory_slot+0x1b0>
    2d98:	e582304c 	str	r3, [r2, #76]	@ 0x4c
    2d9c:	ea000007 	b	2dc0 <cra_state_write_memory_slot+0xc4>
    2da0:	e51b300c 	ldr	r3, [fp, #-12]
    2da4:	e3530000 	cmp	r3, #0
    2da8:	0a000004 	beq	2dc0 <cra_state_write_memory_slot+0xc4>
    2dac:	e59f30f8 	ldr	r3, [pc, #248]	@ 2eac <cra_state_write_memory_slot+0x1b0>
    2db0:	e593305c 	ldr	r3, [r3, #92]	@ 0x5c
    2db4:	e2833001 	add	r3, r3, #1
    2db8:	e59f20ec 	ldr	r2, [pc, #236]	@ 2eac <cra_state_write_memory_slot+0x1b0>
    2dbc:	e582305c 	str	r3, [r2, #92]	@ 0x5c
    2dc0:	e59f10e0 	ldr	r1, [pc, #224]	@ 2ea8 <cra_state_write_memory_slot+0x1ac>
    2dc4:	e51b2008 	ldr	r2, [fp, #-8]
    2dc8:	e1a03002 	mov	r3, r2
    2dcc:	e1a03103 	lsl	r3, r3, #2
    2dd0:	e0833002 	add	r3, r3, r2
    2dd4:	e1a03103 	lsl	r3, r3, #2
    2dd8:	e0813003 	add	r3, r1, r3
    2ddc:	e51b2010 	ldr	r2, [fp, #-16]
    2de0:	e5832000 	str	r2, [r3]
    2de4:	e59f10bc 	ldr	r1, [pc, #188]	@ 2ea8 <cra_state_write_memory_slot+0x1ac>
    2de8:	e51b2008 	ldr	r2, [fp, #-8]
    2dec:	e1a03002 	mov	r3, r2
    2df0:	e1a03103 	lsl	r3, r3, #2
    2df4:	e0833002 	add	r3, r3, r2
    2df8:	e1a03103 	lsl	r3, r3, #2
    2dfc:	e0813003 	add	r3, r1, r3
    2e00:	e2833004 	add	r3, r3, #4
    2e04:	e51b2014 	ldr	r2, [fp, #-20]	@ 0xffffffec
    2e08:	e5832000 	str	r2, [r3]
    2e0c:	e59f1094 	ldr	r1, [pc, #148]	@ 2ea8 <cra_state_write_memory_slot+0x1ac>
    2e10:	e51b2008 	ldr	r2, [fp, #-8]
    2e14:	e1a03002 	mov	r3, r2
    2e18:	e1a03103 	lsl	r3, r3, #2
    2e1c:	e0833002 	add	r3, r3, r2
    2e20:	e1a03103 	lsl	r3, r3, #2
    2e24:	e0813003 	add	r3, r1, r3
    2e28:	e2833008 	add	r3, r3, #8
    2e2c:	e51b2018 	ldr	r2, [fp, #-24]	@ 0xffffffe8
    2e30:	e5832000 	str	r2, [r3]
    2e34:	e59f106c 	ldr	r1, [pc, #108]	@ 2ea8 <cra_state_write_memory_slot+0x1ac>
    2e38:	e51b2008 	ldr	r2, [fp, #-8]
    2e3c:	e1a03002 	mov	r3, r2
    2e40:	e1a03103 	lsl	r3, r3, #2
    2e44:	e0833002 	add	r3, r3, r2
    2e48:	e1a03103 	lsl	r3, r3, #2
    2e4c:	e0813003 	add	r3, r1, r3
    2e50:	e283300c 	add	r3, r3, #12
    2e54:	e51b201c 	ldr	r2, [fp, #-28]	@ 0xffffffe4
    2e58:	e5832000 	str	r2, [r3]
    2e5c:	e59f1044 	ldr	r1, [pc, #68]	@ 2ea8 <cra_state_write_memory_slot+0x1ac>
    2e60:	e51b2008 	ldr	r2, [fp, #-8]
    2e64:	e1a03002 	mov	r3, r2
    2e68:	e1a03103 	lsl	r3, r3, #2
    2e6c:	e0833002 	add	r3, r3, r2
    2e70:	e1a03103 	lsl	r3, r3, #2
    2e74:	e0813003 	add	r3, r1, r3
    2e78:	e2833010 	add	r3, r3, #16
    2e7c:	e3a02001 	mov	r2, #1
    2e80:	e5c32000 	strb	r2, [r3]
    2e84:	e59f3020 	ldr	r3, [pc, #32]	@ 2eac <cra_state_write_memory_slot+0x1b0>
    2e88:	e5933050 	ldr	r3, [r3, #80]	@ 0x50
    2e8c:	e2833001 	add	r3, r3, #1
    2e90:	e59f2014 	ldr	r2, [pc, #20]	@ 2eac <cra_state_write_memory_slot+0x1b0>
    2e94:	e5823050 	str	r3, [r2, #80]	@ 0x50
    2e98:	e3a03000 	mov	r3, #0
    2e9c:	e1a00003 	mov	r0, r3
    2ea0:	e24bd004 	sub	sp, fp, #4
    2ea4:	e8bd8800 	pop	{fp, pc}
    2ea8:	00400184 	.word	0x00400184
    2eac:	00400a24 	.word	0x00400a24

00002eb0 <cra_state_read_memory_slot>:
    2eb0:	e92d4800 	push	{fp, lr}
    2eb4:	e28db004 	add	fp, sp, #4
    2eb8:	e24dd018 	sub	sp, sp, #24
    2ebc:	e50b0010 	str	r0, [fp, #-16]
    2ec0:	e50b1014 	str	r1, [fp, #-20]	@ 0xffffffec
    2ec4:	e50b2018 	str	r2, [fp, #-24]	@ 0xffffffe8
    2ec8:	e51b0010 	ldr	r0, [fp, #-16]
    2ecc:	ebfffd5a 	bl	243c <_find_memory_slot>
    2ed0:	e50b0008 	str	r0, [fp, #-8]
    2ed4:	e51b3008 	ldr	r3, [fp, #-8]
    2ed8:	e3530000 	cmp	r3, #0
    2edc:	aa000006 	bge	2efc <cra_state_read_memory_slot+0x4c>
    2ee0:	e59f30a8 	ldr	r3, [pc, #168]	@ 2f90 <cra_state_read_memory_slot+0xe0>
    2ee4:	e5933058 	ldr	r3, [r3, #88]	@ 0x58
    2ee8:	e2833001 	add	r3, r3, #1
    2eec:	e59f209c 	ldr	r2, [pc, #156]	@ 2f90 <cra_state_read_memory_slot+0xe0>
    2ef0:	e5823058 	str	r3, [r2, #88]	@ 0x58
    2ef4:	e3e03000 	mvn	r3, #0
    2ef8:	ea000021 	b	2f84 <cra_state_read_memory_slot+0xd4>
    2efc:	e51b3014 	ldr	r3, [fp, #-20]	@ 0xffffffec
    2f00:	e3530000 	cmp	r3, #0
    2f04:	0a00000a 	beq	2f34 <cra_state_read_memory_slot+0x84>
    2f08:	e59f1084 	ldr	r1, [pc, #132]	@ 2f94 <cra_state_read_memory_slot+0xe4>
    2f0c:	e51b2008 	ldr	r2, [fp, #-8]
    2f10:	e1a03002 	mov	r3, r2
    2f14:	e1a03103 	lsl	r3, r3, #2
    2f18:	e0833002 	add	r3, r3, r2
    2f1c:	e1a03103 	lsl	r3, r3, #2
    2f20:	e0813003 	add	r3, r1, r3
    2f24:	e2833004 	add	r3, r3, #4
    2f28:	e5932000 	ldr	r2, [r3]
    2f2c:	e51b3014 	ldr	r3, [fp, #-20]	@ 0xffffffec
    2f30:	e5832000 	str	r2, [r3]
    2f34:	e51b3018 	ldr	r3, [fp, #-24]	@ 0xffffffe8
    2f38:	e3530000 	cmp	r3, #0
    2f3c:	0a00000a 	beq	2f6c <cra_state_read_memory_slot+0xbc>
    2f40:	e59f104c 	ldr	r1, [pc, #76]	@ 2f94 <cra_state_read_memory_slot+0xe4>
    2f44:	e51b2008 	ldr	r2, [fp, #-8]
    2f48:	e1a03002 	mov	r3, r2
    2f4c:	e1a03103 	lsl	r3, r3, #2
    2f50:	e0833002 	add	r3, r3, r2
    2f54:	e1a03103 	lsl	r3, r3, #2
    2f58:	e0813003 	add	r3, r1, r3
    2f5c:	e2833008 	add	r3, r3, #8
    2f60:	e5932000 	ldr	r2, [r3]
    2f64:	e51b3018 	ldr	r3, [fp, #-24]	@ 0xffffffe8
    2f68:	e5832000 	str	r2, [r3]
    2f6c:	e59f301c 	ldr	r3, [pc, #28]	@ 2f90 <cra_state_read_memory_slot+0xe0>
    2f70:	e5933054 	ldr	r3, [r3, #84]	@ 0x54
    2f74:	e2833001 	add	r3, r3, #1
    2f78:	e59f2010 	ldr	r2, [pc, #16]	@ 2f90 <cra_state_read_memory_slot+0xe0>
    2f7c:	e5823054 	str	r3, [r2, #84]	@ 0x54
    2f80:	e3a03000 	mov	r3, #0
    2f84:	e1a00003 	mov	r0, r3
    2f88:	e24bd004 	sub	sp, fp, #4
    2f8c:	e8bd8800 	pop	{fp, pc}
    2f90:	00400a24 	.word	0x00400a24
    2f94:	00400184 	.word	0x00400184

00002f98 <cra_state_active_memory_slot_count>:
    2f98:	e52db004 	push	{fp}		@ (str fp, [sp, #-4]!)
    2f9c:	e28db000 	add	fp, sp, #0
    2fa0:	e59f3010 	ldr	r3, [pc, #16]	@ 2fb8 <cra_state_active_memory_slot_count+0x20>
    2fa4:	e593304c 	ldr	r3, [r3, #76]	@ 0x4c
    2fa8:	e1a00003 	mov	r0, r3
    2fac:	e28bd000 	add	sp, fp, #0
    2fb0:	e49db004 	pop	{fp}		@ (ldr fp, [sp], #4)
    2fb4:	e12fff1e 	bx	lr
    2fb8:	00400a24 	.word	0x00400a24

00002fbc <cra_state_set_readout>:
    2fbc:	e52db004 	push	{fp}		@ (str fp, [sp, #-4]!)
    2fc0:	e28db000 	add	fp, sp, #0
    2fc4:	e24dd00c 	sub	sp, sp, #12
    2fc8:	e50b0008 	str	r0, [fp, #-8]
    2fcc:	e50b100c 	str	r1, [fp, #-12]
    2fd0:	e59f2020 	ldr	r2, [pc, #32]	@ 2ff8 <cra_state_set_readout+0x3c>
    2fd4:	e51b3008 	ldr	r3, [fp, #-8]
    2fd8:	e5823060 	str	r3, [r2, #96]	@ 0x60
    2fdc:	e59f2014 	ldr	r2, [pc, #20]	@ 2ff8 <cra_state_set_readout+0x3c>
    2fe0:	e51b300c 	ldr	r3, [fp, #-12]
    2fe4:	e5823064 	str	r3, [r2, #100]	@ 0x64
    2fe8:	e1a00000 	nop			@ (mov r0, r0)
    2fec:	e28bd000 	add	sp, fp, #0
    2ff0:	e49db004 	pop	{fp}		@ (ldr fp, [sp], #4)
    2ff4:	e12fff1e 	bx	lr
    2ff8:	00400a24 	.word	0x00400a24

00002ffc <cra_state_predict_readout>:
    2ffc:	e92d08f0 	push	{r4, r5, r6, r7, fp}
    3000:	e28db010 	add	fp, sp, #16
    3004:	e24dd00c 	sub	sp, sp, #12
    3008:	e50b0018 	str	r0, [fp, #-24]	@ 0xffffffe8
    300c:	e59f106c 	ldr	r1, [pc, #108]	@ 3080 <cra_state_predict_readout+0x84>
    3010:	e5911060 	ldr	r1, [r1, #96]	@ 0x60
    3014:	e1a00fc1 	asr	r0, r1, #31
    3018:	e1a06001 	mov	r6, r1
    301c:	e1a07000 	mov	r7, r0
    3020:	e51b1018 	ldr	r1, [fp, #-24]	@ 0xffffffe8
    3024:	e1a00fc1 	asr	r0, r1, #31
    3028:	e1a04001 	mov	r4, r1
    302c:	e1a05000 	mov	r5, r0
    3030:	e0000794 	mul	r0, r4, r7
    3034:	e0010596 	mul	r1, r6, r5
    3038:	e0801001 	add	r1, r0, r1
    303c:	e0802496 	umull	r2, r0, r6, r4
    3040:	e1a03000 	mov	r3, r0
    3044:	e0811003 	add	r1, r1, r3
    3048:	e1a03001 	mov	r3, r1
    304c:	e3a00000 	mov	r0, #0
    3050:	e3a01000 	mov	r1, #0
    3054:	e1a007a2 	lsr	r0, r2, #15
    3058:	e1800883 	orr	r0, r0, r3, lsl #17
    305c:	e1a017c3 	asr	r1, r3, #15
    3060:	e1a02000 	mov	r2, r0
    3064:	e59f3014 	ldr	r3, [pc, #20]	@ 3080 <cra_state_predict_readout+0x84>
    3068:	e5933064 	ldr	r3, [r3, #100]	@ 0x64
    306c:	e0823003 	add	r3, r2, r3
    3070:	e1a00003 	mov	r0, r3
    3074:	e24bd010 	sub	sp, fp, #16
    3078:	e8bd08f0 	pop	{r4, r5, r6, r7, fp}
    307c:	e12fff1e 	bx	lr
    3080:	00400a24 	.word	0x00400a24

00003084 <cra_state_record_decision>:
    3084:	e52db004 	push	{fp}		@ (str fp, [sp, #-4]!)
    3088:	e28db000 	add	fp, sp, #0
    308c:	e24dd00c 	sub	sp, sp, #12
    3090:	e50b0008 	str	r0, [fp, #-8]
    3094:	e50b100c 	str	r1, [fp, #-12]
    3098:	e59f3034 	ldr	r3, [pc, #52]	@ 30d4 <cra_state_record_decision+0x50>
    309c:	e5933014 	ldr	r3, [r3, #20]
    30a0:	e2833001 	add	r3, r3, #1
    30a4:	e59f2028 	ldr	r2, [pc, #40]	@ 30d4 <cra_state_record_decision+0x50>
    30a8:	e5823014 	str	r3, [r2, #20]
    30ac:	e59f2020 	ldr	r2, [pc, #32]	@ 30d4 <cra_state_record_decision+0x50>
    30b0:	e51b3008 	ldr	r3, [fp, #-8]
    30b4:	e5823070 	str	r3, [r2, #112]	@ 0x70
    30b8:	e59f2014 	ldr	r2, [pc, #20]	@ 30d4 <cra_state_record_decision+0x50>
    30bc:	e51b300c 	ldr	r3, [fp, #-12]
    30c0:	e5823074 	str	r3, [r2, #116]	@ 0x74
    30c4:	e1a00000 	nop			@ (mov r0, r0)
    30c8:	e28bd000 	add	sp, fp, #0
    30cc:	e49db004 	pop	{fp}		@ (ldr fp, [sp], #4)
    30d0:	e12fff1e 	bx	lr
    30d4:	00400a24 	.word	0x00400a24

000030d8 <cra_state_record_reward>:
    30d8:	e52db004 	push	{fp}		@ (str fp, [sp, #-4]!)
    30dc:	e28db000 	add	fp, sp, #0
    30e0:	e24dd00c 	sub	sp, sp, #12
    30e4:	e50b0008 	str	r0, [fp, #-8]
    30e8:	e59f3028 	ldr	r3, [pc, #40]	@ 3118 <cra_state_record_reward+0x40>
    30ec:	e5933018 	ldr	r3, [r3, #24]
    30f0:	e2833001 	add	r3, r3, #1
    30f4:	e59f201c 	ldr	r2, [pc, #28]	@ 3118 <cra_state_record_reward+0x40>
    30f8:	e5823018 	str	r3, [r2, #24]
    30fc:	e59f2014 	ldr	r2, [pc, #20]	@ 3118 <cra_state_record_reward+0x40>
    3100:	e51b3008 	ldr	r3, [fp, #-8]
    3104:	e5823078 	str	r3, [r2, #120]	@ 0x78
    3108:	e1a00000 	nop			@ (mov r0, r0)
    310c:	e28bd000 	add	sp, fp, #0
    3110:	e49db004 	pop	{fp}		@ (ldr fp, [sp], #4)
    3114:	e12fff1e 	bx	lr
    3118:	00400a24 	.word	0x00400a24

0000311c <cra_state_apply_reward_to_readout>:
    311c:	e92d4bf0 	push	{r4, r5, r6, r7, r8, r9, fp, lr}
    3120:	e28db01c 	add	fp, sp, #28
    3124:	e24dd048 	sub	sp, sp, #72	@ 0x48
    3128:	e50b0030 	str	r0, [fp, #-48]	@ 0xffffffd0
    312c:	e50b1034 	str	r1, [fp, #-52]	@ 0xffffffcc
    3130:	e59f31b4 	ldr	r3, [pc, #436]	@ 32ec <cra_state_apply_reward_to_readout+0x1d0>
    3134:	e5932074 	ldr	r2, [r3, #116]	@ 0x74
    3138:	e51b3030 	ldr	r3, [fp, #-48]	@ 0xffffffd0
    313c:	e0433002 	sub	r3, r3, r2
    3140:	e50b3020 	str	r3, [fp, #-32]	@ 0xffffffe0
    3144:	e51b3034 	ldr	r3, [fp, #-52]	@ 0xffffffcc
    3148:	e1a02fc3 	asr	r2, r3, #31
    314c:	e50b3044 	str	r3, [fp, #-68]	@ 0xffffffbc
    3150:	e50b2040 	str	r2, [fp, #-64]	@ 0xffffffc0
    3154:	e51b3020 	ldr	r3, [fp, #-32]	@ 0xffffffe0
    3158:	e1a02fc3 	asr	r2, r3, #31
    315c:	e50b304c 	str	r3, [fp, #-76]	@ 0xffffffb4
    3160:	e50b2048 	str	r2, [fp, #-72]	@ 0xffffffb8
    3164:	e59f3180 	ldr	r3, [pc, #384]	@ 32ec <cra_state_apply_reward_to_readout+0x1d0>
    3168:	e5933070 	ldr	r3, [r3, #112]	@ 0x70
    316c:	e1a02fc3 	asr	r2, r3, #31
    3170:	e50b303c 	str	r3, [fp, #-60]	@ 0xffffffc4
    3174:	e50b2038 	str	r2, [fp, #-56]	@ 0xffffffc8
    3178:	e14b04dc 	ldrd	r0, [fp, #-76]	@ 0xffffffb4
    317c:	e1a02001 	mov	r2, r1
    3180:	e51b303c 	ldr	r3, [fp, #-60]	@ 0xffffffc4
    3184:	e0020293 	mul	r2, r3, r2
    3188:	e51b3038 	ldr	r3, [fp, #-56]	@ 0xffffffc8
    318c:	e1a0c000 	mov	ip, r0
    3190:	e003039c 	mul	r3, ip, r3
    3194:	e0823003 	add	r3, r2, r3
    3198:	e1a01000 	mov	r1, r0
    319c:	e51b003c 	ldr	r0, [fp, #-60]	@ 0xffffffc4
    31a0:	e0824091 	umull	r4, r2, r1, r0
    31a4:	e1a05002 	mov	r5, r2
    31a8:	e0833005 	add	r3, r3, r5
    31ac:	e1a05003 	mov	r5, r3
    31b0:	e3a02000 	mov	r2, #0
    31b4:	e3a03000 	mov	r3, #0
    31b8:	e1a027a4 	lsr	r2, r4, #15
    31bc:	e1822885 	orr	r2, r2, r5, lsl #17
    31c0:	e1a037c5 	asr	r3, r5, #15
    31c4:	e1a03002 	mov	r3, r2
    31c8:	e1a02fc3 	asr	r2, r3, #31
    31cc:	e50b3054 	str	r3, [fp, #-84]	@ 0xffffffac
    31d0:	e50b2050 	str	r2, [fp, #-80]	@ 0xffffffb0
    31d4:	e14b04d4 	ldrd	r0, [fp, #-68]	@ 0xffffffbc
    31d8:	e1a02001 	mov	r2, r1
    31dc:	e14b45d4 	ldrd	r4, [fp, #-84]	@ 0xffffffac
    31e0:	e1a03004 	mov	r3, r4
    31e4:	e0020293 	mul	r2, r3, r2
    31e8:	e1a03005 	mov	r3, r5
    31ec:	e1a0c000 	mov	ip, r0
    31f0:	e003039c 	mul	r3, ip, r3
    31f4:	e0823003 	add	r3, r2, r3
    31f8:	e1a01000 	mov	r1, r0
    31fc:	e1a00004 	mov	r0, r4
    3200:	e0828091 	umull	r8, r2, r1, r0
    3204:	e1a09002 	mov	r9, r2
    3208:	e0833009 	add	r3, r3, r9
    320c:	e1a09003 	mov	r9, r3
    3210:	e3a02000 	mov	r2, #0
    3214:	e3a03000 	mov	r3, #0
    3218:	e1a027a8 	lsr	r2, r8, #15
    321c:	e1822889 	orr	r2, r2, r9, lsl #17
    3220:	e1a037c9 	asr	r3, r9, #15
    3224:	e1a03002 	mov	r3, r2
    3228:	e50b3024 	str	r3, [fp, #-36]	@ 0xffffffdc
    322c:	e51b3034 	ldr	r3, [fp, #-52]	@ 0xffffffcc
    3230:	e1a02fc3 	asr	r2, r3, #31
    3234:	e50b305c 	str	r3, [fp, #-92]	@ 0xffffffa4
    3238:	e50b2058 	str	r2, [fp, #-88]	@ 0xffffffa8
    323c:	e51b3020 	ldr	r3, [fp, #-32]	@ 0xffffffe0
    3240:	e1a02fc3 	asr	r2, r3, #31
    3244:	e50b3064 	str	r3, [fp, #-100]	@ 0xffffff9c
    3248:	e50b2060 	str	r2, [fp, #-96]	@ 0xffffffa0
    324c:	e14b05dc 	ldrd	r0, [fp, #-92]	@ 0xffffffa4
    3250:	e1a02001 	mov	r2, r1
    3254:	e14b46d4 	ldrd	r4, [fp, #-100]	@ 0xffffff9c
    3258:	e1a03004 	mov	r3, r4
    325c:	e0020293 	mul	r2, r3, r2
    3260:	e1a03005 	mov	r3, r5
    3264:	e1a0c000 	mov	ip, r0
    3268:	e003039c 	mul	r3, ip, r3
    326c:	e0823003 	add	r3, r2, r3
    3270:	e1a01000 	mov	r1, r0
    3274:	e1a00004 	mov	r0, r4
    3278:	e0826091 	umull	r6, r2, r1, r0
    327c:	e1a07002 	mov	r7, r2
    3280:	e0833007 	add	r3, r3, r7
    3284:	e1a07003 	mov	r7, r3
    3288:	e3a02000 	mov	r2, #0
    328c:	e3a03000 	mov	r3, #0
    3290:	e1a027a6 	lsr	r2, r6, #15
    3294:	e1822887 	orr	r2, r2, r7, lsl #17
    3298:	e1a037c7 	asr	r3, r7, #15
    329c:	e1a03002 	mov	r3, r2
    32a0:	e50b3028 	str	r3, [fp, #-40]	@ 0xffffffd8
    32a4:	e59f3040 	ldr	r3, [pc, #64]	@ 32ec <cra_state_apply_reward_to_readout+0x1d0>
    32a8:	e5932060 	ldr	r2, [r3, #96]	@ 0x60
    32ac:	e51b3024 	ldr	r3, [fp, #-36]	@ 0xffffffdc
    32b0:	e0823003 	add	r3, r2, r3
    32b4:	e59f2030 	ldr	r2, [pc, #48]	@ 32ec <cra_state_apply_reward_to_readout+0x1d0>
    32b8:	e5823060 	str	r3, [r2, #96]	@ 0x60
    32bc:	e59f3028 	ldr	r3, [pc, #40]	@ 32ec <cra_state_apply_reward_to_readout+0x1d0>
    32c0:	e5932064 	ldr	r2, [r3, #100]	@ 0x64
    32c4:	e51b3028 	ldr	r3, [fp, #-40]	@ 0xffffffd8
    32c8:	e0823003 	add	r3, r2, r3
    32cc:	e59f2018 	ldr	r2, [pc, #24]	@ 32ec <cra_state_apply_reward_to_readout+0x1d0>
    32d0:	e5823064 	str	r3, [r2, #100]	@ 0x64
    32d4:	e51b0030 	ldr	r0, [fp, #-48]	@ 0xffffffd0
    32d8:	ebffff7e 	bl	30d8 <cra_state_record_reward>
    32dc:	e51b3024 	ldr	r3, [fp, #-36]	@ 0xffffffdc
    32e0:	e1a00003 	mov	r0, r3
    32e4:	e24bd01c 	sub	sp, fp, #28
    32e8:	e8bd8bf0 	pop	{r4, r5, r6, r7, r8, r9, fp, pc}
    32ec:	00400a24 	.word	0x00400a24

000032f0 <_apply_reward_to_feature_prediction>:
    32f0:	e92d0bf0 	push	{r4, r5, r6, r7, r8, r9, fp}
    32f4:	e28db018 	add	fp, sp, #24
    32f8:	e24dd054 	sub	sp, sp, #84	@ 0x54
    32fc:	e50b0030 	str	r0, [fp, #-48]	@ 0xffffffd0
    3300:	e50b1034 	str	r1, [fp, #-52]	@ 0xffffffcc
    3304:	e50b2038 	str	r2, [fp, #-56]	@ 0xffffffc8
    3308:	e50b303c 	str	r3, [fp, #-60]	@ 0xffffffc4
    330c:	e51b2038 	ldr	r2, [fp, #-56]	@ 0xffffffc8
    3310:	e51b3034 	ldr	r3, [fp, #-52]	@ 0xffffffcc
    3314:	e0423003 	sub	r3, r2, r3
    3318:	e50b3020 	str	r3, [fp, #-32]	@ 0xffffffe0
    331c:	e51b303c 	ldr	r3, [fp, #-60]	@ 0xffffffc4
    3320:	e1a02fc3 	asr	r2, r3, #31
    3324:	e50b304c 	str	r3, [fp, #-76]	@ 0xffffffb4
    3328:	e50b2048 	str	r2, [fp, #-72]	@ 0xffffffb8
    332c:	e51b3020 	ldr	r3, [fp, #-32]	@ 0xffffffe0
    3330:	e1a02fc3 	asr	r2, r3, #31
    3334:	e50b3054 	str	r3, [fp, #-84]	@ 0xffffffac
    3338:	e50b2050 	str	r2, [fp, #-80]	@ 0xffffffb0
    333c:	e51b3030 	ldr	r3, [fp, #-48]	@ 0xffffffd0
    3340:	e1a02fc3 	asr	r2, r3, #31
    3344:	e50b3044 	str	r3, [fp, #-68]	@ 0xffffffbc
    3348:	e50b2040 	str	r2, [fp, #-64]	@ 0xffffffc0
    334c:	e14b05d4 	ldrd	r0, [fp, #-84]	@ 0xffffffac
    3350:	e1a02001 	mov	r2, r1
    3354:	e51b3044 	ldr	r3, [fp, #-68]	@ 0xffffffbc
    3358:	e0020293 	mul	r2, r3, r2
    335c:	e51b3040 	ldr	r3, [fp, #-64]	@ 0xffffffc0
    3360:	e1a0c000 	mov	ip, r0
    3364:	e003039c 	mul	r3, ip, r3
    3368:	e0823003 	add	r3, r2, r3
    336c:	e1a01000 	mov	r1, r0
    3370:	e51b0044 	ldr	r0, [fp, #-68]	@ 0xffffffbc
    3374:	e0824091 	umull	r4, r2, r1, r0
    3378:	e1a05002 	mov	r5, r2
    337c:	e0833005 	add	r3, r3, r5
    3380:	e1a05003 	mov	r5, r3
    3384:	e3a02000 	mov	r2, #0
    3388:	e3a03000 	mov	r3, #0
    338c:	e1a027a4 	lsr	r2, r4, #15
    3390:	e1822885 	orr	r2, r2, r5, lsl #17
    3394:	e1a037c5 	asr	r3, r5, #15
    3398:	e1a03002 	mov	r3, r2
    339c:	e1a02fc3 	asr	r2, r3, #31
    33a0:	e50b305c 	str	r3, [fp, #-92]	@ 0xffffffa4
    33a4:	e50b2058 	str	r2, [fp, #-88]	@ 0xffffffa8
    33a8:	e14b04dc 	ldrd	r0, [fp, #-76]	@ 0xffffffb4
    33ac:	e1a02001 	mov	r2, r1
    33b0:	e14b45dc 	ldrd	r4, [fp, #-92]	@ 0xffffffa4
    33b4:	e1a03004 	mov	r3, r4
    33b8:	e0020293 	mul	r2, r3, r2
    33bc:	e1a03005 	mov	r3, r5
    33c0:	e1a0c000 	mov	ip, r0
    33c4:	e003039c 	mul	r3, ip, r3
    33c8:	e0823003 	add	r3, r2, r3
    33cc:	e1a01000 	mov	r1, r0
    33d0:	e1a00004 	mov	r0, r4
    33d4:	e0828091 	umull	r8, r2, r1, r0
    33d8:	e1a09002 	mov	r9, r2
    33dc:	e0833009 	add	r3, r3, r9
    33e0:	e1a09003 	mov	r9, r3
    33e4:	e3a02000 	mov	r2, #0
    33e8:	e3a03000 	mov	r3, #0
    33ec:	e1a027a8 	lsr	r2, r8, #15
    33f0:	e1822889 	orr	r2, r2, r9, lsl #17
    33f4:	e1a037c9 	asr	r3, r9, #15
    33f8:	e1a03002 	mov	r3, r2
    33fc:	e50b3024 	str	r3, [fp, #-36]	@ 0xffffffdc
    3400:	e51b303c 	ldr	r3, [fp, #-60]	@ 0xffffffc4
    3404:	e1a02fc3 	asr	r2, r3, #31
    3408:	e50b3064 	str	r3, [fp, #-100]	@ 0xffffff9c
    340c:	e50b2060 	str	r2, [fp, #-96]	@ 0xffffffa0
    3410:	e51b3020 	ldr	r3, [fp, #-32]	@ 0xffffffe0
    3414:	e1a02fc3 	asr	r2, r3, #31
    3418:	e50b306c 	str	r3, [fp, #-108]	@ 0xffffff94
    341c:	e50b2068 	str	r2, [fp, #-104]	@ 0xffffff98
    3420:	e14b06d4 	ldrd	r0, [fp, #-100]	@ 0xffffff9c
    3424:	e1a02001 	mov	r2, r1
    3428:	e14b46dc 	ldrd	r4, [fp, #-108]	@ 0xffffff94
    342c:	e1a03004 	mov	r3, r4
    3430:	e0020293 	mul	r2, r3, r2
    3434:	e1a03005 	mov	r3, r5
    3438:	e1a0c000 	mov	ip, r0
    343c:	e003039c 	mul	r3, ip, r3
    3440:	e0823003 	add	r3, r2, r3
    3444:	e1a01000 	mov	r1, r0
    3448:	e1a00004 	mov	r0, r4
    344c:	e0826091 	umull	r6, r2, r1, r0
    3450:	e1a07002 	mov	r7, r2
    3454:	e0833007 	add	r3, r3, r7
    3458:	e1a07003 	mov	r7, r3
    345c:	e3a02000 	mov	r2, #0
    3460:	e3a03000 	mov	r3, #0
    3464:	e1a027a6 	lsr	r2, r6, #15
    3468:	e1822887 	orr	r2, r2, r7, lsl #17
    346c:	e1a037c7 	asr	r3, r7, #15
    3470:	e1a03002 	mov	r3, r2
    3474:	e50b3028 	str	r3, [fp, #-40]	@ 0xffffffd8
    3478:	e59f3074 	ldr	r3, [pc, #116]	@ 34f4 <_apply_reward_to_feature_prediction+0x204>
    347c:	e5932060 	ldr	r2, [r3, #96]	@ 0x60
    3480:	e51b3024 	ldr	r3, [fp, #-36]	@ 0xffffffdc
    3484:	e0823003 	add	r3, r2, r3
    3488:	e59f2064 	ldr	r2, [pc, #100]	@ 34f4 <_apply_reward_to_feature_prediction+0x204>
    348c:	e5823060 	str	r3, [r2, #96]	@ 0x60
    3490:	e59f305c 	ldr	r3, [pc, #92]	@ 34f4 <_apply_reward_to_feature_prediction+0x204>
    3494:	e5932064 	ldr	r2, [r3, #100]	@ 0x64
    3498:	e51b3028 	ldr	r3, [fp, #-40]	@ 0xffffffd8
    349c:	e0823003 	add	r3, r2, r3
    34a0:	e59f204c 	ldr	r2, [pc, #76]	@ 34f4 <_apply_reward_to_feature_prediction+0x204>
    34a4:	e5823064 	str	r3, [r2, #100]	@ 0x64
    34a8:	e59f3044 	ldr	r3, [pc, #68]	@ 34f4 <_apply_reward_to_feature_prediction+0x204>
    34ac:	e5933018 	ldr	r3, [r3, #24]
    34b0:	e2833001 	add	r3, r3, #1
    34b4:	e59f2038 	ldr	r2, [pc, #56]	@ 34f4 <_apply_reward_to_feature_prediction+0x204>
    34b8:	e5823018 	str	r3, [r2, #24]
    34bc:	e59f2030 	ldr	r2, [pc, #48]	@ 34f4 <_apply_reward_to_feature_prediction+0x204>
    34c0:	e51b3030 	ldr	r3, [fp, #-48]	@ 0xffffffd0
    34c4:	e5823070 	str	r3, [r2, #112]	@ 0x70
    34c8:	e59f2024 	ldr	r2, [pc, #36]	@ 34f4 <_apply_reward_to_feature_prediction+0x204>
    34cc:	e51b3034 	ldr	r3, [fp, #-52]	@ 0xffffffcc
    34d0:	e5823074 	str	r3, [r2, #116]	@ 0x74
    34d4:	e59f2018 	ldr	r2, [pc, #24]	@ 34f4 <_apply_reward_to_feature_prediction+0x204>
    34d8:	e51b3038 	ldr	r3, [fp, #-56]	@ 0xffffffc8
    34dc:	e5823078 	str	r3, [r2, #120]	@ 0x78
    34e0:	e51b3024 	ldr	r3, [fp, #-36]	@ 0xffffffdc
    34e4:	e1a00003 	mov	r0, r3
    34e8:	e24bd018 	sub	sp, fp, #24
    34ec:	e8bd0bf0 	pop	{r4, r5, r6, r7, r8, r9, fp}
    34f0:	e12fff1e 	bx	lr
    34f4:	00400a24 	.word	0x00400a24

000034f8 <cra_state_schedule_pending_horizon>:
    34f8:	e52db004 	push	{fp}		@ (str fp, [sp, #-4]!)
    34fc:	e28db000 	add	fp, sp, #0
    3500:	e24dd01c 	sub	sp, sp, #28
    3504:	e50b0010 	str	r0, [fp, #-16]
    3508:	e50b1014 	str	r1, [fp, #-20]	@ 0xffffffec
    350c:	e50b2018 	str	r2, [fp, #-24]	@ 0xffffffe8
    3510:	e3a03000 	mov	r3, #0
    3514:	e50b3008 	str	r3, [fp, #-8]
    3518:	ea00002b 	b	35cc <cra_state_schedule_pending_horizon+0xd4>
    351c:	e59f20dc 	ldr	r2, [pc, #220]	@ 3600 <cra_state_schedule_pending_horizon+0x108>
    3520:	e51b3008 	ldr	r3, [fp, #-8]
    3524:	e1a03203 	lsl	r3, r3, #4
    3528:	e0823003 	add	r3, r2, r3
    352c:	e5d3300c 	ldrb	r3, [r3, #12]
    3530:	e3530000 	cmp	r3, #0
    3534:	1a000021 	bne	35c0 <cra_state_schedule_pending_horizon+0xc8>
    3538:	e59f10c0 	ldr	r1, [pc, #192]	@ 3600 <cra_state_schedule_pending_horizon+0x108>
    353c:	e51b3008 	ldr	r3, [fp, #-8]
    3540:	e51b2018 	ldr	r2, [fp, #-24]	@ 0xffffffe8
    3544:	e7812203 	str	r2, [r1, r3, lsl #4]
    3548:	e59f20b0 	ldr	r2, [pc, #176]	@ 3600 <cra_state_schedule_pending_horizon+0x108>
    354c:	e51b3008 	ldr	r3, [fp, #-8]
    3550:	e1a03203 	lsl	r3, r3, #4
    3554:	e0823003 	add	r3, r2, r3
    3558:	e51b2010 	ldr	r2, [fp, #-16]
    355c:	e5832004 	str	r2, [r3, #4]
    3560:	e59f2098 	ldr	r2, [pc, #152]	@ 3600 <cra_state_schedule_pending_horizon+0x108>
    3564:	e51b3008 	ldr	r3, [fp, #-8]
    3568:	e1a03203 	lsl	r3, r3, #4
    356c:	e0823003 	add	r3, r2, r3
    3570:	e51b2014 	ldr	r2, [fp, #-20]	@ 0xffffffec
    3574:	e5832008 	str	r2, [r3, #8]
    3578:	e59f2080 	ldr	r2, [pc, #128]	@ 3600 <cra_state_schedule_pending_horizon+0x108>
    357c:	e51b3008 	ldr	r3, [fp, #-8]
    3580:	e1a03203 	lsl	r3, r3, #4
    3584:	e0823003 	add	r3, r2, r3
    3588:	e3a02001 	mov	r2, #1
    358c:	e5c3200c 	strb	r2, [r3, #12]
    3590:	e59f306c 	ldr	r3, [pc, #108]	@ 3604 <cra_state_schedule_pending_horizon+0x10c>
    3594:	e593301c 	ldr	r3, [r3, #28]
    3598:	e2833001 	add	r3, r3, #1
    359c:	e59f2060 	ldr	r2, [pc, #96]	@ 3604 <cra_state_schedule_pending_horizon+0x10c>
    35a0:	e582301c 	str	r3, [r2, #28]
    35a4:	e59f3058 	ldr	r3, [pc, #88]	@ 3604 <cra_state_schedule_pending_horizon+0x10c>
    35a8:	e5933028 	ldr	r3, [r3, #40]	@ 0x28
    35ac:	e2833001 	add	r3, r3, #1
    35b0:	e59f204c 	ldr	r2, [pc, #76]	@ 3604 <cra_state_schedule_pending_horizon+0x10c>
    35b4:	e5823028 	str	r3, [r2, #40]	@ 0x28
    35b8:	e3a03000 	mov	r3, #0
    35bc:	ea00000b 	b	35f0 <cra_state_schedule_pending_horizon+0xf8>
    35c0:	e51b3008 	ldr	r3, [fp, #-8]
    35c4:	e2833001 	add	r3, r3, #1
    35c8:	e50b3008 	str	r3, [fp, #-8]
    35cc:	e51b3008 	ldr	r3, [fp, #-8]
    35d0:	e353007f 	cmp	r3, #127	@ 0x7f
    35d4:	9affffd0 	bls	351c <cra_state_schedule_pending_horizon+0x24>
    35d8:	e59f3024 	ldr	r3, [pc, #36]	@ 3604 <cra_state_schedule_pending_horizon+0x10c>
    35dc:	e5933024 	ldr	r3, [r3, #36]	@ 0x24
    35e0:	e2833001 	add	r3, r3, #1
    35e4:	e59f2018 	ldr	r2, [pc, #24]	@ 3604 <cra_state_schedule_pending_horizon+0x10c>
    35e8:	e5823024 	str	r3, [r2, #36]	@ 0x24
    35ec:	e3e03000 	mvn	r3, #0
    35f0:	e1a00003 	mov	r0, r3
    35f4:	e28bd000 	add	sp, fp, #0
    35f8:	e49db004 	pop	{fp}		@ (ldr fp, [sp], #4)
    35fc:	e12fff1e 	bx	lr
    3600:	00400224 	.word	0x00400224
    3604:	00400a24 	.word	0x00400a24

00003608 <cra_state_mature_pending_horizons>:
    3608:	e92d4800 	push	{fp, lr}
    360c:	e28db004 	add	fp, sp, #4
    3610:	e24dd018 	sub	sp, sp, #24
    3614:	e50b0010 	str	r0, [fp, #-16]
    3618:	e50b1014 	str	r1, [fp, #-20]	@ 0xffffffec
    361c:	e50b2018 	str	r2, [fp, #-24]	@ 0xffffffe8
    3620:	e3a03000 	mov	r3, #0
    3624:	e50b3008 	str	r3, [fp, #-8]
    3628:	e3a03000 	mov	r3, #0
    362c:	e50b300c 	str	r3, [fp, #-12]
    3630:	ea000033 	b	3704 <cra_state_mature_pending_horizons+0xfc>
    3634:	e59f20e4 	ldr	r2, [pc, #228]	@ 3720 <cra_state_mature_pending_horizons+0x118>
    3638:	e51b300c 	ldr	r3, [fp, #-12]
    363c:	e1a03203 	lsl	r3, r3, #4
    3640:	e0823003 	add	r3, r2, r3
    3644:	e5d3300c 	ldrb	r3, [r3, #12]
    3648:	e3530000 	cmp	r3, #0
    364c:	0a000029 	beq	36f8 <cra_state_mature_pending_horizons+0xf0>
    3650:	e59f20c8 	ldr	r2, [pc, #200]	@ 3720 <cra_state_mature_pending_horizons+0x118>
    3654:	e51b300c 	ldr	r3, [fp, #-12]
    3658:	e7923203 	ldr	r3, [r2, r3, lsl #4]
    365c:	e51b2010 	ldr	r2, [fp, #-16]
    3660:	e1520003 	cmp	r2, r3
    3664:	3a000023 	bcc	36f8 <cra_state_mature_pending_horizons+0xf0>
    3668:	e59f20b0 	ldr	r2, [pc, #176]	@ 3720 <cra_state_mature_pending_horizons+0x118>
    366c:	e51b300c 	ldr	r3, [fp, #-12]
    3670:	e1a03203 	lsl	r3, r3, #4
    3674:	e0823003 	add	r3, r2, r3
    3678:	e5930004 	ldr	r0, [r3, #4]
    367c:	e59f209c 	ldr	r2, [pc, #156]	@ 3720 <cra_state_mature_pending_horizons+0x118>
    3680:	e51b300c 	ldr	r3, [fp, #-12]
    3684:	e1a03203 	lsl	r3, r3, #4
    3688:	e0823003 	add	r3, r2, r3
    368c:	e5931008 	ldr	r1, [r3, #8]
    3690:	e51b3018 	ldr	r3, [fp, #-24]	@ 0xffffffe8
    3694:	e51b2014 	ldr	r2, [fp, #-20]	@ 0xffffffec
    3698:	ebffff14 	bl	32f0 <_apply_reward_to_feature_prediction>
    369c:	e59f207c 	ldr	r2, [pc, #124]	@ 3720 <cra_state_mature_pending_horizons+0x118>
    36a0:	e51b300c 	ldr	r3, [fp, #-12]
    36a4:	e1a03203 	lsl	r3, r3, #4
    36a8:	e0823003 	add	r3, r2, r3
    36ac:	e3a02000 	mov	r2, #0
    36b0:	e5c3200c 	strb	r2, [r3, #12]
    36b4:	e59f3068 	ldr	r3, [pc, #104]	@ 3724 <cra_state_mature_pending_horizons+0x11c>
    36b8:	e5933028 	ldr	r3, [r3, #40]	@ 0x28
    36bc:	e3530000 	cmp	r3, #0
    36c0:	0a000004 	beq	36d8 <cra_state_mature_pending_horizons+0xd0>
    36c4:	e59f3058 	ldr	r3, [pc, #88]	@ 3724 <cra_state_mature_pending_horizons+0x11c>
    36c8:	e5933028 	ldr	r3, [r3, #40]	@ 0x28
    36cc:	e2433001 	sub	r3, r3, #1
    36d0:	e59f204c 	ldr	r2, [pc, #76]	@ 3724 <cra_state_mature_pending_horizons+0x11c>
    36d4:	e5823028 	str	r3, [r2, #40]	@ 0x28
    36d8:	e59f3044 	ldr	r3, [pc, #68]	@ 3724 <cra_state_mature_pending_horizons+0x11c>
    36dc:	e5933020 	ldr	r3, [r3, #32]
    36e0:	e2833001 	add	r3, r3, #1
    36e4:	e59f2038 	ldr	r2, [pc, #56]	@ 3724 <cra_state_mature_pending_horizons+0x11c>
    36e8:	e5823020 	str	r3, [r2, #32]
    36ec:	e51b3008 	ldr	r3, [fp, #-8]
    36f0:	e2833001 	add	r3, r3, #1
    36f4:	e50b3008 	str	r3, [fp, #-8]
    36f8:	e51b300c 	ldr	r3, [fp, #-12]
    36fc:	e2833001 	add	r3, r3, #1
    3700:	e50b300c 	str	r3, [fp, #-12]
    3704:	e51b300c 	ldr	r3, [fp, #-12]
    3708:	e353007f 	cmp	r3, #127	@ 0x7f
    370c:	9affffc8 	bls	3634 <cra_state_mature_pending_horizons+0x2c>
    3710:	e51b3008 	ldr	r3, [fp, #-8]
    3714:	e1a00003 	mov	r0, r3
    3718:	e24bd004 	sub	sp, fp, #4
    371c:	e8bd8800 	pop	{fp, pc}
    3720:	00400224 	.word	0x00400224
    3724:	00400a24 	.word	0x00400a24

00003728 <cra_state_active_pending_count>:
    3728:	e52db004 	push	{fp}		@ (str fp, [sp, #-4]!)
    372c:	e28db000 	add	fp, sp, #0
    3730:	e59f3010 	ldr	r3, [pc, #16]	@ 3748 <cra_state_active_pending_count+0x20>
    3734:	e5933028 	ldr	r3, [r3, #40]	@ 0x28
    3738:	e1a00003 	mov	r0, r3
    373c:	e28bd000 	add	sp, fp, #0
    3740:	e49db004 	pop	{fp}		@ (ldr fp, [sp], #4)
    3744:	e12fff1e 	bx	lr
    3748:	00400a24 	.word	0x00400a24

0000374c <cra_state_get_summary>:
    374c:	e92d4800 	push	{fp, lr}
    3750:	e28db004 	add	fp, sp, #4
    3754:	e24dd008 	sub	sp, sp, #8
    3758:	e50b0008 	str	r0, [fp, #-8]
    375c:	e51b3008 	ldr	r3, [fp, #-8]
    3760:	e3530000 	cmp	r3, #0
    3764:	0a000007 	beq	3788 <cra_state_get_summary+0x3c>
    3768:	e51b3008 	ldr	r3, [fp, #-8]
    376c:	e59f2020 	ldr	r2, [pc, #32]	@ 3794 <cra_state_get_summary+0x48>
    3770:	e1a00003 	mov	r0, r3
    3774:	e1a01002 	mov	r1, r2
    3778:	e3a0307c 	mov	r3, #124	@ 0x7c
    377c:	e1a02003 	mov	r2, r3
    3780:	eb001014 	bl	77d8 <memcpy>
    3784:	ea000000 	b	378c <cra_state_get_summary+0x40>
    3788:	e1a00000 	nop			@ (mov r0, r0)
    378c:	e24bd004 	sub	sp, fp, #4
    3790:	e8bd8800 	pop	{fp, pc}
    3794:	00400a24 	.word	0x00400a24

00003798 <spin1_msg_free>:
    3798:	e92d4800 	push	{fp, lr}
    379c:	e28db004 	add	fp, sp, #4
    37a0:	e24dd008 	sub	sp, sp, #8
    37a4:	e50b0008 	str	r0, [fp, #-8]
    37a8:	e51b0008 	ldr	r0, [fp, #-8]
    37ac:	fa00089c 	blx	5a24 <sark_msg_free>
    37b0:	e1a00000 	nop			@ (mov r0, r0)
    37b4:	e24bd004 	sub	sp, fp, #4
    37b8:	e8bd8800 	pop	{fp, pc}

000037bc <spin1_msg_get>:
    37bc:	e92d4800 	push	{fp, lr}
    37c0:	e28db004 	add	fp, sp, #4
    37c4:	fa00088a 	blx	59f4 <sark_msg_get>
    37c8:	e1a03000 	mov	r3, r0
    37cc:	e1a00003 	mov	r0, r3
    37d0:	e8bd8800 	pop	{fp, pc}

000037d4 <spin1_send_sdp_msg>:
    37d4:	e92d4800 	push	{fp, lr}
    37d8:	e28db004 	add	fp, sp, #4
    37dc:	e24dd008 	sub	sp, sp, #8
    37e0:	e50b0008 	str	r0, [fp, #-8]
    37e4:	e50b100c 	str	r1, [fp, #-12]
    37e8:	e51b100c 	ldr	r1, [fp, #-12]
    37ec:	e51b0008 	ldr	r0, [fp, #-8]
    37f0:	fa0008fc 	blx	5be8 <sark_msg_send>
    37f4:	e1a03000 	mov	r3, r0
    37f8:	e1a00003 	mov	r0, r3
    37fc:	e24bd004 	sub	sp, fp, #4
    3800:	e8bd8800 	pop	{fp, pc}

00003804 <_write_u32>:
    3804:	e52db004 	push	{fp}		@ (str fp, [sp, #-4]!)
    3808:	e28db000 	add	fp, sp, #0
    380c:	e24dd00c 	sub	sp, sp, #12
    3810:	e50b0008 	str	r0, [fp, #-8]
    3814:	e50b100c 	str	r1, [fp, #-12]
    3818:	e51b300c 	ldr	r3, [fp, #-12]
    381c:	e20320ff 	and	r2, r3, #255	@ 0xff
    3820:	e51b3008 	ldr	r3, [fp, #-8]
    3824:	e5c32000 	strb	r2, [r3]
    3828:	e51b300c 	ldr	r3, [fp, #-12]
    382c:	e1a02423 	lsr	r2, r3, #8
    3830:	e51b3008 	ldr	r3, [fp, #-8]
    3834:	e2833001 	add	r3, r3, #1
    3838:	e20220ff 	and	r2, r2, #255	@ 0xff
    383c:	e5c32000 	strb	r2, [r3]
    3840:	e51b300c 	ldr	r3, [fp, #-12]
    3844:	e1a02823 	lsr	r2, r3, #16
    3848:	e51b3008 	ldr	r3, [fp, #-8]
    384c:	e2833002 	add	r3, r3, #2
    3850:	e20220ff 	and	r2, r2, #255	@ 0xff
    3854:	e5c32000 	strb	r2, [r3]
    3858:	e51b300c 	ldr	r3, [fp, #-12]
    385c:	e1a02c23 	lsr	r2, r3, #24
    3860:	e51b3008 	ldr	r3, [fp, #-8]
    3864:	e2833003 	add	r3, r3, #3
    3868:	e20220ff 	and	r2, r2, #255	@ 0xff
    386c:	e5c32000 	strb	r2, [r3]
    3870:	e1a00000 	nop			@ (mov r0, r0)
    3874:	e28bd000 	add	sp, fp, #0
    3878:	e49db004 	pop	{fp}		@ (ldr fp, [sp], #4)
    387c:	e12fff1e 	bx	lr

00003880 <_write_s32>:
    3880:	e92d4800 	push	{fp, lr}
    3884:	e28db004 	add	fp, sp, #4
    3888:	e24dd008 	sub	sp, sp, #8
    388c:	e50b0008 	str	r0, [fp, #-8]
    3890:	e50b100c 	str	r1, [fp, #-12]
    3894:	e51b300c 	ldr	r3, [fp, #-12]
    3898:	e1a01003 	mov	r1, r3
    389c:	e51b0008 	ldr	r0, [fp, #-8]
    38a0:	ebffffd7 	bl	3804 <_write_u32>
    38a4:	e1a00000 	nop			@ (mov r0, r0)
    38a8:	e24bd004 	sub	sp, fp, #4
    38ac:	e8bd8800 	pop	{fp, pc}

000038b0 <_handle_birth>:
    38b0:	e92d4800 	push	{fp, lr}
    38b4:	e28db004 	add	fp, sp, #4
    38b8:	e24dd018 	sub	sp, sp, #24
    38bc:	e50b0018 	str	r0, [fp, #-24]	@ 0xffffffe8
    38c0:	e51b3018 	ldr	r3, [fp, #-24]	@ 0xffffffe8
    38c4:	e5933014 	ldr	r3, [r3, #20]
    38c8:	e50b3008 	str	r3, [fp, #-8]
    38cc:	e51b0008 	ldr	r0, [fp, #-8]
    38d0:	ebfff36e 	bl	690 <neuron_birth>
    38d4:	e50b000c 	str	r0, [fp, #-12]
    38d8:	e3a03001 	mov	r3, #1
    38dc:	e54b3014 	strb	r3, [fp, #-20]	@ 0xffffffec
    38e0:	e51b300c 	ldr	r3, [fp, #-12]
    38e4:	e3530000 	cmp	r3, #0
    38e8:	03a03001 	moveq	r3, #1
    38ec:	13a03000 	movne	r3, #0
    38f0:	e20330ff 	and	r3, r3, #255	@ 0xff
    38f4:	e54b3013 	strb	r3, [fp, #-19]	@ 0xffffffed
    38f8:	e51b3008 	ldr	r3, [fp, #-8]
    38fc:	e20330ff 	and	r3, r3, #255	@ 0xff
    3900:	e54b3012 	strb	r3, [fp, #-18]	@ 0xffffffee
    3904:	e51b3008 	ldr	r3, [fp, #-8]
    3908:	e1a03423 	lsr	r3, r3, #8
    390c:	e20330ff 	and	r3, r3, #255	@ 0xff
    3910:	e54b3011 	strb	r3, [fp, #-17]	@ 0xffffffef
    3914:	e51b3008 	ldr	r3, [fp, #-8]
    3918:	e1a03823 	lsr	r3, r3, #16
    391c:	e20330ff 	and	r3, r3, #255	@ 0xff
    3920:	e54b3010 	strb	r3, [fp, #-16]
    3924:	e51b3008 	ldr	r3, [fp, #-8]
    3928:	e1a03c23 	lsr	r3, r3, #24
    392c:	e20330ff 	and	r3, r3, #255	@ 0xff
    3930:	e54b300f 	strb	r3, [fp, #-15]
    3934:	ebfff457 	bl	a98 <neuron_count>
    3938:	e1a03000 	mov	r3, r0
    393c:	e20330ff 	and	r3, r3, #255	@ 0xff
    3940:	e54b300e 	strb	r3, [fp, #-14]
    3944:	ebfff453 	bl	a98 <neuron_count>
    3948:	e1a03000 	mov	r3, r0
    394c:	e1a03423 	lsr	r3, r3, #8
    3950:	e20330ff 	and	r3, r3, #255	@ 0xff
    3954:	e54b300d 	strb	r3, [fp, #-13]
    3958:	e24b3014 	sub	r3, fp, #20
    395c:	e3a02008 	mov	r2, #8
    3960:	e1a01003 	mov	r1, r3
    3964:	e51b0018 	ldr	r0, [fp, #-24]	@ 0xffffffe8
    3968:	eb0006bf 	bl	546c <sdp_send_reply>
    396c:	e1a00000 	nop			@ (mov r0, r0)
    3970:	e24bd004 	sub	sp, fp, #4
    3974:	e8bd8800 	pop	{fp, pc}

00003978 <_handle_death>:
    3978:	e92d4800 	push	{fp, lr}
    397c:	e28db004 	add	fp, sp, #4
    3980:	e24dd018 	sub	sp, sp, #24
    3984:	e50b0018 	str	r0, [fp, #-24]	@ 0xffffffe8
    3988:	e51b3018 	ldr	r3, [fp, #-24]	@ 0xffffffe8
    398c:	e5933014 	ldr	r3, [r3, #20]
    3990:	e50b3008 	str	r3, [fp, #-8]
    3994:	e51b0008 	ldr	r0, [fp, #-8]
    3998:	ebfff38b 	bl	7cc <neuron_death>
    399c:	e50b000c 	str	r0, [fp, #-12]
    39a0:	e3a03002 	mov	r3, #2
    39a4:	e54b3010 	strb	r3, [fp, #-16]
    39a8:	e51b300c 	ldr	r3, [fp, #-12]
    39ac:	e3530000 	cmp	r3, #0
    39b0:	13a03001 	movne	r3, #1
    39b4:	03a03000 	moveq	r3, #0
    39b8:	e20330ff 	and	r3, r3, #255	@ 0xff
    39bc:	e54b300f 	strb	r3, [fp, #-15]
    39c0:	ebfff434 	bl	a98 <neuron_count>
    39c4:	e1a03000 	mov	r3, r0
    39c8:	e20330ff 	and	r3, r3, #255	@ 0xff
    39cc:	e54b300e 	strb	r3, [fp, #-14]
    39d0:	ebfff430 	bl	a98 <neuron_count>
    39d4:	e1a03000 	mov	r3, r0
    39d8:	e1a03423 	lsr	r3, r3, #8
    39dc:	e20330ff 	and	r3, r3, #255	@ 0xff
    39e0:	e54b300d 	strb	r3, [fp, #-13]
    39e4:	e24b3010 	sub	r3, fp, #16
    39e8:	e3a02004 	mov	r2, #4
    39ec:	e1a01003 	mov	r1, r3
    39f0:	e51b0018 	ldr	r0, [fp, #-24]	@ 0xffffffe8
    39f4:	eb00069c 	bl	546c <sdp_send_reply>
    39f8:	e1a00000 	nop			@ (mov r0, r0)
    39fc:	e24bd004 	sub	sp, fp, #4
    3a00:	e8bd8800 	pop	{fp, pc}

00003a04 <_handle_dopamine>:
    3a04:	e92d4800 	push	{fp, lr}
    3a08:	e28db004 	add	fp, sp, #4
    3a0c:	e24dd010 	sub	sp, sp, #16
    3a10:	e50b0010 	str	r0, [fp, #-16]
    3a14:	e51b3010 	ldr	r3, [fp, #-16]
    3a18:	e5933014 	ldr	r3, [r3, #20]
    3a1c:	e1a02003 	mov	r2, r3
    3a20:	e59f307c 	ldr	r3, [pc, #124]	@ 3aa4 <_handle_dopamine+0xa0>
    3a24:	e5832000 	str	r2, [r3]
    3a28:	e3a03003 	mov	r3, #3
    3a2c:	e54b300c 	strb	r3, [fp, #-12]
    3a30:	e3a03000 	mov	r3, #0
    3a34:	e54b300b 	strb	r3, [fp, #-11]
    3a38:	e59f3064 	ldr	r3, [pc, #100]	@ 3aa4 <_handle_dopamine+0xa0>
    3a3c:	e5933000 	ldr	r3, [r3]
    3a40:	e20330ff 	and	r3, r3, #255	@ 0xff
    3a44:	e54b300a 	strb	r3, [fp, #-10]
    3a48:	e59f3054 	ldr	r3, [pc, #84]	@ 3aa4 <_handle_dopamine+0xa0>
    3a4c:	e5933000 	ldr	r3, [r3]
    3a50:	e1a03443 	asr	r3, r3, #8
    3a54:	e20330ff 	and	r3, r3, #255	@ 0xff
    3a58:	e54b3009 	strb	r3, [fp, #-9]
    3a5c:	e59f3040 	ldr	r3, [pc, #64]	@ 3aa4 <_handle_dopamine+0xa0>
    3a60:	e5933000 	ldr	r3, [r3]
    3a64:	e1a03843 	asr	r3, r3, #16
    3a68:	e20330ff 	and	r3, r3, #255	@ 0xff
    3a6c:	e54b3008 	strb	r3, [fp, #-8]
    3a70:	e59f302c 	ldr	r3, [pc, #44]	@ 3aa4 <_handle_dopamine+0xa0>
    3a74:	e5933000 	ldr	r3, [r3]
    3a78:	e1a03c43 	asr	r3, r3, #24
    3a7c:	e20330ff 	and	r3, r3, #255	@ 0xff
    3a80:	e54b3007 	strb	r3, [fp, #-7]
    3a84:	e24b300c 	sub	r3, fp, #12
    3a88:	e3a02006 	mov	r2, #6
    3a8c:	e1a01003 	mov	r1, r3
    3a90:	e51b0010 	ldr	r0, [fp, #-16]
    3a94:	eb000674 	bl	546c <sdp_send_reply>
    3a98:	e1a00000 	nop			@ (mov r0, r0)
    3a9c:	e24bd004 	sub	sp, fp, #4
    3aa0:	e8bd8800 	pop	{fp, pc}
    3aa4:	00400014 	.word	0x00400014

00003aa8 <_handle_read_spikes>:
    3aa8:	e92d4800 	push	{fp, lr}
    3aac:	e28db004 	add	fp, sp, #4
    3ab0:	e24dd018 	sub	sp, sp, #24
    3ab4:	e50b0018 	str	r0, [fp, #-24]	@ 0xffffffe8
    3ab8:	e3a03004 	mov	r3, #4
    3abc:	e54b3010 	strb	r3, [fp, #-16]
    3ac0:	e3a03000 	mov	r3, #0
    3ac4:	e54b300f 	strb	r3, [fp, #-15]
    3ac8:	ebfff3f2 	bl	a98 <neuron_count>
    3acc:	e50b0008 	str	r0, [fp, #-8]
    3ad0:	e51b3008 	ldr	r3, [fp, #-8]
    3ad4:	e20330ff 	and	r3, r3, #255	@ 0xff
    3ad8:	e54b300e 	strb	r3, [fp, #-14]
    3adc:	e51b3008 	ldr	r3, [fp, #-8]
    3ae0:	e1a03423 	lsr	r3, r3, #8
    3ae4:	e20330ff 	and	r3, r3, #255	@ 0xff
    3ae8:	e54b300d 	strb	r3, [fp, #-13]
    3aec:	e59f303c 	ldr	r3, [pc, #60]	@ 3b30 <_handle_read_spikes+0x88>
    3af0:	e5933000 	ldr	r3, [r3]
    3af4:	e20330ff 	and	r3, r3, #255	@ 0xff
    3af8:	e54b300c 	strb	r3, [fp, #-12]
    3afc:	e59f302c 	ldr	r3, [pc, #44]	@ 3b30 <_handle_read_spikes+0x88>
    3b00:	e5933000 	ldr	r3, [r3]
    3b04:	e1a03423 	lsr	r3, r3, #8
    3b08:	e20330ff 	and	r3, r3, #255	@ 0xff
    3b0c:	e54b300b 	strb	r3, [fp, #-11]
    3b10:	e24b3010 	sub	r3, fp, #16
    3b14:	e3a02006 	mov	r2, #6
    3b18:	e1a01003 	mov	r1, r3
    3b1c:	e51b0018 	ldr	r0, [fp, #-24]	@ 0xffffffe8
    3b20:	eb000651 	bl	546c <sdp_send_reply>
    3b24:	e1a00000 	nop			@ (mov r0, r0)
    3b28:	e24bd004 	sub	sp, fp, #4
    3b2c:	e8bd8800 	pop	{fp, pc}
    3b30:	00400010 	.word	0x00400010

00003b34 <_handle_create_syn>:
    3b34:	e92d4800 	push	{fp, lr}
    3b38:	e28db004 	add	fp, sp, #4
    3b3c:	e24dd020 	sub	sp, sp, #32
    3b40:	e50b0020 	str	r0, [fp, #-32]	@ 0xffffffe0
    3b44:	e51b3020 	ldr	r3, [fp, #-32]	@ 0xffffffe0
    3b48:	e5933014 	ldr	r3, [r3, #20]
    3b4c:	e50b3008 	str	r3, [fp, #-8]
    3b50:	e51b3020 	ldr	r3, [fp, #-32]	@ 0xffffffe0
    3b54:	e5933018 	ldr	r3, [r3, #24]
    3b58:	e50b300c 	str	r3, [fp, #-12]
    3b5c:	e51b3020 	ldr	r3, [fp, #-32]	@ 0xffffffe0
    3b60:	e593301c 	ldr	r3, [r3, #28]
    3b64:	e50b3010 	str	r3, [fp, #-16]
    3b68:	e3a03001 	mov	r3, #1
    3b6c:	e51b2010 	ldr	r2, [fp, #-16]
    3b70:	e51b100c 	ldr	r1, [fp, #-12]
    3b74:	e51b0008 	ldr	r0, [fp, #-8]
    3b78:	ebfff5cd 	bl	12b4 <synapse_create>
    3b7c:	e50b0014 	str	r0, [fp, #-20]	@ 0xffffffec
    3b80:	e3a03005 	mov	r3, #5
    3b84:	e54b3018 	strb	r3, [fp, #-24]	@ 0xffffffe8
    3b88:	e51b3014 	ldr	r3, [fp, #-20]	@ 0xffffffec
    3b8c:	e3530000 	cmp	r3, #0
    3b90:	13a03001 	movne	r3, #1
    3b94:	03a03000 	moveq	r3, #0
    3b98:	e20330ff 	and	r3, r3, #255	@ 0xff
    3b9c:	e54b3017 	strb	r3, [fp, #-23]	@ 0xffffffe9
    3ba0:	e24b3018 	sub	r3, fp, #24
    3ba4:	e3a02002 	mov	r2, #2
    3ba8:	e1a01003 	mov	r1, r3
    3bac:	e51b0020 	ldr	r0, [fp, #-32]	@ 0xffffffe0
    3bb0:	eb00062d 	bl	546c <sdp_send_reply>
    3bb4:	e1a00000 	nop			@ (mov r0, r0)
    3bb8:	e24bd004 	sub	sp, fp, #4
    3bbc:	e8bd8800 	pop	{fp, pc}

00003bc0 <_handle_remove_syn>:
    3bc0:	e92d4800 	push	{fp, lr}
    3bc4:	e28db004 	add	fp, sp, #4
    3bc8:	e24dd018 	sub	sp, sp, #24
    3bcc:	e50b0018 	str	r0, [fp, #-24]	@ 0xffffffe8
    3bd0:	e51b3018 	ldr	r3, [fp, #-24]	@ 0xffffffe8
    3bd4:	e5933014 	ldr	r3, [r3, #20]
    3bd8:	e50b3008 	str	r3, [fp, #-8]
    3bdc:	e51b3018 	ldr	r3, [fp, #-24]	@ 0xffffffe8
    3be0:	e5933018 	ldr	r3, [r3, #24]
    3be4:	e50b300c 	str	r3, [fp, #-12]
    3be8:	e51b100c 	ldr	r1, [fp, #-12]
    3bec:	e51b0008 	ldr	r0, [fp, #-8]
    3bf0:	ebfff5fd 	bl	13ec <synapse_remove>
    3bf4:	e50b0010 	str	r0, [fp, #-16]
    3bf8:	e3a03006 	mov	r3, #6
    3bfc:	e54b3014 	strb	r3, [fp, #-20]	@ 0xffffffec
    3c00:	e51b3010 	ldr	r3, [fp, #-16]
    3c04:	e3530000 	cmp	r3, #0
    3c08:	13a03001 	movne	r3, #1
    3c0c:	03a03000 	moveq	r3, #0
    3c10:	e20330ff 	and	r3, r3, #255	@ 0xff
    3c14:	e54b3013 	strb	r3, [fp, #-19]	@ 0xffffffed
    3c18:	e24b3014 	sub	r3, fp, #20
    3c1c:	e3a02002 	mov	r2, #2
    3c20:	e1a01003 	mov	r1, r3
    3c24:	e51b0018 	ldr	r0, [fp, #-24]	@ 0xffffffe8
    3c28:	eb00060f 	bl	546c <sdp_send_reply>
    3c2c:	e1a00000 	nop			@ (mov r0, r0)
    3c30:	e24bd004 	sub	sp, fp, #4
    3c34:	e8bd8800 	pop	{fp, pc}

00003c38 <_handle_reset>:
    3c38:	e92d4800 	push	{fp, lr}
    3c3c:	e28db004 	add	fp, sp, #4
    3c40:	e24dd010 	sub	sp, sp, #16
    3c44:	e50b0010 	str	r0, [fp, #-16]
    3c48:	eb00072b 	bl	58fc <router_reset_all>
    3c4c:	ebfff3a3 	bl	ae0 <neuron_reset_all>
    3c50:	ebfff6f7 	bl	1834 <synapse_reset_all>
    3c54:	ebfffa82 	bl	2664 <cra_state_reset>
    3c58:	e59f3040 	ldr	r3, [pc, #64]	@ 3ca0 <_handle_reset+0x68>
    3c5c:	e3a02000 	mov	r2, #0
    3c60:	e5832000 	str	r2, [r3]
    3c64:	e59f3038 	ldr	r3, [pc, #56]	@ 3ca4 <_handle_reset+0x6c>
    3c68:	e3a02000 	mov	r2, #0
    3c6c:	e5832000 	str	r2, [r3]
    3c70:	e3a03007 	mov	r3, #7
    3c74:	e54b3008 	strb	r3, [fp, #-8]
    3c78:	e3a03000 	mov	r3, #0
    3c7c:	e54b3007 	strb	r3, [fp, #-7]
    3c80:	e24b3008 	sub	r3, fp, #8
    3c84:	e3a02002 	mov	r2, #2
    3c88:	e1a01003 	mov	r1, r3
    3c8c:	e51b0010 	ldr	r0, [fp, #-16]
    3c90:	eb0005f5 	bl	546c <sdp_send_reply>
    3c94:	e1a00000 	nop			@ (mov r0, r0)
    3c98:	e24bd004 	sub	sp, fp, #4
    3c9c:	e8bd8800 	pop	{fp, pc}
    3ca0:	00400014 	.word	0x00400014
    3ca4:	00400010 	.word	0x00400010

00003ca8 <_handle_read_state>:
    3ca8:	e92d4800 	push	{fp, lr}
    3cac:	e28db004 	add	fp, sp, #4
    3cb0:	e24dd070 	sub	sp, sp, #112	@ 0x70
    3cb4:	e50b0070 	str	r0, [fp, #-112]	@ 0xffffff90
    3cb8:	e24b3068 	sub	r3, fp, #104	@ 0x68
    3cbc:	e3a01060 	mov	r1, #96	@ 0x60
    3cc0:	e1a00003 	mov	r0, r3
    3cc4:	eb000552 	bl	5214 <host_if_pack_state_summary>
    3cc8:	e1a03000 	mov	r3, r0
    3ccc:	e54b3005 	strb	r3, [fp, #-5]
    3cd0:	e55b3005 	ldrb	r3, [fp, #-5]
    3cd4:	e3530000 	cmp	r3, #0
    3cd8:	0a000005 	beq	3cf4 <_handle_read_state+0x4c>
    3cdc:	e55b2005 	ldrb	r2, [fp, #-5]
    3ce0:	e24b3068 	sub	r3, fp, #104	@ 0x68
    3ce4:	e1a01003 	mov	r1, r3
    3ce8:	e51b0070 	ldr	r0, [fp, #-112]	@ 0xffffff90
    3cec:	eb0005de 	bl	546c <sdp_send_reply>
    3cf0:	ea000000 	b	3cf8 <_handle_read_state+0x50>
    3cf4:	e1a00000 	nop			@ (mov r0, r0)
    3cf8:	e24bd004 	sub	sp, fp, #4
    3cfc:	e8bd8800 	pop	{fp, pc}

00003d00 <_handle_schedule_pending>:
    3d00:	e92d4800 	push	{fp, lr}
    3d04:	e28db004 	add	fp, sp, #4
    3d08:	e24dd028 	sub	sp, sp, #40	@ 0x28
    3d0c:	e50b0028 	str	r0, [fp, #-40]	@ 0xffffffd8
    3d10:	e51b3028 	ldr	r3, [fp, #-40]	@ 0xffffffd8
    3d14:	e5933014 	ldr	r3, [r3, #20]
    3d18:	e50b3008 	str	r3, [fp, #-8]
    3d1c:	e51b3028 	ldr	r3, [fp, #-40]	@ 0xffffffd8
    3d20:	e5933018 	ldr	r3, [r3, #24]
    3d24:	e50b300c 	str	r3, [fp, #-12]
    3d28:	e59f30a0 	ldr	r3, [pc, #160]	@ 3dd0 <_handle_schedule_pending+0xd0>
    3d2c:	e5933000 	ldr	r3, [r3]
    3d30:	e51b200c 	ldr	r2, [fp, #-12]
    3d34:	e0823003 	add	r3, r2, r3
    3d38:	e50b3010 	str	r3, [fp, #-16]
    3d3c:	e51b0008 	ldr	r0, [fp, #-8]
    3d40:	ebfffcad 	bl	2ffc <cra_state_predict_readout>
    3d44:	e50b0014 	str	r0, [fp, #-20]	@ 0xffffffec
    3d48:	e51b1014 	ldr	r1, [fp, #-20]	@ 0xffffffec
    3d4c:	e51b0008 	ldr	r0, [fp, #-8]
    3d50:	ebfffccb 	bl	3084 <cra_state_record_decision>
    3d54:	e51b2010 	ldr	r2, [fp, #-16]
    3d58:	e51b1014 	ldr	r1, [fp, #-20]	@ 0xffffffec
    3d5c:	e51b0008 	ldr	r0, [fp, #-8]
    3d60:	ebfffde4 	bl	34f8 <cra_state_schedule_pending_horizon>
    3d64:	e50b0018 	str	r0, [fp, #-24]	@ 0xffffffe8
    3d68:	e3a03009 	mov	r3, #9
    3d6c:	e54b3024 	strb	r3, [fp, #-36]	@ 0xffffffdc
    3d70:	e51b3018 	ldr	r3, [fp, #-24]	@ 0xffffffe8
    3d74:	e3530000 	cmp	r3, #0
    3d78:	13a03001 	movne	r3, #1
    3d7c:	03a03000 	moveq	r3, #0
    3d80:	e20330ff 	and	r3, r3, #255	@ 0xff
    3d84:	e54b3023 	strb	r3, [fp, #-35]	@ 0xffffffdd
    3d88:	e24b3024 	sub	r3, fp, #36	@ 0x24
    3d8c:	e2833002 	add	r3, r3, #2
    3d90:	e51b1014 	ldr	r1, [fp, #-20]	@ 0xffffffec
    3d94:	e1a00003 	mov	r0, r3
    3d98:	ebfffeb8 	bl	3880 <_write_s32>
    3d9c:	e24b3024 	sub	r3, fp, #36	@ 0x24
    3da0:	e2833006 	add	r3, r3, #6
    3da4:	e51b1010 	ldr	r1, [fp, #-16]
    3da8:	e1a00003 	mov	r0, r3
    3dac:	ebfffe94 	bl	3804 <_write_u32>
    3db0:	e24b3024 	sub	r3, fp, #36	@ 0x24
    3db4:	e3a0200a 	mov	r2, #10
    3db8:	e1a01003 	mov	r1, r3
    3dbc:	e51b0028 	ldr	r0, [fp, #-40]	@ 0xffffffd8
    3dc0:	eb0005a9 	bl	546c <sdp_send_reply>
    3dc4:	e1a00000 	nop			@ (mov r0, r0)
    3dc8:	e24bd004 	sub	sp, fp, #4
    3dcc:	e8bd8800 	pop	{fp, pc}
    3dd0:	00400010 	.word	0x00400010

00003dd4 <_handle_mature_pending>:
    3dd4:	e92d4800 	push	{fp, lr}
    3dd8:	e28db004 	add	fp, sp, #4
    3ddc:	e24dd0a8 	sub	sp, sp, #168	@ 0xa8
    3de0:	e50b00a8 	str	r0, [fp, #-168]	@ 0xffffff58
    3de4:	e51b30a8 	ldr	r3, [fp, #-168]	@ 0xffffff58
    3de8:	e5933014 	ldr	r3, [r3, #20]
    3dec:	e50b3008 	str	r3, [fp, #-8]
    3df0:	e51b30a8 	ldr	r3, [fp, #-168]	@ 0xffffff58
    3df4:	e5933018 	ldr	r3, [r3, #24]
    3df8:	e50b300c 	str	r3, [fp, #-12]
    3dfc:	e51b30a8 	ldr	r3, [fp, #-168]	@ 0xffffff58
    3e00:	e593301c 	ldr	r3, [r3, #28]
    3e04:	e3530000 	cmp	r3, #0
    3e08:	0a000002 	beq	3e18 <_handle_mature_pending+0x44>
    3e0c:	e51b30a8 	ldr	r3, [fp, #-168]	@ 0xffffff58
    3e10:	e593301c 	ldr	r3, [r3, #28]
    3e14:	ea000001 	b	3e20 <_handle_mature_pending+0x4c>
    3e18:	e59f30a8 	ldr	r3, [pc, #168]	@ 3ec8 <_handle_mature_pending+0xf4>
    3e1c:	e5933000 	ldr	r3, [r3]
    3e20:	e50b3010 	str	r3, [fp, #-16]
    3e24:	e51b200c 	ldr	r2, [fp, #-12]
    3e28:	e51b1008 	ldr	r1, [fp, #-8]
    3e2c:	e51b0010 	ldr	r0, [fp, #-16]
    3e30:	ebfffdf4 	bl	3608 <cra_state_mature_pending_horizons>
    3e34:	e50b0014 	str	r0, [fp, #-20]	@ 0xffffffec
    3e38:	e24b3090 	sub	r3, fp, #144	@ 0x90
    3e3c:	e1a00003 	mov	r0, r3
    3e40:	ebfffe41 	bl	374c <cra_state_get_summary>
    3e44:	e3a0300a 	mov	r3, #10
    3e48:	e54b30a0 	strb	r3, [fp, #-160]	@ 0xffffff60
    3e4c:	e51b3014 	ldr	r3, [fp, #-20]	@ 0xffffffec
    3e50:	e3530000 	cmp	r3, #0
    3e54:	03a03001 	moveq	r3, #1
    3e58:	13a03000 	movne	r3, #0
    3e5c:	e20330ff 	and	r3, r3, #255	@ 0xff
    3e60:	e54b309f 	strb	r3, [fp, #-159]	@ 0xffffff61
    3e64:	e24b30a0 	sub	r3, fp, #160	@ 0xa0
    3e68:	e2833002 	add	r3, r3, #2
    3e6c:	e51b1014 	ldr	r1, [fp, #-20]	@ 0xffffffec
    3e70:	e1a00003 	mov	r0, r3
    3e74:	ebfffe62 	bl	3804 <_write_u32>
    3e78:	e51b2030 	ldr	r2, [fp, #-48]	@ 0xffffffd0
    3e7c:	e24b30a0 	sub	r3, fp, #160	@ 0xa0
    3e80:	e2833006 	add	r3, r3, #6
    3e84:	e1a01002 	mov	r1, r2
    3e88:	e1a00003 	mov	r0, r3
    3e8c:	ebfffe7b 	bl	3880 <_write_s32>
    3e90:	e51b202c 	ldr	r2, [fp, #-44]	@ 0xffffffd4
    3e94:	e24b30a0 	sub	r3, fp, #160	@ 0xa0
    3e98:	e283300a 	add	r3, r3, #10
    3e9c:	e1a01002 	mov	r1, r2
    3ea0:	e1a00003 	mov	r0, r3
    3ea4:	ebfffe75 	bl	3880 <_write_s32>
    3ea8:	e24b30a0 	sub	r3, fp, #160	@ 0xa0
    3eac:	e3a0200e 	mov	r2, #14
    3eb0:	e1a01003 	mov	r1, r3
    3eb4:	e51b00a8 	ldr	r0, [fp, #-168]	@ 0xffffff58
    3eb8:	eb00056b 	bl	546c <sdp_send_reply>
    3ebc:	e1a00000 	nop			@ (mov r0, r0)
    3ec0:	e24bd004 	sub	sp, fp, #4
    3ec4:	e8bd8800 	pop	{fp, pc}
    3ec8:	00400010 	.word	0x00400010

00003ecc <_handle_write_context>:
    3ecc:	e92d4800 	push	{fp, lr}
    3ed0:	e28db004 	add	fp, sp, #4
    3ed4:	e24dd0a0 	sub	sp, sp, #160	@ 0xa0
    3ed8:	e50b00a0 	str	r0, [fp, #-160]	@ 0xffffff60
    3edc:	e51b30a0 	ldr	r3, [fp, #-160]	@ 0xffffff60
    3ee0:	e5933014 	ldr	r3, [r3, #20]
    3ee4:	e50b3008 	str	r3, [fp, #-8]
    3ee8:	e51b30a0 	ldr	r3, [fp, #-160]	@ 0xffffff60
    3eec:	e5933018 	ldr	r3, [r3, #24]
    3ef0:	e50b300c 	str	r3, [fp, #-12]
    3ef4:	e51b30a0 	ldr	r3, [fp, #-160]	@ 0xffffff60
    3ef8:	e593301c 	ldr	r3, [r3, #28]
    3efc:	e50b3010 	str	r3, [fp, #-16]
    3f00:	e59f3090 	ldr	r3, [pc, #144]	@ 3f98 <_handle_write_context+0xcc>
    3f04:	e5933000 	ldr	r3, [r3]
    3f08:	e51b2010 	ldr	r2, [fp, #-16]
    3f0c:	e51b100c 	ldr	r1, [fp, #-12]
    3f10:	e51b0008 	ldr	r0, [fp, #-8]
    3f14:	ebfff9e3 	bl	26a8 <cra_state_write_context>
    3f18:	e50b0014 	str	r0, [fp, #-20]	@ 0xffffffec
    3f1c:	e24b3090 	sub	r3, fp, #144	@ 0x90
    3f20:	e1a00003 	mov	r0, r3
    3f24:	ebfffe08 	bl	374c <cra_state_get_summary>
    3f28:	e3a0300b 	mov	r3, #11
    3f2c:	e54b309c 	strb	r3, [fp, #-156]	@ 0xffffff64
    3f30:	e51b3014 	ldr	r3, [fp, #-20]	@ 0xffffffec
    3f34:	e3530000 	cmp	r3, #0
    3f38:	13a03001 	movne	r3, #1
    3f3c:	03a03000 	moveq	r3, #0
    3f40:	e20330ff 	and	r3, r3, #255	@ 0xff
    3f44:	e54b309b 	strb	r3, [fp, #-155]	@ 0xffffff65
    3f48:	e51b2090 	ldr	r2, [fp, #-144]	@ 0xffffff70
    3f4c:	e24b309c 	sub	r3, fp, #156	@ 0x9c
    3f50:	e2833002 	add	r3, r3, #2
    3f54:	e1a01002 	mov	r1, r2
    3f58:	e1a00003 	mov	r0, r3
    3f5c:	ebfffe28 	bl	3804 <_write_u32>
    3f60:	e51b208c 	ldr	r2, [fp, #-140]	@ 0xffffff74
    3f64:	e24b309c 	sub	r3, fp, #156	@ 0x9c
    3f68:	e2833006 	add	r3, r3, #6
    3f6c:	e1a01002 	mov	r1, r2
    3f70:	e1a00003 	mov	r0, r3
    3f74:	ebfffe22 	bl	3804 <_write_u32>
    3f78:	e24b309c 	sub	r3, fp, #156	@ 0x9c
    3f7c:	e3a0200a 	mov	r2, #10
    3f80:	e1a01003 	mov	r1, r3
    3f84:	e51b00a0 	ldr	r0, [fp, #-160]	@ 0xffffff60
    3f88:	eb000537 	bl	546c <sdp_send_reply>
    3f8c:	e1a00000 	nop			@ (mov r0, r0)
    3f90:	e24bd004 	sub	sp, fp, #4
    3f94:	e8bd8800 	pop	{fp, pc}
    3f98:	00400010 	.word	0x00400010

00003f9c <_handle_read_context>:
    3f9c:	e92d4800 	push	{fp, lr}
    3fa0:	e28db004 	add	fp, sp, #4
    3fa4:	e24dd0a8 	sub	sp, sp, #168	@ 0xa8
    3fa8:	e50b00a8 	str	r0, [fp, #-168]	@ 0xffffff58
    3fac:	e51b30a8 	ldr	r3, [fp, #-168]	@ 0xffffff58
    3fb0:	e5933014 	ldr	r3, [r3, #20]
    3fb4:	e50b3008 	str	r3, [fp, #-8]
    3fb8:	e3a03000 	mov	r3, #0
    3fbc:	e50b3010 	str	r3, [fp, #-16]
    3fc0:	e3a03000 	mov	r3, #0
    3fc4:	e50b3014 	str	r3, [fp, #-20]	@ 0xffffffec
    3fc8:	e24b2014 	sub	r2, fp, #20
    3fcc:	e24b3010 	sub	r3, fp, #16
    3fd0:	e1a01003 	mov	r1, r3
    3fd4:	e51b0008 	ldr	r0, [fp, #-8]
    3fd8:	ebfffa1f 	bl	285c <cra_state_read_context>
    3fdc:	e50b000c 	str	r0, [fp, #-12]
    3fe0:	e24b3090 	sub	r3, fp, #144	@ 0x90
    3fe4:	e1a00003 	mov	r0, r3
    3fe8:	ebfffdd7 	bl	374c <cra_state_get_summary>
    3fec:	e3a0300c 	mov	r3, #12
    3ff0:	e54b30a4 	strb	r3, [fp, #-164]	@ 0xffffff5c
    3ff4:	e51b300c 	ldr	r3, [fp, #-12]
    3ff8:	e3530000 	cmp	r3, #0
    3ffc:	13a03001 	movne	r3, #1
    4000:	03a03000 	moveq	r3, #0
    4004:	e20330ff 	and	r3, r3, #255	@ 0xff
    4008:	e54b30a3 	strb	r3, [fp, #-163]	@ 0xffffff5d
    400c:	e51b2010 	ldr	r2, [fp, #-16]
    4010:	e24b30a4 	sub	r3, fp, #164	@ 0xa4
    4014:	e2833002 	add	r3, r3, #2
    4018:	e1a01002 	mov	r1, r2
    401c:	e1a00003 	mov	r0, r3
    4020:	ebfffe16 	bl	3880 <_write_s32>
    4024:	e51b2014 	ldr	r2, [fp, #-20]	@ 0xffffffec
    4028:	e24b30a4 	sub	r3, fp, #164	@ 0xa4
    402c:	e2833006 	add	r3, r3, #6
    4030:	e1a01002 	mov	r1, r2
    4034:	e1a00003 	mov	r0, r3
    4038:	ebfffe10 	bl	3880 <_write_s32>
    403c:	e51b2088 	ldr	r2, [fp, #-136]	@ 0xffffff78
    4040:	e24b30a4 	sub	r3, fp, #164	@ 0xa4
    4044:	e283300a 	add	r3, r3, #10
    4048:	e1a01002 	mov	r1, r2
    404c:	e1a00003 	mov	r0, r3
    4050:	ebfffdeb 	bl	3804 <_write_u32>
    4054:	e51b2084 	ldr	r2, [fp, #-132]	@ 0xffffff7c
    4058:	e24b30a4 	sub	r3, fp, #164	@ 0xa4
    405c:	e283300e 	add	r3, r3, #14
    4060:	e1a01002 	mov	r1, r2
    4064:	e1a00003 	mov	r0, r3
    4068:	ebfffde5 	bl	3804 <_write_u32>
    406c:	e24b30a4 	sub	r3, fp, #164	@ 0xa4
    4070:	e3a02012 	mov	r2, #18
    4074:	e1a01003 	mov	r1, r3
    4078:	e51b00a8 	ldr	r0, [fp, #-168]	@ 0xffffff58
    407c:	eb0004fa 	bl	546c <sdp_send_reply>
    4080:	e1a00000 	nop			@ (mov r0, r0)
    4084:	e24bd004 	sub	sp, fp, #4
    4088:	e8bd8800 	pop	{fp, pc}

0000408c <_handle_schedule_context_pending>:
    408c:	e92d4bf0 	push	{r4, r5, r6, r7, r8, r9, fp, lr}
    4090:	e28db01c 	add	fp, sp, #28
    4094:	e24dd048 	sub	sp, sp, #72	@ 0x48
    4098:	e50b0060 	str	r0, [fp, #-96]	@ 0xffffffa0
    409c:	e51b3060 	ldr	r3, [fp, #-96]	@ 0xffffffa0
    40a0:	e5933014 	ldr	r3, [r3, #20]
    40a4:	e50b3024 	str	r3, [fp, #-36]	@ 0xffffffdc
    40a8:	e51b3060 	ldr	r3, [fp, #-96]	@ 0xffffffa0
    40ac:	e5933018 	ldr	r3, [r3, #24]
    40b0:	e50b3028 	str	r3, [fp, #-40]	@ 0xffffffd8
    40b4:	e51b3060 	ldr	r3, [fp, #-96]	@ 0xffffffa0
    40b8:	e593301c 	ldr	r3, [r3, #28]
    40bc:	e50b302c 	str	r3, [fp, #-44]	@ 0xffffffd4
    40c0:	e3a03000 	mov	r3, #0
    40c4:	e50b303c 	str	r3, [fp, #-60]	@ 0xffffffc4
    40c8:	e3a03000 	mov	r3, #0
    40cc:	e50b3040 	str	r3, [fp, #-64]	@ 0xffffffc0
    40d0:	e24b2040 	sub	r2, fp, #64	@ 0x40
    40d4:	e24b303c 	sub	r3, fp, #60	@ 0x3c
    40d8:	e1a01003 	mov	r1, r3
    40dc:	e51b0024 	ldr	r0, [fp, #-36]	@ 0xffffffdc
    40e0:	ebfff9dd 	bl	285c <cra_state_read_context>
    40e4:	e50b0020 	str	r0, [fp, #-32]	@ 0xffffffe0
    40e8:	e51b303c 	ldr	r3, [fp, #-60]	@ 0xffffffc4
    40ec:	e1a02fc3 	asr	r2, r3, #31
    40f0:	e1a08003 	mov	r8, r3
    40f4:	e1a09002 	mov	r9, r2
    40f8:	e51b3028 	ldr	r3, [fp, #-40]	@ 0xffffffd8
    40fc:	e1a02fc3 	asr	r2, r3, #31
    4100:	e1a06003 	mov	r6, r3
    4104:	e1a07002 	mov	r7, r2
    4108:	e0020996 	mul	r2, r6, r9
    410c:	e0030798 	mul	r3, r8, r7
    4110:	e0823003 	add	r3, r2, r3
    4114:	e0824698 	umull	r4, r2, r8, r6
    4118:	e1a05002 	mov	r5, r2
    411c:	e0833005 	add	r3, r3, r5
    4120:	e1a05003 	mov	r5, r3
    4124:	e3a02000 	mov	r2, #0
    4128:	e3a03000 	mov	r3, #0
    412c:	e1a027a4 	lsr	r2, r4, #15
    4130:	e1822885 	orr	r2, r2, r5, lsl #17
    4134:	e1a037c5 	asr	r3, r5, #15
    4138:	e1a03002 	mov	r3, r2
    413c:	e50b3030 	str	r3, [fp, #-48]	@ 0xffffffd0
    4140:	e59f30f0 	ldr	r3, [pc, #240]	@ 4238 <_handle_schedule_context_pending+0x1ac>
    4144:	e5933000 	ldr	r3, [r3]
    4148:	e51b202c 	ldr	r2, [fp, #-44]	@ 0xffffffd4
    414c:	e0823003 	add	r3, r2, r3
    4150:	e50b3034 	str	r3, [fp, #-52]	@ 0xffffffcc
    4154:	e51b0030 	ldr	r0, [fp, #-48]	@ 0xffffffd0
    4158:	ebfffba7 	bl	2ffc <cra_state_predict_readout>
    415c:	e50b0038 	str	r0, [fp, #-56]	@ 0xffffffc8
    4160:	e51b3020 	ldr	r3, [fp, #-32]	@ 0xffffffe0
    4164:	e3530000 	cmp	r3, #0
    4168:	1a000007 	bne	418c <_handle_schedule_context_pending+0x100>
    416c:	e51b1038 	ldr	r1, [fp, #-56]	@ 0xffffffc8
    4170:	e51b0030 	ldr	r0, [fp, #-48]	@ 0xffffffd0
    4174:	ebfffbc2 	bl	3084 <cra_state_record_decision>
    4178:	e51b2034 	ldr	r2, [fp, #-52]	@ 0xffffffcc
    417c:	e51b1038 	ldr	r1, [fp, #-56]	@ 0xffffffc8
    4180:	e51b0030 	ldr	r0, [fp, #-48]	@ 0xffffffd0
    4184:	ebfffcdb 	bl	34f8 <cra_state_schedule_pending_horizon>
    4188:	e50b0020 	str	r0, [fp, #-32]	@ 0xffffffe0
    418c:	e3a0300d 	mov	r3, #13
    4190:	e54b3058 	strb	r3, [fp, #-88]	@ 0xffffffa8
    4194:	e51b3020 	ldr	r3, [fp, #-32]	@ 0xffffffe0
    4198:	e3530000 	cmp	r3, #0
    419c:	13a03001 	movne	r3, #1
    41a0:	03a03000 	moveq	r3, #0
    41a4:	e20330ff 	and	r3, r3, #255	@ 0xff
    41a8:	e54b3057 	strb	r3, [fp, #-87]	@ 0xffffffa9
    41ac:	e24b3058 	sub	r3, fp, #88	@ 0x58
    41b0:	e2833002 	add	r3, r3, #2
    41b4:	e51b1038 	ldr	r1, [fp, #-56]	@ 0xffffffc8
    41b8:	e1a00003 	mov	r0, r3
    41bc:	ebfffdaf 	bl	3880 <_write_s32>
    41c0:	e24b3058 	sub	r3, fp, #88	@ 0x58
    41c4:	e2833006 	add	r3, r3, #6
    41c8:	e51b1034 	ldr	r1, [fp, #-52]	@ 0xffffffcc
    41cc:	e1a00003 	mov	r0, r3
    41d0:	ebfffd8b 	bl	3804 <_write_u32>
    41d4:	e24b3058 	sub	r3, fp, #88	@ 0x58
    41d8:	e283300a 	add	r3, r3, #10
    41dc:	e51b1030 	ldr	r1, [fp, #-48]	@ 0xffffffd0
    41e0:	e1a00003 	mov	r0, r3
    41e4:	ebfffda5 	bl	3880 <_write_s32>
    41e8:	e51b203c 	ldr	r2, [fp, #-60]	@ 0xffffffc4
    41ec:	e24b3058 	sub	r3, fp, #88	@ 0x58
    41f0:	e283300e 	add	r3, r3, #14
    41f4:	e1a01002 	mov	r1, r2
    41f8:	e1a00003 	mov	r0, r3
    41fc:	ebfffd9f 	bl	3880 <_write_s32>
    4200:	e51b2040 	ldr	r2, [fp, #-64]	@ 0xffffffc0
    4204:	e24b3058 	sub	r3, fp, #88	@ 0x58
    4208:	e2833012 	add	r3, r3, #18
    420c:	e1a01002 	mov	r1, r2
    4210:	e1a00003 	mov	r0, r3
    4214:	ebfffd99 	bl	3880 <_write_s32>
    4218:	e24b3058 	sub	r3, fp, #88	@ 0x58
    421c:	e3a02016 	mov	r2, #22
    4220:	e1a01003 	mov	r1, r3
    4224:	e51b0060 	ldr	r0, [fp, #-96]	@ 0xffffffa0
    4228:	eb00048f 	bl	546c <sdp_send_reply>
    422c:	e1a00000 	nop			@ (mov r0, r0)
    4230:	e24bd01c 	sub	sp, fp, #28
    4234:	e8bd8bf0 	pop	{r4, r5, r6, r7, r8, r9, fp, pc}
    4238:	00400010 	.word	0x00400010

0000423c <_handle_write_route>:
    423c:	e92d4800 	push	{fp, lr}
    4240:	e28db004 	add	fp, sp, #4
    4244:	e24dd0a0 	sub	sp, sp, #160	@ 0xa0
    4248:	e50b00a0 	str	r0, [fp, #-160]	@ 0xffffff60
    424c:	e51b30a0 	ldr	r3, [fp, #-160]	@ 0xffffff60
    4250:	e5933014 	ldr	r3, [r3, #20]
    4254:	e50b3008 	str	r3, [fp, #-8]
    4258:	e51b30a0 	ldr	r3, [fp, #-160]	@ 0xffffff60
    425c:	e5933018 	ldr	r3, [r3, #24]
    4260:	e50b300c 	str	r3, [fp, #-12]
    4264:	e59f3090 	ldr	r3, [pc, #144]	@ 42fc <_handle_write_route+0xc0>
    4268:	e5933000 	ldr	r3, [r3]
    426c:	e1a02003 	mov	r2, r3
    4270:	e51b100c 	ldr	r1, [fp, #-12]
    4274:	e51b0008 	ldr	r0, [fp, #-8]
    4278:	ebfff9ba 	bl	2968 <cra_state_write_route>
    427c:	e50b0010 	str	r0, [fp, #-16]
    4280:	e24b308c 	sub	r3, fp, #140	@ 0x8c
    4284:	e1a00003 	mov	r0, r3
    4288:	ebfffd2f 	bl	374c <cra_state_get_summary>
    428c:	e3a0300e 	mov	r3, #14
    4290:	e54b3098 	strb	r3, [fp, #-152]	@ 0xffffff68
    4294:	e51b3010 	ldr	r3, [fp, #-16]
    4298:	e3530000 	cmp	r3, #0
    429c:	13a03001 	movne	r3, #1
    42a0:	03a03000 	moveq	r3, #0
    42a4:	e20330ff 	and	r3, r3, #255	@ 0xff
    42a8:	e54b3097 	strb	r3, [fp, #-151]	@ 0xffffff69
    42ac:	e51b2024 	ldr	r2, [fp, #-36]	@ 0xffffffdc
    42b0:	e24b3098 	sub	r3, fp, #152	@ 0x98
    42b4:	e2833002 	add	r3, r3, #2
    42b8:	e1a01002 	mov	r1, r2
    42bc:	e1a00003 	mov	r0, r3
    42c0:	ebfffd6e 	bl	3880 <_write_s32>
    42c4:	e51b205c 	ldr	r2, [fp, #-92]	@ 0xffffffa4
    42c8:	e24b3098 	sub	r3, fp, #152	@ 0x98
    42cc:	e2833006 	add	r3, r3, #6
    42d0:	e1a01002 	mov	r1, r2
    42d4:	e1a00003 	mov	r0, r3
    42d8:	ebfffd49 	bl	3804 <_write_u32>
    42dc:	e24b3098 	sub	r3, fp, #152	@ 0x98
    42e0:	e3a0200a 	mov	r2, #10
    42e4:	e1a01003 	mov	r1, r3
    42e8:	e51b00a0 	ldr	r0, [fp, #-160]	@ 0xffffff60
    42ec:	eb00045e 	bl	546c <sdp_send_reply>
    42f0:	e1a00000 	nop			@ (mov r0, r0)
    42f4:	e24bd004 	sub	sp, fp, #4
    42f8:	e8bd8800 	pop	{fp, pc}
    42fc:	00400010 	.word	0x00400010

00004300 <_handle_read_route>:
    4300:	e92d4800 	push	{fp, lr}
    4304:	e28db004 	add	fp, sp, #4
    4308:	e24dd0a0 	sub	sp, sp, #160	@ 0xa0
    430c:	e50b00a0 	str	r0, [fp, #-160]	@ 0xffffff60
    4310:	e3a03000 	mov	r3, #0
    4314:	e50b300c 	str	r3, [fp, #-12]
    4318:	e3a03000 	mov	r3, #0
    431c:	e50b3010 	str	r3, [fp, #-16]
    4320:	e24b2010 	sub	r2, fp, #16
    4324:	e24b300c 	sub	r3, fp, #12
    4328:	e1a01002 	mov	r1, r2
    432c:	e1a00003 	mov	r0, r3
    4330:	ebfff9a3 	bl	29c4 <cra_state_read_route>
    4334:	e50b0008 	str	r0, [fp, #-8]
    4338:	e24b308c 	sub	r3, fp, #140	@ 0x8c
    433c:	e1a00003 	mov	r0, r3
    4340:	ebfffd01 	bl	374c <cra_state_get_summary>
    4344:	e3a0300f 	mov	r3, #15
    4348:	e54b309c 	strb	r3, [fp, #-156]	@ 0xffffff64
    434c:	e51b3008 	ldr	r3, [fp, #-8]
    4350:	e3530000 	cmp	r3, #0
    4354:	13a03001 	movne	r3, #1
    4358:	03a03000 	moveq	r3, #0
    435c:	e20330ff 	and	r3, r3, #255	@ 0xff
    4360:	e54b309b 	strb	r3, [fp, #-155]	@ 0xffffff65
    4364:	e51b200c 	ldr	r2, [fp, #-12]
    4368:	e24b309c 	sub	r3, fp, #156	@ 0x9c
    436c:	e2833002 	add	r3, r3, #2
    4370:	e1a01002 	mov	r1, r2
    4374:	e1a00003 	mov	r0, r3
    4378:	ebfffd40 	bl	3880 <_write_s32>
    437c:	e51b2010 	ldr	r2, [fp, #-16]
    4380:	e24b309c 	sub	r3, fp, #156	@ 0x9c
    4384:	e2833006 	add	r3, r3, #6
    4388:	e1a01002 	mov	r1, r2
    438c:	e1a00003 	mov	r0, r3
    4390:	ebfffd3a 	bl	3880 <_write_s32>
    4394:	e51b2058 	ldr	r2, [fp, #-88]	@ 0xffffffa8
    4398:	e24b309c 	sub	r3, fp, #156	@ 0x9c
    439c:	e283300a 	add	r3, r3, #10
    43a0:	e1a01002 	mov	r1, r2
    43a4:	e1a00003 	mov	r0, r3
    43a8:	ebfffd15 	bl	3804 <_write_u32>
    43ac:	e24b309c 	sub	r3, fp, #156	@ 0x9c
    43b0:	e3a0200e 	mov	r2, #14
    43b4:	e1a01003 	mov	r1, r3
    43b8:	e51b00a0 	ldr	r0, [fp, #-160]	@ 0xffffff60
    43bc:	eb00042a 	bl	546c <sdp_send_reply>
    43c0:	e1a00000 	nop			@ (mov r0, r0)
    43c4:	e24bd004 	sub	sp, fp, #4
    43c8:	e8bd8800 	pop	{fp, pc}

000043cc <_handle_schedule_routed_context_pending>:
    43cc:	e92d4bf0 	push	{r4, r5, r6, r7, r8, r9, fp, lr}
    43d0:	e28db01c 	add	fp, sp, #28
    43d4:	e24dd070 	sub	sp, sp, #112	@ 0x70
    43d8:	e50b0070 	str	r0, [fp, #-112]	@ 0xffffff90
    43dc:	e51b3070 	ldr	r3, [fp, #-112]	@ 0xffffff90
    43e0:	e5933014 	ldr	r3, [r3, #20]
    43e4:	e50b3024 	str	r3, [fp, #-36]	@ 0xffffffdc
    43e8:	e51b3070 	ldr	r3, [fp, #-112]	@ 0xffffff90
    43ec:	e5933018 	ldr	r3, [r3, #24]
    43f0:	e50b3028 	str	r3, [fp, #-40]	@ 0xffffffd8
    43f4:	e51b3070 	ldr	r3, [fp, #-112]	@ 0xffffff90
    43f8:	e593301c 	ldr	r3, [r3, #28]
    43fc:	e50b302c 	str	r3, [fp, #-44]	@ 0xffffffd4
    4400:	e3a03000 	mov	r3, #0
    4404:	e50b3040 	str	r3, [fp, #-64]	@ 0xffffffc0
    4408:	e3a03000 	mov	r3, #0
    440c:	e50b3044 	str	r3, [fp, #-68]	@ 0xffffffbc
    4410:	e3a03000 	mov	r3, #0
    4414:	e50b3048 	str	r3, [fp, #-72]	@ 0xffffffb8
    4418:	e3a03000 	mov	r3, #0
    441c:	e50b304c 	str	r3, [fp, #-76]	@ 0xffffffb4
    4420:	e24b3044 	sub	r3, fp, #68	@ 0x44
    4424:	e24b1040 	sub	r1, fp, #64	@ 0x40
    4428:	e1a02003 	mov	r2, r3
    442c:	e51b0024 	ldr	r0, [fp, #-36]	@ 0xffffffdc
    4430:	ebfff909 	bl	285c <cra_state_read_context>
    4434:	e50b0020 	str	r0, [fp, #-32]	@ 0xffffffe0
    4438:	e24b304c 	sub	r3, fp, #76	@ 0x4c
    443c:	e24b2048 	sub	r2, fp, #72	@ 0x48
    4440:	e1a01003 	mov	r1, r3
    4444:	e1a00002 	mov	r0, r2
    4448:	ebfff95d 	bl	29c4 <cra_state_read_route>
    444c:	e50b0030 	str	r0, [fp, #-48]	@ 0xffffffd0
    4450:	e51b3040 	ldr	r3, [fp, #-64]	@ 0xffffffc0
    4454:	e1a02fc3 	asr	r2, r3, #31
    4458:	e50b3084 	str	r3, [fp, #-132]	@ 0xffffff7c
    445c:	e50b2080 	str	r2, [fp, #-128]	@ 0xffffff80
    4460:	e51b3048 	ldr	r3, [fp, #-72]	@ 0xffffffb8
    4464:	e1a02fc3 	asr	r2, r3, #31
    4468:	e50b307c 	str	r3, [fp, #-124]	@ 0xffffff84
    446c:	e50b2078 	str	r2, [fp, #-120]	@ 0xffffff88
    4470:	e14b08d4 	ldrd	r0, [fp, #-132]	@ 0xffffff7c
    4474:	e1a02001 	mov	r2, r1
    4478:	e51b307c 	ldr	r3, [fp, #-124]	@ 0xffffff84
    447c:	e0020293 	mul	r2, r3, r2
    4480:	e51b3078 	ldr	r3, [fp, #-120]	@ 0xffffff88
    4484:	e1a0c000 	mov	ip, r0
    4488:	e003039c 	mul	r3, ip, r3
    448c:	e0823003 	add	r3, r2, r3
    4490:	e1a01000 	mov	r1, r0
    4494:	e51b007c 	ldr	r0, [fp, #-124]	@ 0xffffff84
    4498:	e0826091 	umull	r6, r2, r1, r0
    449c:	e1a07002 	mov	r7, r2
    44a0:	e0833007 	add	r3, r3, r7
    44a4:	e1a07003 	mov	r7, r3
    44a8:	e3a02000 	mov	r2, #0
    44ac:	e3a03000 	mov	r3, #0
    44b0:	e1a027a6 	lsr	r2, r6, #15
    44b4:	e1822887 	orr	r2, r2, r7, lsl #17
    44b8:	e1a037c7 	asr	r3, r7, #15
    44bc:	e1a03002 	mov	r3, r2
    44c0:	e1a02fc3 	asr	r2, r3, #31
    44c4:	e50b308c 	str	r3, [fp, #-140]	@ 0xffffff74
    44c8:	e50b2088 	str	r2, [fp, #-136]	@ 0xffffff78
    44cc:	e51b3028 	ldr	r3, [fp, #-40]	@ 0xffffffd8
    44d0:	e1a02fc3 	asr	r2, r3, #31
    44d4:	e1a08003 	mov	r8, r3
    44d8:	e1a09002 	mov	r9, r2
    44dc:	e14b08dc 	ldrd	r0, [fp, #-140]	@ 0xffffff74
    44e0:	e1a02001 	mov	r2, r1
    44e4:	e0020298 	mul	r2, r8, r2
    44e8:	e1a03000 	mov	r3, r0
    44ec:	e0030399 	mul	r3, r9, r3
    44f0:	e0823003 	add	r3, r2, r3
    44f4:	e1a01000 	mov	r1, r0
    44f8:	e0824891 	umull	r4, r2, r1, r8
    44fc:	e1a05002 	mov	r5, r2
    4500:	e0833005 	add	r3, r3, r5
    4504:	e1a05003 	mov	r5, r3
    4508:	e3a02000 	mov	r2, #0
    450c:	e3a03000 	mov	r3, #0
    4510:	e1a027a4 	lsr	r2, r4, #15
    4514:	e1822885 	orr	r2, r2, r5, lsl #17
    4518:	e1a037c5 	asr	r3, r5, #15
    451c:	e1a03002 	mov	r3, r2
    4520:	e50b3034 	str	r3, [fp, #-52]	@ 0xffffffcc
    4524:	e59f3138 	ldr	r3, [pc, #312]	@ 4664 <_handle_schedule_routed_context_pending+0x298>
    4528:	e5933000 	ldr	r3, [r3]
    452c:	e51b202c 	ldr	r2, [fp, #-44]	@ 0xffffffd4
    4530:	e0823003 	add	r3, r2, r3
    4534:	e50b3038 	str	r3, [fp, #-56]	@ 0xffffffc8
    4538:	e51b0034 	ldr	r0, [fp, #-52]	@ 0xffffffcc
    453c:	ebfffaae 	bl	2ffc <cra_state_predict_readout>
    4540:	e50b003c 	str	r0, [fp, #-60]	@ 0xffffffc4
    4544:	e51b3020 	ldr	r3, [fp, #-32]	@ 0xffffffe0
    4548:	e3530000 	cmp	r3, #0
    454c:	1a00000b 	bne	4580 <_handle_schedule_routed_context_pending+0x1b4>
    4550:	e51b3030 	ldr	r3, [fp, #-48]	@ 0xffffffd0
    4554:	e3530000 	cmp	r3, #0
    4558:	1a000008 	bne	4580 <_handle_schedule_routed_context_pending+0x1b4>
    455c:	e51b103c 	ldr	r1, [fp, #-60]	@ 0xffffffc4
    4560:	e51b0034 	ldr	r0, [fp, #-52]	@ 0xffffffcc
    4564:	ebfffac6 	bl	3084 <cra_state_record_decision>
    4568:	e51b2038 	ldr	r2, [fp, #-56]	@ 0xffffffc8
    456c:	e51b103c 	ldr	r1, [fp, #-60]	@ 0xffffffc4
    4570:	e51b0034 	ldr	r0, [fp, #-52]	@ 0xffffffcc
    4574:	ebfffbdf 	bl	34f8 <cra_state_schedule_pending_horizon>
    4578:	e50b0020 	str	r0, [fp, #-32]	@ 0xffffffe0
    457c:	ea000001 	b	4588 <_handle_schedule_routed_context_pending+0x1bc>
    4580:	e3e03000 	mvn	r3, #0
    4584:	e50b3020 	str	r3, [fp, #-32]	@ 0xffffffe0
    4588:	e3a03010 	mov	r3, #16
    458c:	e54b306c 	strb	r3, [fp, #-108]	@ 0xffffff94
    4590:	e51b3020 	ldr	r3, [fp, #-32]	@ 0xffffffe0
    4594:	e3530000 	cmp	r3, #0
    4598:	13a03001 	movne	r3, #1
    459c:	03a03000 	moveq	r3, #0
    45a0:	e20330ff 	and	r3, r3, #255	@ 0xff
    45a4:	e54b306b 	strb	r3, [fp, #-107]	@ 0xffffff95
    45a8:	e24b306c 	sub	r3, fp, #108	@ 0x6c
    45ac:	e2833002 	add	r3, r3, #2
    45b0:	e51b103c 	ldr	r1, [fp, #-60]	@ 0xffffffc4
    45b4:	e1a00003 	mov	r0, r3
    45b8:	ebfffcb0 	bl	3880 <_write_s32>
    45bc:	e24b306c 	sub	r3, fp, #108	@ 0x6c
    45c0:	e2833006 	add	r3, r3, #6
    45c4:	e51b1038 	ldr	r1, [fp, #-56]	@ 0xffffffc8
    45c8:	e1a00003 	mov	r0, r3
    45cc:	ebfffc8c 	bl	3804 <_write_u32>
    45d0:	e24b306c 	sub	r3, fp, #108	@ 0x6c
    45d4:	e283300a 	add	r3, r3, #10
    45d8:	e51b1034 	ldr	r1, [fp, #-52]	@ 0xffffffcc
    45dc:	e1a00003 	mov	r0, r3
    45e0:	ebfffca6 	bl	3880 <_write_s32>
    45e4:	e51b2040 	ldr	r2, [fp, #-64]	@ 0xffffffc0
    45e8:	e24b306c 	sub	r3, fp, #108	@ 0x6c
    45ec:	e283300e 	add	r3, r3, #14
    45f0:	e1a01002 	mov	r1, r2
    45f4:	e1a00003 	mov	r0, r3
    45f8:	ebfffca0 	bl	3880 <_write_s32>
    45fc:	e51b2044 	ldr	r2, [fp, #-68]	@ 0xffffffbc
    4600:	e24b306c 	sub	r3, fp, #108	@ 0x6c
    4604:	e2833012 	add	r3, r3, #18
    4608:	e1a01002 	mov	r1, r2
    460c:	e1a00003 	mov	r0, r3
    4610:	ebfffc9a 	bl	3880 <_write_s32>
    4614:	e51b2048 	ldr	r2, [fp, #-72]	@ 0xffffffb8
    4618:	e24b306c 	sub	r3, fp, #108	@ 0x6c
    461c:	e2833016 	add	r3, r3, #22
    4620:	e1a01002 	mov	r1, r2
    4624:	e1a00003 	mov	r0, r3
    4628:	ebfffc94 	bl	3880 <_write_s32>
    462c:	e51b204c 	ldr	r2, [fp, #-76]	@ 0xffffffb4
    4630:	e24b306c 	sub	r3, fp, #108	@ 0x6c
    4634:	e283301a 	add	r3, r3, #26
    4638:	e1a01002 	mov	r1, r2
    463c:	e1a00003 	mov	r0, r3
    4640:	ebfffc8e 	bl	3880 <_write_s32>
    4644:	e24b306c 	sub	r3, fp, #108	@ 0x6c
    4648:	e3a0201e 	mov	r2, #30
    464c:	e1a01003 	mov	r1, r3
    4650:	e51b0070 	ldr	r0, [fp, #-112]	@ 0xffffff90
    4654:	eb000384 	bl	546c <sdp_send_reply>
    4658:	e1a00000 	nop			@ (mov r0, r0)
    465c:	e24bd01c 	sub	sp, fp, #28
    4660:	e8bd8bf0 	pop	{r4, r5, r6, r7, r8, r9, fp, pc}
    4664:	00400010 	.word	0x00400010

00004668 <_handle_write_route_slot>:
    4668:	e92d4800 	push	{fp, lr}
    466c:	e28db004 	add	fp, sp, #4
    4670:	e24dd0a0 	sub	sp, sp, #160	@ 0xa0
    4674:	e50b00a0 	str	r0, [fp, #-160]	@ 0xffffff60
    4678:	e51b30a0 	ldr	r3, [fp, #-160]	@ 0xffffff60
    467c:	e5933014 	ldr	r3, [r3, #20]
    4680:	e50b3008 	str	r3, [fp, #-8]
    4684:	e51b30a0 	ldr	r3, [fp, #-160]	@ 0xffffff60
    4688:	e5933018 	ldr	r3, [r3, #24]
    468c:	e50b300c 	str	r3, [fp, #-12]
    4690:	e51b30a0 	ldr	r3, [fp, #-160]	@ 0xffffff60
    4694:	e593301c 	ldr	r3, [r3, #28]
    4698:	e50b3010 	str	r3, [fp, #-16]
    469c:	e59f3090 	ldr	r3, [pc, #144]	@ 4734 <_handle_write_route_slot+0xcc>
    46a0:	e5933000 	ldr	r3, [r3]
    46a4:	e51b2010 	ldr	r2, [fp, #-16]
    46a8:	e51b100c 	ldr	r1, [fp, #-12]
    46ac:	e51b0008 	ldr	r0, [fp, #-8]
    46b0:	ebfff8e1 	bl	2a3c <cra_state_write_route_slot>
    46b4:	e50b0014 	str	r0, [fp, #-20]	@ 0xffffffec
    46b8:	e24b3090 	sub	r3, fp, #144	@ 0x90
    46bc:	e1a00003 	mov	r0, r3
    46c0:	ebfffc21 	bl	374c <cra_state_get_summary>
    46c4:	e3a03011 	mov	r3, #17
    46c8:	e54b309c 	strb	r3, [fp, #-156]	@ 0xffffff64
    46cc:	e51b3014 	ldr	r3, [fp, #-20]	@ 0xffffffec
    46d0:	e3530000 	cmp	r3, #0
    46d4:	13a03001 	movne	r3, #1
    46d8:	03a03000 	moveq	r3, #0
    46dc:	e20330ff 	and	r3, r3, #255	@ 0xff
    46e0:	e54b309b 	strb	r3, [fp, #-155]	@ 0xffffff65
    46e4:	e51b2058 	ldr	r2, [fp, #-88]	@ 0xffffffa8
    46e8:	e24b309c 	sub	r3, fp, #156	@ 0x9c
    46ec:	e2833002 	add	r3, r3, #2
    46f0:	e1a01002 	mov	r1, r2
    46f4:	e1a00003 	mov	r0, r3
    46f8:	ebfffc41 	bl	3804 <_write_u32>
    46fc:	e51b2054 	ldr	r2, [fp, #-84]	@ 0xffffffac
    4700:	e24b309c 	sub	r3, fp, #156	@ 0x9c
    4704:	e2833006 	add	r3, r3, #6
    4708:	e1a01002 	mov	r1, r2
    470c:	e1a00003 	mov	r0, r3
    4710:	ebfffc3b 	bl	3804 <_write_u32>
    4714:	e24b309c 	sub	r3, fp, #156	@ 0x9c
    4718:	e3a0200a 	mov	r2, #10
    471c:	e1a01003 	mov	r1, r3
    4720:	e51b00a0 	ldr	r0, [fp, #-160]	@ 0xffffff60
    4724:	eb000350 	bl	546c <sdp_send_reply>
    4728:	e1a00000 	nop			@ (mov r0, r0)
    472c:	e24bd004 	sub	sp, fp, #4
    4730:	e8bd8800 	pop	{fp, pc}
    4734:	00400010 	.word	0x00400010

00004738 <_handle_read_route_slot>:
    4738:	e92d4800 	push	{fp, lr}
    473c:	e28db004 	add	fp, sp, #4
    4740:	e24dd0a8 	sub	sp, sp, #168	@ 0xa8
    4744:	e50b00a8 	str	r0, [fp, #-168]	@ 0xffffff58
    4748:	e51b30a8 	ldr	r3, [fp, #-168]	@ 0xffffff58
    474c:	e5933014 	ldr	r3, [r3, #20]
    4750:	e50b3008 	str	r3, [fp, #-8]
    4754:	e3a03000 	mov	r3, #0
    4758:	e50b3010 	str	r3, [fp, #-16]
    475c:	e3a03000 	mov	r3, #0
    4760:	e50b3014 	str	r3, [fp, #-20]	@ 0xffffffec
    4764:	e24b2014 	sub	r2, fp, #20
    4768:	e24b3010 	sub	r3, fp, #16
    476c:	e1a01003 	mov	r1, r3
    4770:	e51b0008 	ldr	r0, [fp, #-8]
    4774:	ebfff91d 	bl	2bf0 <cra_state_read_route_slot>
    4778:	e50b000c 	str	r0, [fp, #-12]
    477c:	e24b3090 	sub	r3, fp, #144	@ 0x90
    4780:	e1a00003 	mov	r0, r3
    4784:	ebfffbf0 	bl	374c <cra_state_get_summary>
    4788:	e3a03012 	mov	r3, #18
    478c:	e54b30a4 	strb	r3, [fp, #-164]	@ 0xffffff5c
    4790:	e51b300c 	ldr	r3, [fp, #-12]
    4794:	e3530000 	cmp	r3, #0
    4798:	13a03001 	movne	r3, #1
    479c:	03a03000 	moveq	r3, #0
    47a0:	e20330ff 	and	r3, r3, #255	@ 0xff
    47a4:	e54b30a3 	strb	r3, [fp, #-163]	@ 0xffffff5d
    47a8:	e51b2010 	ldr	r2, [fp, #-16]
    47ac:	e24b30a4 	sub	r3, fp, #164	@ 0xa4
    47b0:	e2833002 	add	r3, r3, #2
    47b4:	e1a01002 	mov	r1, r2
    47b8:	e1a00003 	mov	r0, r3
    47bc:	ebfffc2f 	bl	3880 <_write_s32>
    47c0:	e51b2014 	ldr	r2, [fp, #-20]	@ 0xffffffec
    47c4:	e24b30a4 	sub	r3, fp, #164	@ 0xa4
    47c8:	e2833006 	add	r3, r3, #6
    47cc:	e1a01002 	mov	r1, r2
    47d0:	e1a00003 	mov	r0, r3
    47d4:	ebfffc29 	bl	3880 <_write_s32>
    47d8:	e51b2050 	ldr	r2, [fp, #-80]	@ 0xffffffb0
    47dc:	e24b30a4 	sub	r3, fp, #164	@ 0xa4
    47e0:	e283300a 	add	r3, r3, #10
    47e4:	e1a01002 	mov	r1, r2
    47e8:	e1a00003 	mov	r0, r3
    47ec:	ebfffc04 	bl	3804 <_write_u32>
    47f0:	e51b204c 	ldr	r2, [fp, #-76]	@ 0xffffffb4
    47f4:	e24b30a4 	sub	r3, fp, #164	@ 0xa4
    47f8:	e283300e 	add	r3, r3, #14
    47fc:	e1a01002 	mov	r1, r2
    4800:	e1a00003 	mov	r0, r3
    4804:	ebfffbfe 	bl	3804 <_write_u32>
    4808:	e24b30a4 	sub	r3, fp, #164	@ 0xa4
    480c:	e3a02012 	mov	r2, #18
    4810:	e1a01003 	mov	r1, r3
    4814:	e51b00a8 	ldr	r0, [fp, #-168]	@ 0xffffff58
    4818:	eb000313 	bl	546c <sdp_send_reply>
    481c:	e1a00000 	nop			@ (mov r0, r0)
    4820:	e24bd004 	sub	sp, fp, #4
    4824:	e8bd8800 	pop	{fp, pc}

00004828 <_handle_schedule_keyed_route_context_pending>:
    4828:	e92d4bf0 	push	{r4, r5, r6, r7, r8, r9, fp, lr}
    482c:	e28db01c 	add	fp, sp, #28
    4830:	e24dd078 	sub	sp, sp, #120	@ 0x78
    4834:	e50b0078 	str	r0, [fp, #-120]	@ 0xffffff88
    4838:	e51b3078 	ldr	r3, [fp, #-120]	@ 0xffffff88
    483c:	e5933014 	ldr	r3, [r3, #20]
    4840:	e50b3024 	str	r3, [fp, #-36]	@ 0xffffffdc
    4844:	e51b3078 	ldr	r3, [fp, #-120]	@ 0xffffff88
    4848:	e5933018 	ldr	r3, [r3, #24]
    484c:	e50b3028 	str	r3, [fp, #-40]	@ 0xffffffd8
    4850:	e51b3078 	ldr	r3, [fp, #-120]	@ 0xffffff88
    4854:	e593301c 	ldr	r3, [r3, #28]
    4858:	e50b302c 	str	r3, [fp, #-44]	@ 0xffffffd4
    485c:	e3a03000 	mov	r3, #0
    4860:	e50b3044 	str	r3, [fp, #-68]	@ 0xffffffbc
    4864:	e3a03000 	mov	r3, #0
    4868:	e50b3048 	str	r3, [fp, #-72]	@ 0xffffffb8
    486c:	e3a03000 	mov	r3, #0
    4870:	e50b304c 	str	r3, [fp, #-76]	@ 0xffffffb4
    4874:	e3a03000 	mov	r3, #0
    4878:	e50b3050 	str	r3, [fp, #-80]	@ 0xffffffb0
    487c:	e24b3048 	sub	r3, fp, #72	@ 0x48
    4880:	e24b1044 	sub	r1, fp, #68	@ 0x44
    4884:	e1a02003 	mov	r2, r3
    4888:	e51b0024 	ldr	r0, [fp, #-36]	@ 0xffffffdc
    488c:	ebfff7f2 	bl	285c <cra_state_read_context>
    4890:	e50b0030 	str	r0, [fp, #-48]	@ 0xffffffd0
    4894:	e24b3050 	sub	r3, fp, #80	@ 0x50
    4898:	e24b104c 	sub	r1, fp, #76	@ 0x4c
    489c:	e1a02003 	mov	r2, r3
    48a0:	e51b0024 	ldr	r0, [fp, #-36]	@ 0xffffffdc
    48a4:	ebfff8d1 	bl	2bf0 <cra_state_read_route_slot>
    48a8:	e50b0034 	str	r0, [fp, #-52]	@ 0xffffffcc
    48ac:	e51b3044 	ldr	r3, [fp, #-68]	@ 0xffffffbc
    48b0:	e1a02fc3 	asr	r2, r3, #31
    48b4:	e50b308c 	str	r3, [fp, #-140]	@ 0xffffff74
    48b8:	e50b2088 	str	r2, [fp, #-136]	@ 0xffffff78
    48bc:	e51b304c 	ldr	r3, [fp, #-76]	@ 0xffffffb4
    48c0:	e1a02fc3 	asr	r2, r3, #31
    48c4:	e50b3084 	str	r3, [fp, #-132]	@ 0xffffff7c
    48c8:	e50b2080 	str	r2, [fp, #-128]	@ 0xffffff80
    48cc:	e14b08dc 	ldrd	r0, [fp, #-140]	@ 0xffffff74
    48d0:	e1a02001 	mov	r2, r1
    48d4:	e51b3084 	ldr	r3, [fp, #-132]	@ 0xffffff7c
    48d8:	e0020293 	mul	r2, r3, r2
    48dc:	e51b3080 	ldr	r3, [fp, #-128]	@ 0xffffff80
    48e0:	e1a0c000 	mov	ip, r0
    48e4:	e003039c 	mul	r3, ip, r3
    48e8:	e0823003 	add	r3, r2, r3
    48ec:	e1a01000 	mov	r1, r0
    48f0:	e51b0084 	ldr	r0, [fp, #-132]	@ 0xffffff7c
    48f4:	e0826091 	umull	r6, r2, r1, r0
    48f8:	e1a07002 	mov	r7, r2
    48fc:	e0833007 	add	r3, r3, r7
    4900:	e1a07003 	mov	r7, r3
    4904:	e3a02000 	mov	r2, #0
    4908:	e3a03000 	mov	r3, #0
    490c:	e1a027a6 	lsr	r2, r6, #15
    4910:	e1822887 	orr	r2, r2, r7, lsl #17
    4914:	e1a037c7 	asr	r3, r7, #15
    4918:	e1a03002 	mov	r3, r2
    491c:	e1a02fc3 	asr	r2, r3, #31
    4920:	e50b3094 	str	r3, [fp, #-148]	@ 0xffffff6c
    4924:	e50b2090 	str	r2, [fp, #-144]	@ 0xffffff70
    4928:	e51b3028 	ldr	r3, [fp, #-40]	@ 0xffffffd8
    492c:	e1a02fc3 	asr	r2, r3, #31
    4930:	e1a08003 	mov	r8, r3
    4934:	e1a09002 	mov	r9, r2
    4938:	e14b09d4 	ldrd	r0, [fp, #-148]	@ 0xffffff6c
    493c:	e1a02001 	mov	r2, r1
    4940:	e0020298 	mul	r2, r8, r2
    4944:	e1a03000 	mov	r3, r0
    4948:	e0030399 	mul	r3, r9, r3
    494c:	e0823003 	add	r3, r2, r3
    4950:	e1a01000 	mov	r1, r0
    4954:	e0824891 	umull	r4, r2, r1, r8
    4958:	e1a05002 	mov	r5, r2
    495c:	e0833005 	add	r3, r3, r5
    4960:	e1a05003 	mov	r5, r3
    4964:	e3a02000 	mov	r2, #0
    4968:	e3a03000 	mov	r3, #0
    496c:	e1a027a4 	lsr	r2, r4, #15
    4970:	e1822885 	orr	r2, r2, r5, lsl #17
    4974:	e1a037c5 	asr	r3, r5, #15
    4978:	e1a03002 	mov	r3, r2
    497c:	e50b3038 	str	r3, [fp, #-56]	@ 0xffffffc8
    4980:	e59f3148 	ldr	r3, [pc, #328]	@ 4ad0 <_handle_schedule_keyed_route_context_pending+0x2a8>
    4984:	e5933000 	ldr	r3, [r3]
    4988:	e51b202c 	ldr	r2, [fp, #-44]	@ 0xffffffd4
    498c:	e0823003 	add	r3, r2, r3
    4990:	e50b303c 	str	r3, [fp, #-60]	@ 0xffffffc4
    4994:	e51b0038 	ldr	r0, [fp, #-56]	@ 0xffffffc8
    4998:	ebfff997 	bl	2ffc <cra_state_predict_readout>
    499c:	e50b0040 	str	r0, [fp, #-64]	@ 0xffffffc0
    49a0:	e3e03000 	mvn	r3, #0
    49a4:	e50b3020 	str	r3, [fp, #-32]	@ 0xffffffe0
    49a8:	e51b3030 	ldr	r3, [fp, #-48]	@ 0xffffffd0
    49ac:	e3530000 	cmp	r3, #0
    49b0:	1a00000a 	bne	49e0 <_handle_schedule_keyed_route_context_pending+0x1b8>
    49b4:	e51b3034 	ldr	r3, [fp, #-52]	@ 0xffffffcc
    49b8:	e3530000 	cmp	r3, #0
    49bc:	1a000007 	bne	49e0 <_handle_schedule_keyed_route_context_pending+0x1b8>
    49c0:	e51b1040 	ldr	r1, [fp, #-64]	@ 0xffffffc0
    49c4:	e51b0038 	ldr	r0, [fp, #-56]	@ 0xffffffc8
    49c8:	ebfff9ad 	bl	3084 <cra_state_record_decision>
    49cc:	e51b203c 	ldr	r2, [fp, #-60]	@ 0xffffffc4
    49d0:	e51b1040 	ldr	r1, [fp, #-64]	@ 0xffffffc0
    49d4:	e51b0038 	ldr	r0, [fp, #-56]	@ 0xffffffc8
    49d8:	ebfffac6 	bl	34f8 <cra_state_schedule_pending_horizon>
    49dc:	e50b0020 	str	r0, [fp, #-32]	@ 0xffffffe0
    49e0:	e3a03013 	mov	r3, #19
    49e4:	e54b3074 	strb	r3, [fp, #-116]	@ 0xffffff8c
    49e8:	e51b3020 	ldr	r3, [fp, #-32]	@ 0xffffffe0
    49ec:	e3530000 	cmp	r3, #0
    49f0:	13a03001 	movne	r3, #1
    49f4:	03a03000 	moveq	r3, #0
    49f8:	e20330ff 	and	r3, r3, #255	@ 0xff
    49fc:	e54b3073 	strb	r3, [fp, #-115]	@ 0xffffff8d
    4a00:	e24b3074 	sub	r3, fp, #116	@ 0x74
    4a04:	e2833002 	add	r3, r3, #2
    4a08:	e51b1040 	ldr	r1, [fp, #-64]	@ 0xffffffc0
    4a0c:	e1a00003 	mov	r0, r3
    4a10:	ebfffb9a 	bl	3880 <_write_s32>
    4a14:	e24b3074 	sub	r3, fp, #116	@ 0x74
    4a18:	e2833006 	add	r3, r3, #6
    4a1c:	e51b103c 	ldr	r1, [fp, #-60]	@ 0xffffffc4
    4a20:	e1a00003 	mov	r0, r3
    4a24:	ebfffb76 	bl	3804 <_write_u32>
    4a28:	e24b3074 	sub	r3, fp, #116	@ 0x74
    4a2c:	e283300a 	add	r3, r3, #10
    4a30:	e51b1038 	ldr	r1, [fp, #-56]	@ 0xffffffc8
    4a34:	e1a00003 	mov	r0, r3
    4a38:	ebfffb90 	bl	3880 <_write_s32>
    4a3c:	e51b2044 	ldr	r2, [fp, #-68]	@ 0xffffffbc
    4a40:	e24b3074 	sub	r3, fp, #116	@ 0x74
    4a44:	e283300e 	add	r3, r3, #14
    4a48:	e1a01002 	mov	r1, r2
    4a4c:	e1a00003 	mov	r0, r3
    4a50:	ebfffb8a 	bl	3880 <_write_s32>
    4a54:	e51b2048 	ldr	r2, [fp, #-72]	@ 0xffffffb8
    4a58:	e24b3074 	sub	r3, fp, #116	@ 0x74
    4a5c:	e2833012 	add	r3, r3, #18
    4a60:	e1a01002 	mov	r1, r2
    4a64:	e1a00003 	mov	r0, r3
    4a68:	ebfffb84 	bl	3880 <_write_s32>
    4a6c:	e51b204c 	ldr	r2, [fp, #-76]	@ 0xffffffb4
    4a70:	e24b3074 	sub	r3, fp, #116	@ 0x74
    4a74:	e2833016 	add	r3, r3, #22
    4a78:	e1a01002 	mov	r1, r2
    4a7c:	e1a00003 	mov	r0, r3
    4a80:	ebfffb7e 	bl	3880 <_write_s32>
    4a84:	e51b2050 	ldr	r2, [fp, #-80]	@ 0xffffffb0
    4a88:	e24b3074 	sub	r3, fp, #116	@ 0x74
    4a8c:	e283301a 	add	r3, r3, #26
    4a90:	e1a01002 	mov	r1, r2
    4a94:	e1a00003 	mov	r0, r3
    4a98:	ebfffb78 	bl	3880 <_write_s32>
    4a9c:	e24b3074 	sub	r3, fp, #116	@ 0x74
    4aa0:	e283301e 	add	r3, r3, #30
    4aa4:	e51b1024 	ldr	r1, [fp, #-36]	@ 0xffffffdc
    4aa8:	e1a00003 	mov	r0, r3
    4aac:	ebfffb54 	bl	3804 <_write_u32>
    4ab0:	e24b3074 	sub	r3, fp, #116	@ 0x74
    4ab4:	e3a02022 	mov	r2, #34	@ 0x22
    4ab8:	e1a01003 	mov	r1, r3
    4abc:	e51b0078 	ldr	r0, [fp, #-120]	@ 0xffffff88
    4ac0:	eb000269 	bl	546c <sdp_send_reply>
    4ac4:	e1a00000 	nop			@ (mov r0, r0)
    4ac8:	e24bd01c 	sub	sp, fp, #28
    4acc:	e8bd8bf0 	pop	{r4, r5, r6, r7, r8, r9, fp, pc}
    4ad0:	00400010 	.word	0x00400010

00004ad4 <_handle_write_memory_slot>:
    4ad4:	e92d4800 	push	{fp, lr}
    4ad8:	e28db004 	add	fp, sp, #4
    4adc:	e24dd0a0 	sub	sp, sp, #160	@ 0xa0
    4ae0:	e50b00a0 	str	r0, [fp, #-160]	@ 0xffffff60
    4ae4:	e51b30a0 	ldr	r3, [fp, #-160]	@ 0xffffff60
    4ae8:	e5933014 	ldr	r3, [r3, #20]
    4aec:	e50b3008 	str	r3, [fp, #-8]
    4af0:	e51b30a0 	ldr	r3, [fp, #-160]	@ 0xffffff60
    4af4:	e5933018 	ldr	r3, [r3, #24]
    4af8:	e50b300c 	str	r3, [fp, #-12]
    4afc:	e51b30a0 	ldr	r3, [fp, #-160]	@ 0xffffff60
    4b00:	e593301c 	ldr	r3, [r3, #28]
    4b04:	e50b3010 	str	r3, [fp, #-16]
    4b08:	e59f3090 	ldr	r3, [pc, #144]	@ 4ba0 <_handle_write_memory_slot+0xcc>
    4b0c:	e5933000 	ldr	r3, [r3]
    4b10:	e51b2010 	ldr	r2, [fp, #-16]
    4b14:	e51b100c 	ldr	r1, [fp, #-12]
    4b18:	e51b0008 	ldr	r0, [fp, #-8]
    4b1c:	ebfff876 	bl	2cfc <cra_state_write_memory_slot>
    4b20:	e50b0014 	str	r0, [fp, #-20]	@ 0xffffffec
    4b24:	e24b3090 	sub	r3, fp, #144	@ 0x90
    4b28:	e1a00003 	mov	r0, r3
    4b2c:	ebfffb06 	bl	374c <cra_state_get_summary>
    4b30:	e3a03014 	mov	r3, #20
    4b34:	e54b309c 	strb	r3, [fp, #-156]	@ 0xffffff64
    4b38:	e51b3014 	ldr	r3, [fp, #-20]	@ 0xffffffec
    4b3c:	e3530000 	cmp	r3, #0
    4b40:	13a03001 	movne	r3, #1
    4b44:	03a03000 	moveq	r3, #0
    4b48:	e20330ff 	and	r3, r3, #255	@ 0xff
    4b4c:	e54b309b 	strb	r3, [fp, #-155]	@ 0xffffff65
    4b50:	e51b2044 	ldr	r2, [fp, #-68]	@ 0xffffffbc
    4b54:	e24b309c 	sub	r3, fp, #156	@ 0x9c
    4b58:	e2833002 	add	r3, r3, #2
    4b5c:	e1a01002 	mov	r1, r2
    4b60:	e1a00003 	mov	r0, r3
    4b64:	ebfffb26 	bl	3804 <_write_u32>
    4b68:	e51b2040 	ldr	r2, [fp, #-64]	@ 0xffffffc0
    4b6c:	e24b309c 	sub	r3, fp, #156	@ 0x9c
    4b70:	e2833006 	add	r3, r3, #6
    4b74:	e1a01002 	mov	r1, r2
    4b78:	e1a00003 	mov	r0, r3
    4b7c:	ebfffb20 	bl	3804 <_write_u32>
    4b80:	e24b309c 	sub	r3, fp, #156	@ 0x9c
    4b84:	e3a0200a 	mov	r2, #10
    4b88:	e1a01003 	mov	r1, r3
    4b8c:	e51b00a0 	ldr	r0, [fp, #-160]	@ 0xffffff60
    4b90:	eb000235 	bl	546c <sdp_send_reply>
    4b94:	e1a00000 	nop			@ (mov r0, r0)
    4b98:	e24bd004 	sub	sp, fp, #4
    4b9c:	e8bd8800 	pop	{fp, pc}
    4ba0:	00400010 	.word	0x00400010

00004ba4 <_handle_read_memory_slot>:
    4ba4:	e92d4800 	push	{fp, lr}
    4ba8:	e28db004 	add	fp, sp, #4
    4bac:	e24dd0a8 	sub	sp, sp, #168	@ 0xa8
    4bb0:	e50b00a8 	str	r0, [fp, #-168]	@ 0xffffff58
    4bb4:	e51b30a8 	ldr	r3, [fp, #-168]	@ 0xffffff58
    4bb8:	e5933014 	ldr	r3, [r3, #20]
    4bbc:	e50b3008 	str	r3, [fp, #-8]
    4bc0:	e3a03000 	mov	r3, #0
    4bc4:	e50b3010 	str	r3, [fp, #-16]
    4bc8:	e3a03000 	mov	r3, #0
    4bcc:	e50b3014 	str	r3, [fp, #-20]	@ 0xffffffec
    4bd0:	e24b2014 	sub	r2, fp, #20
    4bd4:	e24b3010 	sub	r3, fp, #16
    4bd8:	e1a01003 	mov	r1, r3
    4bdc:	e51b0008 	ldr	r0, [fp, #-8]
    4be0:	ebfff8b2 	bl	2eb0 <cra_state_read_memory_slot>
    4be4:	e50b000c 	str	r0, [fp, #-12]
    4be8:	e24b3090 	sub	r3, fp, #144	@ 0x90
    4bec:	e1a00003 	mov	r0, r3
    4bf0:	ebfffad5 	bl	374c <cra_state_get_summary>
    4bf4:	e3a03015 	mov	r3, #21
    4bf8:	e54b30a4 	strb	r3, [fp, #-164]	@ 0xffffff5c
    4bfc:	e51b300c 	ldr	r3, [fp, #-12]
    4c00:	e3530000 	cmp	r3, #0
    4c04:	13a03001 	movne	r3, #1
    4c08:	03a03000 	moveq	r3, #0
    4c0c:	e20330ff 	and	r3, r3, #255	@ 0xff
    4c10:	e54b30a3 	strb	r3, [fp, #-163]	@ 0xffffff5d
    4c14:	e51b2010 	ldr	r2, [fp, #-16]
    4c18:	e24b30a4 	sub	r3, fp, #164	@ 0xa4
    4c1c:	e2833002 	add	r3, r3, #2
    4c20:	e1a01002 	mov	r1, r2
    4c24:	e1a00003 	mov	r0, r3
    4c28:	ebfffb14 	bl	3880 <_write_s32>
    4c2c:	e51b2014 	ldr	r2, [fp, #-20]	@ 0xffffffec
    4c30:	e24b30a4 	sub	r3, fp, #164	@ 0xa4
    4c34:	e2833006 	add	r3, r3, #6
    4c38:	e1a01002 	mov	r1, r2
    4c3c:	e1a00003 	mov	r0, r3
    4c40:	ebfffb0e 	bl	3880 <_write_s32>
    4c44:	e51b203c 	ldr	r2, [fp, #-60]	@ 0xffffffc4
    4c48:	e24b30a4 	sub	r3, fp, #164	@ 0xa4
    4c4c:	e283300a 	add	r3, r3, #10
    4c50:	e1a01002 	mov	r1, r2
    4c54:	e1a00003 	mov	r0, r3
    4c58:	ebfffae9 	bl	3804 <_write_u32>
    4c5c:	e51b2038 	ldr	r2, [fp, #-56]	@ 0xffffffc8
    4c60:	e24b30a4 	sub	r3, fp, #164	@ 0xa4
    4c64:	e283300e 	add	r3, r3, #14
    4c68:	e1a01002 	mov	r1, r2
    4c6c:	e1a00003 	mov	r0, r3
    4c70:	ebfffae3 	bl	3804 <_write_u32>
    4c74:	e24b30a4 	sub	r3, fp, #164	@ 0xa4
    4c78:	e3a02012 	mov	r2, #18
    4c7c:	e1a01003 	mov	r1, r3
    4c80:	e51b00a8 	ldr	r0, [fp, #-168]	@ 0xffffff58
    4c84:	eb0001f8 	bl	546c <sdp_send_reply>
    4c88:	e1a00000 	nop			@ (mov r0, r0)
    4c8c:	e24bd004 	sub	sp, fp, #4
    4c90:	e8bd8800 	pop	{fp, pc}

00004c94 <_handle_schedule_memory_route_context_pending>:
    4c94:	e92d4bf0 	push	{r4, r5, r6, r7, r8, r9, fp, lr}
    4c98:	e28db01c 	add	fp, sp, #28
    4c9c:	e24dd0a8 	sub	sp, sp, #168	@ 0xa8
    4ca0:	e50b0090 	str	r0, [fp, #-144]	@ 0xffffff70
    4ca4:	e51b3090 	ldr	r3, [fp, #-144]	@ 0xffffff70
    4ca8:	e5933014 	ldr	r3, [r3, #20]
    4cac:	e50b3024 	str	r3, [fp, #-36]	@ 0xffffffdc
    4cb0:	e51b3090 	ldr	r3, [fp, #-144]	@ 0xffffff70
    4cb4:	e5933018 	ldr	r3, [r3, #24]
    4cb8:	e50b3028 	str	r3, [fp, #-40]	@ 0xffffffd8
    4cbc:	e51b3090 	ldr	r3, [fp, #-144]	@ 0xffffff70
    4cc0:	e593301c 	ldr	r3, [r3, #28]
    4cc4:	e50b302c 	str	r3, [fp, #-44]	@ 0xffffffd4
    4cc8:	e3a03000 	mov	r3, #0
    4ccc:	e50b3048 	str	r3, [fp, #-72]	@ 0xffffffb8
    4cd0:	e3a03000 	mov	r3, #0
    4cd4:	e50b304c 	str	r3, [fp, #-76]	@ 0xffffffb4
    4cd8:	e3a03000 	mov	r3, #0
    4cdc:	e50b3050 	str	r3, [fp, #-80]	@ 0xffffffb0
    4ce0:	e3a03000 	mov	r3, #0
    4ce4:	e50b3054 	str	r3, [fp, #-84]	@ 0xffffffac
    4ce8:	e3a03000 	mov	r3, #0
    4cec:	e50b3058 	str	r3, [fp, #-88]	@ 0xffffffa8
    4cf0:	e3a03000 	mov	r3, #0
    4cf4:	e50b305c 	str	r3, [fp, #-92]	@ 0xffffffa4
    4cf8:	e24b204c 	sub	r2, fp, #76	@ 0x4c
    4cfc:	e24b3048 	sub	r3, fp, #72	@ 0x48
    4d00:	e1a01003 	mov	r1, r3
    4d04:	e51b0024 	ldr	r0, [fp, #-36]	@ 0xffffffdc
    4d08:	ebfff6d3 	bl	285c <cra_state_read_context>
    4d0c:	e50b0030 	str	r0, [fp, #-48]	@ 0xffffffd0
    4d10:	e24b2054 	sub	r2, fp, #84	@ 0x54
    4d14:	e24b3050 	sub	r3, fp, #80	@ 0x50
    4d18:	e1a01003 	mov	r1, r3
    4d1c:	e51b0024 	ldr	r0, [fp, #-36]	@ 0xffffffdc
    4d20:	ebfff7b2 	bl	2bf0 <cra_state_read_route_slot>
    4d24:	e50b0034 	str	r0, [fp, #-52]	@ 0xffffffcc
    4d28:	e24b205c 	sub	r2, fp, #92	@ 0x5c
    4d2c:	e24b3058 	sub	r3, fp, #88	@ 0x58
    4d30:	e1a01003 	mov	r1, r3
    4d34:	e51b0024 	ldr	r0, [fp, #-36]	@ 0xffffffdc
    4d38:	ebfff85c 	bl	2eb0 <cra_state_read_memory_slot>
    4d3c:	e50b0038 	str	r0, [fp, #-56]	@ 0xffffffc8
    4d40:	e51b3048 	ldr	r3, [fp, #-72]	@ 0xffffffb8
    4d44:	e1a02fc3 	asr	r2, r3, #31
    4d48:	e50b30a4 	str	r3, [fp, #-164]	@ 0xffffff5c
    4d4c:	e50b20a0 	str	r2, [fp, #-160]	@ 0xffffff60
    4d50:	e51b3050 	ldr	r3, [fp, #-80]	@ 0xffffffb0
    4d54:	e1a02fc3 	asr	r2, r3, #31
    4d58:	e50b309c 	str	r3, [fp, #-156]	@ 0xffffff64
    4d5c:	e50b2098 	str	r2, [fp, #-152]	@ 0xffffff68
    4d60:	e14b0ad4 	ldrd	r0, [fp, #-164]	@ 0xffffff5c
    4d64:	e1a02001 	mov	r2, r1
    4d68:	e51b309c 	ldr	r3, [fp, #-156]	@ 0xffffff64
    4d6c:	e0020293 	mul	r2, r3, r2
    4d70:	e51b3098 	ldr	r3, [fp, #-152]	@ 0xffffff68
    4d74:	e1a0c000 	mov	ip, r0
    4d78:	e003039c 	mul	r3, ip, r3
    4d7c:	e0823003 	add	r3, r2, r3
    4d80:	e1a01000 	mov	r1, r0
    4d84:	e51b009c 	ldr	r0, [fp, #-156]	@ 0xffffff64
    4d88:	e0824091 	umull	r4, r2, r1, r0
    4d8c:	e1a05002 	mov	r5, r2
    4d90:	e0833005 	add	r3, r3, r5
    4d94:	e1a05003 	mov	r5, r3
    4d98:	e3a02000 	mov	r2, #0
    4d9c:	e3a03000 	mov	r3, #0
    4da0:	e1a027a4 	lsr	r2, r4, #15
    4da4:	e1822885 	orr	r2, r2, r5, lsl #17
    4da8:	e1a037c5 	asr	r3, r5, #15
    4dac:	e1a03002 	mov	r3, r2
    4db0:	e1a02fc3 	asr	r2, r3, #31
    4db4:	e50b30ac 	str	r3, [fp, #-172]	@ 0xffffff54
    4db8:	e50b20a8 	str	r2, [fp, #-168]	@ 0xffffff58
    4dbc:	e51b3058 	ldr	r3, [fp, #-88]	@ 0xffffffa8
    4dc0:	e1a02fc3 	asr	r2, r3, #31
    4dc4:	e50b30b4 	str	r3, [fp, #-180]	@ 0xffffff4c
    4dc8:	e50b20b0 	str	r2, [fp, #-176]	@ 0xffffff50
    4dcc:	e14b0adc 	ldrd	r0, [fp, #-172]	@ 0xffffff54
    4dd0:	e1a02001 	mov	r2, r1
    4dd4:	e14b4bd4 	ldrd	r4, [fp, #-180]	@ 0xffffff4c
    4dd8:	e1a03004 	mov	r3, r4
    4ddc:	e0020293 	mul	r2, r3, r2
    4de0:	e1a03005 	mov	r3, r5
    4de4:	e1a0c000 	mov	ip, r0
    4de8:	e003039c 	mul	r3, ip, r3
    4dec:	e0823003 	add	r3, r2, r3
    4df0:	e1a01000 	mov	r1, r0
    4df4:	e1a00004 	mov	r0, r4
    4df8:	e0828091 	umull	r8, r2, r1, r0
    4dfc:	e1a09002 	mov	r9, r2
    4e00:	e0833009 	add	r3, r3, r9
    4e04:	e1a09003 	mov	r9, r3
    4e08:	e3a02000 	mov	r2, #0
    4e0c:	e3a03000 	mov	r3, #0
    4e10:	e1a027a8 	lsr	r2, r8, #15
    4e14:	e1822889 	orr	r2, r2, r9, lsl #17
    4e18:	e1a037c9 	asr	r3, r9, #15
    4e1c:	e1a03002 	mov	r3, r2
    4e20:	e1a02fc3 	asr	r2, r3, #31
    4e24:	e50b30bc 	str	r3, [fp, #-188]	@ 0xffffff44
    4e28:	e50b20b8 	str	r2, [fp, #-184]	@ 0xffffff48
    4e2c:	e51b3028 	ldr	r3, [fp, #-40]	@ 0xffffffd8
    4e30:	e1a02fc3 	asr	r2, r3, #31
    4e34:	e50b30c4 	str	r3, [fp, #-196]	@ 0xffffff3c
    4e38:	e50b20c0 	str	r2, [fp, #-192]	@ 0xffffff40
    4e3c:	e14b0bdc 	ldrd	r0, [fp, #-188]	@ 0xffffff44
    4e40:	e1a02001 	mov	r2, r1
    4e44:	e14b4cd4 	ldrd	r4, [fp, #-196]	@ 0xffffff3c
    4e48:	e1a03004 	mov	r3, r4
    4e4c:	e0020293 	mul	r2, r3, r2
    4e50:	e1a03005 	mov	r3, r5
    4e54:	e1a0c000 	mov	ip, r0
    4e58:	e003039c 	mul	r3, ip, r3
    4e5c:	e0823003 	add	r3, r2, r3
    4e60:	e1a01000 	mov	r1, r0
    4e64:	e1a00004 	mov	r0, r4
    4e68:	e0826091 	umull	r6, r2, r1, r0
    4e6c:	e1a07002 	mov	r7, r2
    4e70:	e0833007 	add	r3, r3, r7
    4e74:	e1a07003 	mov	r7, r3
    4e78:	e3a02000 	mov	r2, #0
    4e7c:	e3a03000 	mov	r3, #0
    4e80:	e1a027a6 	lsr	r2, r6, #15
    4e84:	e1822887 	orr	r2, r2, r7, lsl #17
    4e88:	e1a037c7 	asr	r3, r7, #15
    4e8c:	e1a03002 	mov	r3, r2
    4e90:	e50b303c 	str	r3, [fp, #-60]	@ 0xffffffc4
    4e94:	e59f3184 	ldr	r3, [pc, #388]	@ 5020 <_handle_schedule_memory_route_context_pending+0x38c>
    4e98:	e5933000 	ldr	r3, [r3]
    4e9c:	e51b202c 	ldr	r2, [fp, #-44]	@ 0xffffffd4
    4ea0:	e0823003 	add	r3, r2, r3
    4ea4:	e50b3040 	str	r3, [fp, #-64]	@ 0xffffffc0
    4ea8:	e51b003c 	ldr	r0, [fp, #-60]	@ 0xffffffc4
    4eac:	ebfff852 	bl	2ffc <cra_state_predict_readout>
    4eb0:	e50b0044 	str	r0, [fp, #-68]	@ 0xffffffbc
    4eb4:	e3e03000 	mvn	r3, #0
    4eb8:	e50b3020 	str	r3, [fp, #-32]	@ 0xffffffe0
    4ebc:	e51b3030 	ldr	r3, [fp, #-48]	@ 0xffffffd0
    4ec0:	e3530000 	cmp	r3, #0
    4ec4:	1a00000d 	bne	4f00 <_handle_schedule_memory_route_context_pending+0x26c>
    4ec8:	e51b3034 	ldr	r3, [fp, #-52]	@ 0xffffffcc
    4ecc:	e3530000 	cmp	r3, #0
    4ed0:	1a00000a 	bne	4f00 <_handle_schedule_memory_route_context_pending+0x26c>
    4ed4:	e51b3038 	ldr	r3, [fp, #-56]	@ 0xffffffc8
    4ed8:	e3530000 	cmp	r3, #0
    4edc:	1a000007 	bne	4f00 <_handle_schedule_memory_route_context_pending+0x26c>
    4ee0:	e51b1044 	ldr	r1, [fp, #-68]	@ 0xffffffbc
    4ee4:	e51b003c 	ldr	r0, [fp, #-60]	@ 0xffffffc4
    4ee8:	ebfff865 	bl	3084 <cra_state_record_decision>
    4eec:	e51b2040 	ldr	r2, [fp, #-64]	@ 0xffffffc0
    4ef0:	e51b1044 	ldr	r1, [fp, #-68]	@ 0xffffffbc
    4ef4:	e51b003c 	ldr	r0, [fp, #-60]	@ 0xffffffc4
    4ef8:	ebfff97e 	bl	34f8 <cra_state_schedule_pending_horizon>
    4efc:	e50b0020 	str	r0, [fp, #-32]	@ 0xffffffe0
    4f00:	e3a03016 	mov	r3, #22
    4f04:	e54b3088 	strb	r3, [fp, #-136]	@ 0xffffff78
    4f08:	e51b3020 	ldr	r3, [fp, #-32]	@ 0xffffffe0
    4f0c:	e3530000 	cmp	r3, #0
    4f10:	13a03001 	movne	r3, #1
    4f14:	03a03000 	moveq	r3, #0
    4f18:	e20330ff 	and	r3, r3, #255	@ 0xff
    4f1c:	e54b3087 	strb	r3, [fp, #-135]	@ 0xffffff79
    4f20:	e24b3088 	sub	r3, fp, #136	@ 0x88
    4f24:	e2833002 	add	r3, r3, #2
    4f28:	e51b1044 	ldr	r1, [fp, #-68]	@ 0xffffffbc
    4f2c:	e1a00003 	mov	r0, r3
    4f30:	ebfffa52 	bl	3880 <_write_s32>
    4f34:	e24b3088 	sub	r3, fp, #136	@ 0x88
    4f38:	e2833006 	add	r3, r3, #6
    4f3c:	e51b1040 	ldr	r1, [fp, #-64]	@ 0xffffffc0
    4f40:	e1a00003 	mov	r0, r3
    4f44:	ebfffa2e 	bl	3804 <_write_u32>
    4f48:	e24b3088 	sub	r3, fp, #136	@ 0x88
    4f4c:	e283300a 	add	r3, r3, #10
    4f50:	e51b103c 	ldr	r1, [fp, #-60]	@ 0xffffffc4
    4f54:	e1a00003 	mov	r0, r3
    4f58:	ebfffa48 	bl	3880 <_write_s32>
    4f5c:	e51b2048 	ldr	r2, [fp, #-72]	@ 0xffffffb8
    4f60:	e24b3088 	sub	r3, fp, #136	@ 0x88
    4f64:	e283300e 	add	r3, r3, #14
    4f68:	e1a01002 	mov	r1, r2
    4f6c:	e1a00003 	mov	r0, r3
    4f70:	ebfffa42 	bl	3880 <_write_s32>
    4f74:	e51b204c 	ldr	r2, [fp, #-76]	@ 0xffffffb4
    4f78:	e24b3088 	sub	r3, fp, #136	@ 0x88
    4f7c:	e2833012 	add	r3, r3, #18
    4f80:	e1a01002 	mov	r1, r2
    4f84:	e1a00003 	mov	r0, r3
    4f88:	ebfffa3c 	bl	3880 <_write_s32>
    4f8c:	e51b2050 	ldr	r2, [fp, #-80]	@ 0xffffffb0
    4f90:	e24b3088 	sub	r3, fp, #136	@ 0x88
    4f94:	e2833016 	add	r3, r3, #22
    4f98:	e1a01002 	mov	r1, r2
    4f9c:	e1a00003 	mov	r0, r3
    4fa0:	ebfffa36 	bl	3880 <_write_s32>
    4fa4:	e51b2054 	ldr	r2, [fp, #-84]	@ 0xffffffac
    4fa8:	e24b3088 	sub	r3, fp, #136	@ 0x88
    4fac:	e283301a 	add	r3, r3, #26
    4fb0:	e1a01002 	mov	r1, r2
    4fb4:	e1a00003 	mov	r0, r3
    4fb8:	ebfffa30 	bl	3880 <_write_s32>
    4fbc:	e51b2058 	ldr	r2, [fp, #-88]	@ 0xffffffa8
    4fc0:	e24b3088 	sub	r3, fp, #136	@ 0x88
    4fc4:	e283301e 	add	r3, r3, #30
    4fc8:	e1a01002 	mov	r1, r2
    4fcc:	e1a00003 	mov	r0, r3
    4fd0:	ebfffa2a 	bl	3880 <_write_s32>
    4fd4:	e51b205c 	ldr	r2, [fp, #-92]	@ 0xffffffa4
    4fd8:	e24b3088 	sub	r3, fp, #136	@ 0x88
    4fdc:	e2833022 	add	r3, r3, #34	@ 0x22
    4fe0:	e1a01002 	mov	r1, r2
    4fe4:	e1a00003 	mov	r0, r3
    4fe8:	ebfffa24 	bl	3880 <_write_s32>
    4fec:	e24b3088 	sub	r3, fp, #136	@ 0x88
    4ff0:	e2833026 	add	r3, r3, #38	@ 0x26
    4ff4:	e51b1024 	ldr	r1, [fp, #-36]	@ 0xffffffdc
    4ff8:	e1a00003 	mov	r0, r3
    4ffc:	ebfffa00 	bl	3804 <_write_u32>
    5000:	e24b3088 	sub	r3, fp, #136	@ 0x88
    5004:	e3a0202a 	mov	r2, #42	@ 0x2a
    5008:	e1a01003 	mov	r1, r3
    500c:	e51b0090 	ldr	r0, [fp, #-144]	@ 0xffffff70
    5010:	eb000115 	bl	546c <sdp_send_reply>
    5014:	e1a00000 	nop			@ (mov r0, r0)
    5018:	e24bd01c 	sub	sp, fp, #28
    501c:	e8bd8bf0 	pop	{r4, r5, r6, r7, r8, r9, fp, pc}
    5020:	00400010 	.word	0x00400010

00005024 <host_if_init>:
    5024:	e52db004 	push	{fp}		@ (str fp, [sp, #-4]!)
    5028:	e28db000 	add	fp, sp, #0
    502c:	e1a00000 	nop			@ (mov r0, r0)
    5030:	e28bd000 	add	sp, fp, #0
    5034:	e49db004 	pop	{fp}		@ (ldr fp, [sp], #4)
    5038:	e12fff1e 	bx	lr

0000503c <sdp_rx_callback>:
    503c:	e92d4800 	push	{fp, lr}
    5040:	e28db004 	add	fp, sp, #4
    5044:	e24dd010 	sub	sp, sp, #16
    5048:	e50b0010 	str	r0, [fp, #-16]
    504c:	e50b1014 	str	r1, [fp, #-20]	@ 0xffffffec
    5050:	e51b3010 	ldr	r3, [fp, #-16]
    5054:	e50b3008 	str	r3, [fp, #-8]
    5058:	e51b3008 	ldr	r3, [fp, #-8]
    505c:	e1d331b0 	ldrh	r3, [r3, #16]
    5060:	e54b3009 	strb	r3, [fp, #-9]
    5064:	e55b3009 	ldrb	r3, [fp, #-9]
    5068:	e2433001 	sub	r3, r3, #1
    506c:	e3530015 	cmp	r3, #21
    5070:	979ff103 	ldrls	pc, [pc, r3, lsl #2]
    5074:	ea000057 	b	51d8 <sdp_rx_callback+0x19c>
    5078:	000050d0 	.word	0x000050d0
    507c:	000050dc 	.word	0x000050dc
    5080:	000050e8 	.word	0x000050e8
    5084:	000050f4 	.word	0x000050f4
    5088:	00005100 	.word	0x00005100
    508c:	0000510c 	.word	0x0000510c
    5090:	00005118 	.word	0x00005118
    5094:	00005124 	.word	0x00005124
    5098:	00005130 	.word	0x00005130
    509c:	0000513c 	.word	0x0000513c
    50a0:	00005148 	.word	0x00005148
    50a4:	00005154 	.word	0x00005154
    50a8:	00005160 	.word	0x00005160
    50ac:	0000516c 	.word	0x0000516c
    50b0:	00005178 	.word	0x00005178
    50b4:	00005184 	.word	0x00005184
    50b8:	00005190 	.word	0x00005190
    50bc:	0000519c 	.word	0x0000519c
    50c0:	000051a8 	.word	0x000051a8
    50c4:	000051b4 	.word	0x000051b4
    50c8:	000051c0 	.word	0x000051c0
    50cc:	000051cc 	.word	0x000051cc
    50d0:	e51b0008 	ldr	r0, [fp, #-8]
    50d4:	ebfff9f5 	bl	38b0 <_handle_birth>
    50d8:	ea000048 	b	5200 <sdp_rx_callback+0x1c4>
    50dc:	e51b0008 	ldr	r0, [fp, #-8]
    50e0:	ebfffa24 	bl	3978 <_handle_death>
    50e4:	ea000045 	b	5200 <sdp_rx_callback+0x1c4>
    50e8:	e51b0008 	ldr	r0, [fp, #-8]
    50ec:	ebfffa44 	bl	3a04 <_handle_dopamine>
    50f0:	ea000042 	b	5200 <sdp_rx_callback+0x1c4>
    50f4:	e51b0008 	ldr	r0, [fp, #-8]
    50f8:	ebfffa6a 	bl	3aa8 <_handle_read_spikes>
    50fc:	ea00003f 	b	5200 <sdp_rx_callback+0x1c4>
    5100:	e51b0008 	ldr	r0, [fp, #-8]
    5104:	ebfffa8a 	bl	3b34 <_handle_create_syn>
    5108:	ea00003c 	b	5200 <sdp_rx_callback+0x1c4>
    510c:	e51b0008 	ldr	r0, [fp, #-8]
    5110:	ebfffaaa 	bl	3bc0 <_handle_remove_syn>
    5114:	ea000039 	b	5200 <sdp_rx_callback+0x1c4>
    5118:	e51b0008 	ldr	r0, [fp, #-8]
    511c:	ebfffac5 	bl	3c38 <_handle_reset>
    5120:	ea000036 	b	5200 <sdp_rx_callback+0x1c4>
    5124:	e51b0008 	ldr	r0, [fp, #-8]
    5128:	ebfffade 	bl	3ca8 <_handle_read_state>
    512c:	ea000033 	b	5200 <sdp_rx_callback+0x1c4>
    5130:	e51b0008 	ldr	r0, [fp, #-8]
    5134:	ebfffaf1 	bl	3d00 <_handle_schedule_pending>
    5138:	ea000030 	b	5200 <sdp_rx_callback+0x1c4>
    513c:	e51b0008 	ldr	r0, [fp, #-8]
    5140:	ebfffb23 	bl	3dd4 <_handle_mature_pending>
    5144:	ea00002d 	b	5200 <sdp_rx_callback+0x1c4>
    5148:	e51b0008 	ldr	r0, [fp, #-8]
    514c:	ebfffb5e 	bl	3ecc <_handle_write_context>
    5150:	ea00002a 	b	5200 <sdp_rx_callback+0x1c4>
    5154:	e51b0008 	ldr	r0, [fp, #-8]
    5158:	ebfffb8f 	bl	3f9c <_handle_read_context>
    515c:	ea000027 	b	5200 <sdp_rx_callback+0x1c4>
    5160:	e51b0008 	ldr	r0, [fp, #-8]
    5164:	ebfffbc8 	bl	408c <_handle_schedule_context_pending>
    5168:	ea000024 	b	5200 <sdp_rx_callback+0x1c4>
    516c:	e51b0008 	ldr	r0, [fp, #-8]
    5170:	ebfffc31 	bl	423c <_handle_write_route>
    5174:	ea000021 	b	5200 <sdp_rx_callback+0x1c4>
    5178:	e51b0008 	ldr	r0, [fp, #-8]
    517c:	ebfffc5f 	bl	4300 <_handle_read_route>
    5180:	ea00001e 	b	5200 <sdp_rx_callback+0x1c4>
    5184:	e51b0008 	ldr	r0, [fp, #-8]
    5188:	ebfffc8f 	bl	43cc <_handle_schedule_routed_context_pending>
    518c:	ea00001b 	b	5200 <sdp_rx_callback+0x1c4>
    5190:	e51b0008 	ldr	r0, [fp, #-8]
    5194:	ebfffd33 	bl	4668 <_handle_write_route_slot>
    5198:	ea000018 	b	5200 <sdp_rx_callback+0x1c4>
    519c:	e51b0008 	ldr	r0, [fp, #-8]
    51a0:	ebfffd64 	bl	4738 <_handle_read_route_slot>
    51a4:	ea000015 	b	5200 <sdp_rx_callback+0x1c4>
    51a8:	e51b0008 	ldr	r0, [fp, #-8]
    51ac:	ebfffd9d 	bl	4828 <_handle_schedule_keyed_route_context_pending>
    51b0:	ea000012 	b	5200 <sdp_rx_callback+0x1c4>
    51b4:	e51b0008 	ldr	r0, [fp, #-8]
    51b8:	ebfffe45 	bl	4ad4 <_handle_write_memory_slot>
    51bc:	ea00000f 	b	5200 <sdp_rx_callback+0x1c4>
    51c0:	e51b0008 	ldr	r0, [fp, #-8]
    51c4:	ebfffe76 	bl	4ba4 <_handle_read_memory_slot>
    51c8:	ea00000c 	b	5200 <sdp_rx_callback+0x1c4>
    51cc:	e51b0008 	ldr	r0, [fp, #-8]
    51d0:	ebfffeaf 	bl	4c94 <_handle_schedule_memory_route_context_pending>
    51d4:	ea000009 	b	5200 <sdp_rx_callback+0x1c4>
    51d8:	e55b3009 	ldrb	r3, [fp, #-9]
    51dc:	e54b300c 	strb	r3, [fp, #-12]
    51e0:	e3e03000 	mvn	r3, #0
    51e4:	e54b300b 	strb	r3, [fp, #-11]
    51e8:	e24b300c 	sub	r3, fp, #12
    51ec:	e3a02002 	mov	r2, #2
    51f0:	e1a01003 	mov	r1, r3
    51f4:	e51b0008 	ldr	r0, [fp, #-8]
    51f8:	eb00009b 	bl	546c <sdp_send_reply>
    51fc:	e1a00000 	nop			@ (mov r0, r0)
    5200:	e51b0008 	ldr	r0, [fp, #-8]
    5204:	ebfff963 	bl	3798 <spin1_msg_free>
    5208:	e1a00000 	nop			@ (mov r0, r0)
    520c:	e24bd004 	sub	sp, fp, #4
    5210:	e8bd8800 	pop	{fp, pc}

00005214 <host_if_pack_state_summary>:
    5214:	e92d4810 	push	{r4, fp, lr}
    5218:	e28db008 	add	fp, sp, #8
    521c:	e24dd08c 	sub	sp, sp, #140	@ 0x8c
    5220:	e50b0090 	str	r0, [fp, #-144]	@ 0xffffff70
    5224:	e1a03001 	mov	r3, r1
    5228:	e54b3091 	strb	r3, [fp, #-145]	@ 0xffffff6f
    522c:	e3a03049 	mov	r3, #73	@ 0x49
    5230:	e54b300d 	strb	r3, [fp, #-13]
    5234:	e51b3090 	ldr	r3, [fp, #-144]	@ 0xffffff70
    5238:	e3530000 	cmp	r3, #0
    523c:	0a000003 	beq	5250 <host_if_pack_state_summary+0x3c>
    5240:	e55b2091 	ldrb	r2, [fp, #-145]	@ 0xffffff6f
    5244:	e55b300d 	ldrb	r3, [fp, #-13]
    5248:	e1520003 	cmp	r2, r3
    524c:	2a000001 	bcs	5258 <host_if_pack_state_summary+0x44>
    5250:	e3a03000 	mov	r3, #0
    5254:	ea000080 	b	545c <host_if_pack_state_summary+0x248>
    5258:	e24b308c 	sub	r3, fp, #140	@ 0x8c
    525c:	e1a00003 	mov	r0, r3
    5260:	ebfff939 	bl	374c <cra_state_get_summary>
    5264:	e51b3090 	ldr	r3, [fp, #-144]	@ 0xffffff70
    5268:	e3a02008 	mov	r2, #8
    526c:	e5c32000 	strb	r2, [r3]
    5270:	e51b3090 	ldr	r3, [fp, #-144]	@ 0xffffff70
    5274:	e2833001 	add	r3, r3, #1
    5278:	e3a02000 	mov	r2, #0
    527c:	e5c32000 	strb	r2, [r3]
    5280:	e51b3090 	ldr	r3, [fp, #-144]	@ 0xffffff70
    5284:	e2833002 	add	r3, r3, #2
    5288:	e3a02001 	mov	r2, #1
    528c:	e5c32000 	strb	r2, [r3]
    5290:	e51b3090 	ldr	r3, [fp, #-144]	@ 0xffffff70
    5294:	e2833003 	add	r3, r3, #3
    5298:	e3a02000 	mov	r2, #0
    529c:	e5c32000 	strb	r2, [r3]
    52a0:	e51b3090 	ldr	r3, [fp, #-144]	@ 0xffffff70
    52a4:	e2833004 	add	r3, r3, #4
    52a8:	e59f21b8 	ldr	r2, [pc, #440]	@ 5468 <host_if_pack_state_summary+0x254>
    52ac:	e5922000 	ldr	r2, [r2]
    52b0:	e1a01002 	mov	r1, r2
    52b4:	e1a00003 	mov	r0, r3
    52b8:	ebfff951 	bl	3804 <_write_u32>
    52bc:	e51b3090 	ldr	r3, [fp, #-144]	@ 0xffffff70
    52c0:	e2834008 	add	r4, r3, #8
    52c4:	ebffedf3 	bl	a98 <neuron_count>
    52c8:	e1a03000 	mov	r3, r0
    52cc:	e1a01003 	mov	r1, r3
    52d0:	e1a00004 	mov	r0, r4
    52d4:	ebfff94a 	bl	3804 <_write_u32>
    52d8:	e51b3090 	ldr	r3, [fp, #-144]	@ 0xffffff70
    52dc:	e283400c 	add	r4, r3, #12
    52e0:	ebfff19d 	bl	195c <synapse_count>
    52e4:	e1a03000 	mov	r3, r0
    52e8:	e1a01003 	mov	r1, r3
    52ec:	e1a00004 	mov	r0, r4
    52f0:	ebfff943 	bl	3804 <_write_u32>
    52f4:	e51b3090 	ldr	r3, [fp, #-144]	@ 0xffffff70
    52f8:	e2834010 	add	r4, r3, #16
    52fc:	ebfff19f 	bl	1980 <synapse_active_trace_count>
    5300:	e1a03000 	mov	r3, r0
    5304:	e1a01003 	mov	r1, r3
    5308:	e1a00004 	mov	r0, r4
    530c:	ebfff93c 	bl	3804 <_write_u32>
    5310:	e51b3090 	ldr	r3, [fp, #-144]	@ 0xffffff70
    5314:	e2833014 	add	r3, r3, #20
    5318:	e51b208c 	ldr	r2, [fp, #-140]	@ 0xffffff74
    531c:	e1a01002 	mov	r1, r2
    5320:	e1a00003 	mov	r0, r3
    5324:	ebfff936 	bl	3804 <_write_u32>
    5328:	e51b3090 	ldr	r3, [fp, #-144]	@ 0xffffff70
    532c:	e2833018 	add	r3, r3, #24
    5330:	e51b2088 	ldr	r2, [fp, #-136]	@ 0xffffff78
    5334:	e1a01002 	mov	r1, r2
    5338:	e1a00003 	mov	r0, r3
    533c:	ebfff930 	bl	3804 <_write_u32>
    5340:	e51b3090 	ldr	r3, [fp, #-144]	@ 0xffffff70
    5344:	e283301c 	add	r3, r3, #28
    5348:	e51b2084 	ldr	r2, [fp, #-132]	@ 0xffffff7c
    534c:	e1a01002 	mov	r1, r2
    5350:	e1a00003 	mov	r0, r3
    5354:	ebfff92a 	bl	3804 <_write_u32>
    5358:	e51b3090 	ldr	r3, [fp, #-144]	@ 0xffffff70
    535c:	e2833020 	add	r3, r3, #32
    5360:	e51b2080 	ldr	r2, [fp, #-128]	@ 0xffffff80
    5364:	e1a01002 	mov	r1, r2
    5368:	e1a00003 	mov	r0, r3
    536c:	ebfff924 	bl	3804 <_write_u32>
    5370:	e51b3090 	ldr	r3, [fp, #-144]	@ 0xffffff70
    5374:	e2833024 	add	r3, r3, #36	@ 0x24
    5378:	e51b207c 	ldr	r2, [fp, #-124]	@ 0xffffff84
    537c:	e1a01002 	mov	r1, r2
    5380:	e1a00003 	mov	r0, r3
    5384:	ebfff91e 	bl	3804 <_write_u32>
    5388:	e51b3090 	ldr	r3, [fp, #-144]	@ 0xffffff70
    538c:	e2833028 	add	r3, r3, #40	@ 0x28
    5390:	e51b2078 	ldr	r2, [fp, #-120]	@ 0xffffff88
    5394:	e1a01002 	mov	r1, r2
    5398:	e1a00003 	mov	r0, r3
    539c:	ebfff918 	bl	3804 <_write_u32>
    53a0:	e51b3090 	ldr	r3, [fp, #-144]	@ 0xffffff70
    53a4:	e283302c 	add	r3, r3, #44	@ 0x2c
    53a8:	e51b2074 	ldr	r2, [fp, #-116]	@ 0xffffff8c
    53ac:	e1a01002 	mov	r1, r2
    53b0:	e1a00003 	mov	r0, r3
    53b4:	ebfff912 	bl	3804 <_write_u32>
    53b8:	e51b3090 	ldr	r3, [fp, #-144]	@ 0xffffff70
    53bc:	e2833030 	add	r3, r3, #48	@ 0x30
    53c0:	e51b2070 	ldr	r2, [fp, #-112]	@ 0xffffff90
    53c4:	e1a01002 	mov	r1, r2
    53c8:	e1a00003 	mov	r0, r3
    53cc:	ebfff90c 	bl	3804 <_write_u32>
    53d0:	e51b3090 	ldr	r3, [fp, #-144]	@ 0xffffff70
    53d4:	e2833034 	add	r3, r3, #52	@ 0x34
    53d8:	e51b206c 	ldr	r2, [fp, #-108]	@ 0xffffff94
    53dc:	e1a01002 	mov	r1, r2
    53e0:	e1a00003 	mov	r0, r3
    53e4:	ebfff906 	bl	3804 <_write_u32>
    53e8:	e51b3090 	ldr	r3, [fp, #-144]	@ 0xffffff70
    53ec:	e2833038 	add	r3, r3, #56	@ 0x38
    53f0:	e51b2068 	ldr	r2, [fp, #-104]	@ 0xffffff98
    53f4:	e1a01002 	mov	r1, r2
    53f8:	e1a00003 	mov	r0, r3
    53fc:	ebfff900 	bl	3804 <_write_u32>
    5400:	e51b3090 	ldr	r3, [fp, #-144]	@ 0xffffff70
    5404:	e283303c 	add	r3, r3, #60	@ 0x3c
    5408:	e51b2064 	ldr	r2, [fp, #-100]	@ 0xffffff9c
    540c:	e1a01002 	mov	r1, r2
    5410:	e1a00003 	mov	r0, r3
    5414:	ebfff8fa 	bl	3804 <_write_u32>
    5418:	e51b3090 	ldr	r3, [fp, #-144]	@ 0xffffff70
    541c:	e2833040 	add	r3, r3, #64	@ 0x40
    5420:	e51b202c 	ldr	r2, [fp, #-44]	@ 0xffffffd4
    5424:	e1a01002 	mov	r1, r2
    5428:	e1a00003 	mov	r0, r3
    542c:	ebfff913 	bl	3880 <_write_s32>
    5430:	e51b3090 	ldr	r3, [fp, #-144]	@ 0xffffff70
    5434:	e2833044 	add	r3, r3, #68	@ 0x44
    5438:	e51b2028 	ldr	r2, [fp, #-40]	@ 0xffffffd8
    543c:	e1a01002 	mov	r1, r2
    5440:	e1a00003 	mov	r0, r3
    5444:	ebfff90d 	bl	3880 <_write_s32>
    5448:	e51b3090 	ldr	r3, [fp, #-144]	@ 0xffffff70
    544c:	e2833048 	add	r3, r3, #72	@ 0x48
    5450:	e3a02000 	mov	r2, #0
    5454:	e5c32000 	strb	r2, [r3]
    5458:	e55b300d 	ldrb	r3, [fp, #-13]
    545c:	e1a00003 	mov	r0, r3
    5460:	e24bd008 	sub	sp, fp, #8
    5464:	e8bd8810 	pop	{r4, fp, pc}
    5468:	00400010 	.word	0x00400010

0000546c <sdp_send_reply>:
    546c:	e92d4800 	push	{fp, lr}
    5470:	e28db004 	add	fp, sp, #4
    5474:	e24dd018 	sub	sp, sp, #24
    5478:	e50b0010 	str	r0, [fp, #-16]
    547c:	e50b1014 	str	r1, [fp, #-20]	@ 0xffffffec
    5480:	e1a03002 	mov	r3, r2
    5484:	e54b3015 	strb	r3, [fp, #-21]	@ 0xffffffeb
    5488:	ebfff8cb 	bl	37bc <spin1_msg_get>
    548c:	e50b0008 	str	r0, [fp, #-8]
    5490:	e51b3008 	ldr	r3, [fp, #-8]
    5494:	e3530000 	cmp	r3, #0
    5498:	0a000065 	beq	5634 <sdp_send_reply+0x1c8>
    549c:	e51b3010 	ldr	r3, [fp, #-16]
    54a0:	e5d3200b 	ldrb	r2, [r3, #11]
    54a4:	e51b3008 	ldr	r3, [fp, #-8]
    54a8:	e5c3200a 	strb	r2, [r3, #10]
    54ac:	e51b3010 	ldr	r3, [fp, #-16]
    54b0:	e5d3200a 	ldrb	r2, [r3, #10]
    54b4:	e51b3008 	ldr	r3, [fp, #-8]
    54b8:	e5c3200b 	strb	r2, [r3, #11]
    54bc:	e51b3010 	ldr	r3, [fp, #-16]
    54c0:	e1d320be 	ldrh	r2, [r3, #14]
    54c4:	e51b3008 	ldr	r3, [fp, #-8]
    54c8:	e1c320bc 	strh	r2, [r3, #12]
    54cc:	e51b3010 	ldr	r3, [fp, #-16]
    54d0:	e1d320bc 	ldrh	r2, [r3, #12]
    54d4:	e51b3008 	ldr	r3, [fp, #-8]
    54d8:	e1c320be 	strh	r2, [r3, #14]
    54dc:	e51b3008 	ldr	r3, [fp, #-8]
    54e0:	e3a02007 	mov	r2, #7
    54e4:	e5c32008 	strb	r2, [r3, #8]
    54e8:	e51b3010 	ldr	r3, [fp, #-16]
    54ec:	e5d32009 	ldrb	r2, [r3, #9]
    54f0:	e51b3008 	ldr	r3, [fp, #-8]
    54f4:	e5c32009 	strb	r2, [r3, #9]
    54f8:	e51b3010 	ldr	r3, [fp, #-16]
    54fc:	e1d321b2 	ldrh	r2, [r3, #18]
    5500:	e51b3008 	ldr	r3, [fp, #-8]
    5504:	e1c321b2 	strh	r2, [r3, #18]
    5508:	e51b3008 	ldr	r3, [fp, #-8]
    550c:	e3a02000 	mov	r2, #0
    5510:	e5832014 	str	r2, [r3, #20]
    5514:	e51b3008 	ldr	r3, [fp, #-8]
    5518:	e3a02000 	mov	r2, #0
    551c:	e5832018 	str	r2, [r3, #24]
    5520:	e51b3008 	ldr	r3, [fp, #-8]
    5524:	e3a02000 	mov	r2, #0
    5528:	e583201c 	str	r2, [r3, #28]
    552c:	e55b3015 	ldrb	r3, [fp, #-21]	@ 0xffffffeb
    5530:	e3530000 	cmp	r3, #0
    5534:	0a000002 	beq	5544 <sdp_send_reply+0xd8>
    5538:	e51b3014 	ldr	r3, [fp, #-20]	@ 0xffffffec
    553c:	e5d33000 	ldrb	r3, [r3]
    5540:	ea000000 	b	5548 <sdp_send_reply+0xdc>
    5544:	e3a03000 	mov	r3, #0
    5548:	e54b3009 	strb	r3, [fp, #-9]
    554c:	e55b3015 	ldrb	r3, [fp, #-21]	@ 0xffffffeb
    5550:	e3530001 	cmp	r3, #1
    5554:	9a000003 	bls	5568 <sdp_send_reply+0xfc>
    5558:	e51b3014 	ldr	r3, [fp, #-20]	@ 0xffffffec
    555c:	e2833001 	add	r3, r3, #1
    5560:	e5d33000 	ldrb	r3, [r3]
    5564:	ea000000 	b	556c <sdp_send_reply+0x100>
    5568:	e3a030ff 	mov	r3, #255	@ 0xff
    556c:	e54b300a 	strb	r3, [fp, #-10]
    5570:	e55b3015 	ldrb	r3, [fp, #-21]	@ 0xffffffeb
    5574:	e3530002 	cmp	r3, #2
    5578:	9a000003 	bls	558c <sdp_send_reply+0x120>
    557c:	e55b3015 	ldrb	r3, [fp, #-21]	@ 0xffffffeb
    5580:	e2433002 	sub	r3, r3, #2
    5584:	e20330ff 	and	r3, r3, #255	@ 0xff
    5588:	ea000000 	b	5590 <sdp_send_reply+0x124>
    558c:	e3a03000 	mov	r3, #0
    5590:	e54b300b 	strb	r3, [fp, #-11]
    5594:	e55b3009 	ldrb	r3, [fp, #-9]
    5598:	e1a03803 	lsl	r3, r3, #16
    559c:	e1a02843 	asr	r2, r3, #16
    55a0:	e55b300a 	ldrb	r3, [fp, #-10]
    55a4:	e1a03803 	lsl	r3, r3, #16
    55a8:	e1a03843 	asr	r3, r3, #16
    55ac:	e1a03403 	lsl	r3, r3, #8
    55b0:	e1a03803 	lsl	r3, r3, #16
    55b4:	e1a03843 	asr	r3, r3, #16
    55b8:	e1823003 	orr	r3, r2, r3
    55bc:	e1a03803 	lsl	r3, r3, #16
    55c0:	e1a03843 	asr	r3, r3, #16
    55c4:	e1a03803 	lsl	r3, r3, #16
    55c8:	e1a02823 	lsr	r2, r3, #16
    55cc:	e51b3008 	ldr	r3, [fp, #-8]
    55d0:	e1c321b0 	strh	r2, [r3, #16]
    55d4:	e55b300b 	ldrb	r3, [fp, #-11]
    55d8:	e1a03803 	lsl	r3, r3, #16
    55dc:	e1a03823 	lsr	r3, r3, #16
    55e0:	e2833018 	add	r3, r3, #24
    55e4:	e1a03803 	lsl	r3, r3, #16
    55e8:	e1a02823 	lsr	r2, r3, #16
    55ec:	e51b3008 	ldr	r3, [fp, #-8]
    55f0:	e1c320b4 	strh	r2, [r3, #4]
    55f4:	e55b300b 	ldrb	r3, [fp, #-11]
    55f8:	e3530000 	cmp	r3, #0
    55fc:	0a000006 	beq	561c <sdp_send_reply+0x1b0>
    5600:	e51b3008 	ldr	r3, [fp, #-8]
    5604:	e2830020 	add	r0, r3, #32
    5608:	e51b3014 	ldr	r3, [fp, #-20]	@ 0xffffffec
    560c:	e2833002 	add	r3, r3, #2
    5610:	e55b200b 	ldrb	r2, [fp, #-11]
    5614:	e1a01003 	mov	r1, r3
    5618:	ebffeafc 	bl	210 <sark_mem_cpy>
    561c:	e3a01001 	mov	r1, #1
    5620:	e51b0008 	ldr	r0, [fp, #-8]
    5624:	ebfff86a 	bl	37d4 <spin1_send_sdp_msg>
    5628:	e51b0008 	ldr	r0, [fp, #-8]
    562c:	ebfff859 	bl	3798 <spin1_msg_free>
    5630:	ea000000 	b	5638 <sdp_send_reply+0x1cc>
    5634:	e1a00000 	nop			@ (mov r0, r0)
    5638:	e24bd004 	sub	sp, fp, #4
    563c:	e8bd8800 	pop	{fp, pc}

00005640 <_find_route>:
    5640:	e52db004 	push	{fp}		@ (str fp, [sp, #-4]!)
    5644:	e28db000 	add	fp, sp, #0
    5648:	e24dd014 	sub	sp, sp, #20
    564c:	e50b0010 	str	r0, [fp, #-16]
    5650:	e59f3050 	ldr	r3, [pc, #80]	@ 56a8 <_find_route+0x68>
    5654:	e5933000 	ldr	r3, [r3]
    5658:	e50b3008 	str	r3, [fp, #-8]
    565c:	ea000009 	b	5688 <_find_route+0x48>
    5660:	e51b3008 	ldr	r3, [fp, #-8]
    5664:	e5933000 	ldr	r3, [r3]
    5668:	e51b2010 	ldr	r2, [fp, #-16]
    566c:	e1520003 	cmp	r2, r3
    5670:	1a000001 	bne	567c <_find_route+0x3c>
    5674:	e51b3008 	ldr	r3, [fp, #-8]
    5678:	ea000006 	b	5698 <_find_route+0x58>
    567c:	e51b3008 	ldr	r3, [fp, #-8]
    5680:	e5933008 	ldr	r3, [r3, #8]
    5684:	e50b3008 	str	r3, [fp, #-8]
    5688:	e51b3008 	ldr	r3, [fp, #-8]
    568c:	e3530000 	cmp	r3, #0
    5690:	1afffff2 	bne	5660 <_find_route+0x20>
    5694:	e3a03000 	mov	r3, #0
    5698:	e1a00003 	mov	r0, r3
    569c:	e28bd000 	add	sp, fp, #0
    56a0:	e49db004 	pop	{fp}		@ (ldr fp, [sp], #4)
    56a4:	e12fff1e 	bx	lr
    56a8:	00400aa0 	.word	0x00400aa0

000056ac <router_init>:
    56ac:	e92d4800 	push	{fp, lr}
    56b0:	e28db004 	add	fp, sp, #4
    56b4:	e59f3028 	ldr	r3, [pc, #40]	@ 56e4 <router_init+0x38>
    56b8:	e3a02000 	mov	r2, #0
    56bc:	e5832000 	str	r2, [r3]
    56c0:	e59f3020 	ldr	r3, [pc, #32]	@ 56e8 <router_init+0x3c>
    56c4:	e3a02000 	mov	r2, #0
    56c8:	e5832000 	str	r2, [r3]
    56cc:	ebffeb9e 	bl	54c <get_app_id>
    56d0:	e1a03000 	mov	r3, r0
    56d4:	e59f2010 	ldr	r2, [pc, #16]	@ 56ec <router_init+0x40>
    56d8:	e5823000 	str	r3, [r2]
    56dc:	e1a00000 	nop			@ (mov r0, r0)
    56e0:	e8bd8800 	pop	{fp, pc}
    56e4:	00400aa0 	.word	0x00400aa0
    56e8:	00400aa4 	.word	0x00400aa4
    56ec:	00400aa8 	.word	0x00400aa8

000056f0 <router_add_neuron>:
    56f0:	e92d4800 	push	{fp, lr}
    56f4:	e28db004 	add	fp, sp, #4
    56f8:	e24dd020 	sub	sp, sp, #32
    56fc:	e50b0020 	str	r0, [fp, #-32]	@ 0xffffffe0
    5700:	e51b0020 	ldr	r0, [fp, #-32]	@ 0xffffffe0
    5704:	ebffffcd 	bl	5640 <_find_route>
    5708:	e1a03000 	mov	r3, r0
    570c:	e3530000 	cmp	r3, #0
    5710:	0a000001 	beq	571c <router_add_neuron+0x2c>
    5714:	e3e03000 	mvn	r3, #0
    5718:	ea000043 	b	582c <router_add_neuron+0x13c>
    571c:	e59f3114 	ldr	r3, [pc, #276]	@ 5838 <router_add_neuron+0x148>
    5720:	e5933000 	ldr	r3, [r3]
    5724:	e1a02c03 	lsl	r2, r3, #24
    5728:	e51b3020 	ldr	r3, [fp, #-32]	@ 0xffffffe0
    572c:	e3c334ff 	bic	r3, r3, #-16777216	@ 0xff000000
    5730:	e1823003 	orr	r3, r2, r3
    5734:	e50b3008 	str	r3, [fp, #-8]
    5738:	e3e03000 	mvn	r3, #0
    573c:	e50b300c 	str	r3, [fp, #-12]
    5740:	fa000097 	blx	59a4 <sark_core_id>
    5744:	e1a03000 	mov	r3, r0
    5748:	e2833006 	add	r3, r3, #6
    574c:	e3a02001 	mov	r2, #1
    5750:	e1a03312 	lsl	r3, r2, r3
    5754:	e50b3010 	str	r3, [fp, #-16]
    5758:	e3a00001 	mov	r0, #1
    575c:	fa00032d 	blx	6418 <rtr_alloc>
    5760:	e50b0014 	str	r0, [fp, #-20]	@ 0xffffffec
    5764:	e51b3014 	ldr	r3, [fp, #-20]	@ 0xffffffec
    5768:	e3530000 	cmp	r3, #0
    576c:	1a000001 	bne	5778 <router_add_neuron+0x88>
    5770:	e3e03000 	mvn	r3, #0
    5774:	ea00002c 	b	582c <router_add_neuron+0x13c>
    5778:	e51b3010 	ldr	r3, [fp, #-16]
    577c:	e51b200c 	ldr	r2, [fp, #-12]
    5780:	e51b1008 	ldr	r1, [fp, #-8]
    5784:	e51b0014 	ldr	r0, [fp, #-20]	@ 0xffffffec
    5788:	fa000264 	blx	6120 <rtr_mc_set>
    578c:	e1a03000 	mov	r3, r0
    5790:	e3530000 	cmp	r3, #0
    5794:	1a000004 	bne	57ac <router_add_neuron+0xbc>
    5798:	e3a01001 	mov	r1, #1
    579c:	e51b0014 	ldr	r0, [fp, #-20]	@ 0xffffffec
    57a0:	fa00031f 	blx	6424 <rtr_free>
    57a4:	e3e03000 	mvn	r3, #0
    57a8:	ea00001f 	b	582c <router_add_neuron+0x13c>
    57ac:	e3a0100c 	mov	r1, #12
    57b0:	e3a00001 	mov	r0, #1
    57b4:	fa0002bc 	blx	62ac <sark_alloc>
    57b8:	e1a03000 	mov	r3, r0
    57bc:	e50b3018 	str	r3, [fp, #-24]	@ 0xffffffe8
    57c0:	e51b3018 	ldr	r3, [fp, #-24]	@ 0xffffffe8
    57c4:	e3530000 	cmp	r3, #0
    57c8:	1a000004 	bne	57e0 <router_add_neuron+0xf0>
    57cc:	e3a01001 	mov	r1, #1
    57d0:	e51b0014 	ldr	r0, [fp, #-20]	@ 0xffffffec
    57d4:	fa000312 	blx	6424 <rtr_free>
    57d8:	e3e03000 	mvn	r3, #0
    57dc:	ea000012 	b	582c <router_add_neuron+0x13c>
    57e0:	e51b3018 	ldr	r3, [fp, #-24]	@ 0xffffffe8
    57e4:	e51b2020 	ldr	r2, [fp, #-32]	@ 0xffffffe0
    57e8:	e5832000 	str	r2, [r3]
    57ec:	e51b3018 	ldr	r3, [fp, #-24]	@ 0xffffffe8
    57f0:	e51b2014 	ldr	r2, [fp, #-20]	@ 0xffffffec
    57f4:	e5832004 	str	r2, [r3, #4]
    57f8:	e59f303c 	ldr	r3, [pc, #60]	@ 583c <router_add_neuron+0x14c>
    57fc:	e5932000 	ldr	r2, [r3]
    5800:	e51b3018 	ldr	r3, [fp, #-24]	@ 0xffffffe8
    5804:	e5832008 	str	r2, [r3, #8]
    5808:	e59f202c 	ldr	r2, [pc, #44]	@ 583c <router_add_neuron+0x14c>
    580c:	e51b3018 	ldr	r3, [fp, #-24]	@ 0xffffffe8
    5810:	e5823000 	str	r3, [r2]
    5814:	e59f3024 	ldr	r3, [pc, #36]	@ 5840 <router_add_neuron+0x150>
    5818:	e5933000 	ldr	r3, [r3]
    581c:	e2833001 	add	r3, r3, #1
    5820:	e59f2018 	ldr	r2, [pc, #24]	@ 5840 <router_add_neuron+0x150>
    5824:	e5823000 	str	r3, [r2]
    5828:	e3a03000 	mov	r3, #0
    582c:	e1a00003 	mov	r0, r3
    5830:	e24bd004 	sub	sp, fp, #4
    5834:	e8bd8800 	pop	{fp, pc}
    5838:	00400aa8 	.word	0x00400aa8
    583c:	00400aa0 	.word	0x00400aa0
    5840:	00400aa4 	.word	0x00400aa4

00005844 <router_remove_neuron>:
    5844:	e92d4800 	push	{fp, lr}
    5848:	e28db004 	add	fp, sp, #4
    584c:	e24dd010 	sub	sp, sp, #16
    5850:	e50b0010 	str	r0, [fp, #-16]
    5854:	e59f3098 	ldr	r3, [pc, #152]	@ 58f4 <router_remove_neuron+0xb0>
    5858:	e50b3008 	str	r3, [fp, #-8]
    585c:	ea00001c 	b	58d4 <router_remove_neuron+0x90>
    5860:	e51b3008 	ldr	r3, [fp, #-8]
    5864:	e5933000 	ldr	r3, [r3]
    5868:	e50b300c 	str	r3, [fp, #-12]
    586c:	e51b300c 	ldr	r3, [fp, #-12]
    5870:	e5933000 	ldr	r3, [r3]
    5874:	e51b2010 	ldr	r2, [fp, #-16]
    5878:	e1520003 	cmp	r2, r3
    587c:	1a000011 	bne	58c8 <router_remove_neuron+0x84>
    5880:	e51b300c 	ldr	r3, [fp, #-12]
    5884:	e5932008 	ldr	r2, [r3, #8]
    5888:	e51b3008 	ldr	r3, [fp, #-8]
    588c:	e5832000 	str	r2, [r3]
    5890:	e51b300c 	ldr	r3, [fp, #-12]
    5894:	e5933004 	ldr	r3, [r3, #4]
    5898:	e3a01001 	mov	r1, #1
    589c:	e1a00003 	mov	r0, r3
    58a0:	fa0002df 	blx	6424 <rtr_free>
    58a4:	e51b000c 	ldr	r0, [fp, #-12]
    58a8:	fa0002ae 	blx	6368 <sark_free>
    58ac:	e59f3044 	ldr	r3, [pc, #68]	@ 58f8 <router_remove_neuron+0xb4>
    58b0:	e5933000 	ldr	r3, [r3]
    58b4:	e2433001 	sub	r3, r3, #1
    58b8:	e59f2038 	ldr	r2, [pc, #56]	@ 58f8 <router_remove_neuron+0xb4>
    58bc:	e5823000 	str	r3, [r2]
    58c0:	e3a03000 	mov	r3, #0
    58c4:	ea000007 	b	58e8 <router_remove_neuron+0xa4>
    58c8:	e51b300c 	ldr	r3, [fp, #-12]
    58cc:	e2833008 	add	r3, r3, #8
    58d0:	e50b3008 	str	r3, [fp, #-8]
    58d4:	e51b3008 	ldr	r3, [fp, #-8]
    58d8:	e5933000 	ldr	r3, [r3]
    58dc:	e3530000 	cmp	r3, #0
    58e0:	1affffde 	bne	5860 <router_remove_neuron+0x1c>
    58e4:	e3e03000 	mvn	r3, #0
    58e8:	e1a00003 	mov	r0, r3
    58ec:	e24bd004 	sub	sp, fp, #4
    58f0:	e8bd8800 	pop	{fp, pc}
    58f4:	00400aa0 	.word	0x00400aa0
    58f8:	00400aa4 	.word	0x00400aa4

000058fc <router_reset_all>:
    58fc:	e92d4800 	push	{fp, lr}
    5900:	e28db004 	add	fp, sp, #4
    5904:	e24dd008 	sub	sp, sp, #8
    5908:	ea00000d 	b	5944 <router_reset_all+0x48>
    590c:	e59f3058 	ldr	r3, [pc, #88]	@ 596c <router_reset_all+0x70>
    5910:	e5933000 	ldr	r3, [r3]
    5914:	e50b3008 	str	r3, [fp, #-8]
    5918:	e51b3008 	ldr	r3, [fp, #-8]
    591c:	e5933008 	ldr	r3, [r3, #8]
    5920:	e59f2044 	ldr	r2, [pc, #68]	@ 596c <router_reset_all+0x70>
    5924:	e5823000 	str	r3, [r2]
    5928:	e51b3008 	ldr	r3, [fp, #-8]
    592c:	e5933004 	ldr	r3, [r3, #4]
    5930:	e3a01001 	mov	r1, #1
    5934:	e1a00003 	mov	r0, r3
    5938:	fa0002b9 	blx	6424 <rtr_free>
    593c:	e51b0008 	ldr	r0, [fp, #-8]
    5940:	fa000288 	blx	6368 <sark_free>
    5944:	e59f3020 	ldr	r3, [pc, #32]	@ 596c <router_reset_all+0x70>
    5948:	e5933000 	ldr	r3, [r3]
    594c:	e3530000 	cmp	r3, #0
    5950:	1affffed 	bne	590c <router_reset_all+0x10>
    5954:	e59f3014 	ldr	r3, [pc, #20]	@ 5970 <router_reset_all+0x74>
    5958:	e3a02000 	mov	r2, #0
    595c:	e5832000 	str	r2, [r3]
    5960:	e1a00000 	nop			@ (mov r0, r0)
    5964:	e24bd004 	sub	sp, fp, #4
    5968:	e8bd8800 	pop	{fp, pc}
    596c:	00400aa0 	.word	0x00400aa0
    5970:	00400aa4 	.word	0x00400aa4

00005974 <router_route_count>:
    5974:	e52db004 	push	{fp}		@ (str fp, [sp, #-4]!)
    5978:	e28db000 	add	fp, sp, #0
    597c:	e59f3010 	ldr	r3, [pc, #16]	@ 5994 <router_route_count+0x20>
    5980:	e5933000 	ldr	r3, [r3]
    5984:	e1a00003 	mov	r0, r3
    5988:	e28bd000 	add	sp, fp, #0
    598c:	e49db004 	pop	{fp}		@ (ldr fp, [sp], #4)
    5990:	e12fff1e 	bx	lr
    5994:	00400aa4 	.word	0x00400aa4

00005998 <rte_handler>:
    5998:	4b01      	ldr	r3, [pc, #4]	@ (59a0 <rte_handler+0x8>)
    599a:	2208      	movs	r2, #8
    599c:	701a      	strb	r2, [r3, #0]
    599e:	4770      	bx	lr
    59a0:	e5007f2b 	.word	0xe5007f2b

000059a4 <sark_core_id>:
    59a4:	4b01      	ldr	r3, [pc, #4]	@ (59ac <sark_core_id+0x8>)
    59a6:	6818      	ldr	r0, [r3, #0]
    59a8:	4770      	bx	lr
    59aa:	46c0      	nop			@ (mov r8, r8)
    59ac:	00400aac 	.word	0x00400aac

000059b0 <sark_cpu_state>:
    59b0:	4b02      	ldr	r3, [pc, #8]	@ (59bc <sark_cpu_state+0xc>)
    59b2:	69db      	ldr	r3, [r3, #28]
    59b4:	332e      	adds	r3, #46	@ 0x2e
    59b6:	7018      	strb	r0, [r3, #0]
    59b8:	4770      	bx	lr
    59ba:	46c0      	nop			@ (mov r8, r8)
    59bc:	00400aac 	.word	0x00400aac

000059c0 <sark_app_lead>:
    59c0:	235c      	movs	r3, #92	@ 0x5c
    59c2:	781a      	ldrb	r2, [r3, #0]
    59c4:	4b02      	ldr	r3, [pc, #8]	@ (59d0 <sark_app_lead+0x10>)
    59c6:	00d2      	lsls	r2, r2, #3
    59c8:	681b      	ldr	r3, [r3, #0]
    59ca:	189b      	adds	r3, r3, r2
    59cc:	78d8      	ldrb	r0, [r3, #3]
    59ce:	4770      	bx	lr
    59d0:	e5007fe4 	.word	0xe5007fe4

000059d4 <sark_block_init>:
    59d4:	b530      	push	{r4, r5, lr}
    59d6:	000b      	movs	r3, r1
    59d8:	0004      	movs	r4, r0
    59da:	3b01      	subs	r3, #1
    59dc:	2b00      	cmp	r3, #0
    59de:	d104      	bne.n	59ea <sark_block_init+0x16>
    59e0:	3901      	subs	r1, #1
    59e2:	434a      	muls	r2, r1
    59e4:	1880      	adds	r0, r0, r2
    59e6:	6003      	str	r3, [r0, #0]
    59e8:	bd30      	pop	{r4, r5, pc}
    59ea:	18a5      	adds	r5, r4, r2
    59ec:	6025      	str	r5, [r4, #0]
    59ee:	002c      	movs	r4, r5
    59f0:	e7f3      	b.n	59da <sark_block_init+0x6>
	...

000059f4 <sark_msg_get>:
    59f4:	b510      	push	{r4, lr}
    59f6:	f7fa ebe0 	blx	1b8 <cpu_int_disable>
    59fa:	4a09      	ldr	r2, [pc, #36]	@ (5a20 <sark_msg_get+0x2c>)
    59fc:	6a14      	ldr	r4, [r2, #32]
    59fe:	2c00      	cmp	r4, #0
    5a00:	d00a      	beq.n	5a18 <sark_msg_get+0x24>
    5a02:	6823      	ldr	r3, [r4, #0]
    5a04:	6213      	str	r3, [r2, #32]
    5a06:	8c93      	ldrh	r3, [r2, #36]	@ 0x24
    5a08:	8cd1      	ldrh	r1, [r2, #38]	@ 0x26
    5a0a:	3301      	adds	r3, #1
    5a0c:	041b      	lsls	r3, r3, #16
    5a0e:	0c1b      	lsrs	r3, r3, #16
    5a10:	8493      	strh	r3, [r2, #36]	@ 0x24
    5a12:	4299      	cmp	r1, r3
    5a14:	d200      	bcs.n	5a18 <sark_msg_get+0x24>
    5a16:	84d3      	strh	r3, [r2, #38]	@ 0x26
    5a18:	f7fa ebd6 	blx	1c8 <cpu_int_restore>
    5a1c:	0020      	movs	r0, r4
    5a1e:	bd10      	pop	{r4, pc}
    5a20:	00400aac 	.word	0x00400aac

00005a24 <sark_msg_free>:
    5a24:	b510      	push	{r4, lr}
    5a26:	0004      	movs	r4, r0
    5a28:	f7fa ebc6 	blx	1b8 <cpu_int_disable>
    5a2c:	4b04      	ldr	r3, [pc, #16]	@ (5a40 <sark_msg_free+0x1c>)
    5a2e:	6a1a      	ldr	r2, [r3, #32]
    5a30:	6022      	str	r2, [r4, #0]
    5a32:	8c9a      	ldrh	r2, [r3, #36]	@ 0x24
    5a34:	621c      	str	r4, [r3, #32]
    5a36:	3a01      	subs	r2, #1
    5a38:	849a      	strh	r2, [r3, #36]	@ 0x24
    5a3a:	f7fa ebc6 	blx	1c8 <cpu_int_restore>
    5a3e:	bd10      	pop	{r4, pc}
    5a40:	00400aac 	.word	0x00400aac

00005a44 <sark_shmsg_get>:
    5a44:	b510      	push	{r4, lr}
    5a46:	2000      	movs	r0, #0
    5a48:	f7fa ebc6 	blx	1d8 <sark_lock_get>
    5a4c:	4a09      	ldr	r2, [pc, #36]	@ (5a74 <sark_shmsg_get+0x30>)
    5a4e:	6814      	ldr	r4, [r2, #0]
    5a50:	2c00      	cmp	r4, #0
    5a52:	d00a      	beq.n	5a6a <sark_shmsg_get+0x26>
    5a54:	6823      	ldr	r3, [r4, #0]
    5a56:	6013      	str	r3, [r2, #0]
    5a58:	8893      	ldrh	r3, [r2, #4]
    5a5a:	88d1      	ldrh	r1, [r2, #6]
    5a5c:	3301      	adds	r3, #1
    5a5e:	041b      	lsls	r3, r3, #16
    5a60:	0c1b      	lsrs	r3, r3, #16
    5a62:	8093      	strh	r3, [r2, #4]
    5a64:	4299      	cmp	r1, r3
    5a66:	d200      	bcs.n	5a6a <sark_shmsg_get+0x26>
    5a68:	80d3      	strh	r3, [r2, #6]
    5a6a:	2100      	movs	r1, #0
    5a6c:	f7fa ebc6 	blx	1fc <sark_lock_free>
    5a70:	0020      	movs	r0, r4
    5a72:	bd10      	pop	{r4, pc}
    5a74:	e5007f68 	.word	0xe5007f68

00005a78 <sark_shmsg_free>:
    5a78:	b510      	push	{r4, lr}
    5a7a:	0004      	movs	r4, r0
    5a7c:	2000      	movs	r0, #0
    5a7e:	f7fa ebac 	blx	1d8 <sark_lock_get>
    5a82:	4b05      	ldr	r3, [pc, #20]	@ (5a98 <sark_shmsg_free+0x20>)
    5a84:	2100      	movs	r1, #0
    5a86:	681a      	ldr	r2, [r3, #0]
    5a88:	6022      	str	r2, [r4, #0]
    5a8a:	889a      	ldrh	r2, [r3, #4]
    5a8c:	601c      	str	r4, [r3, #0]
    5a8e:	3a01      	subs	r2, #1
    5a90:	809a      	strh	r2, [r3, #4]
    5a92:	f7fa ebb4 	blx	1fc <sark_lock_free>
    5a96:	bd10      	pop	{r4, pc}
    5a98:	e5007f68 	.word	0xe5007f68

00005a9c <sark_call_cpp_constructors>:
    5a9c:	b510      	push	{r4, lr}
    5a9e:	4c04      	ldr	r4, [pc, #16]	@ (5ab0 <sark_call_cpp_constructors+0x14>)
    5aa0:	4b04      	ldr	r3, [pc, #16]	@ (5ab4 <sark_call_cpp_constructors+0x18>)
    5aa2:	429c      	cmp	r4, r3
    5aa4:	d300      	bcc.n	5aa8 <sark_call_cpp_constructors+0xc>
    5aa6:	bd10      	pop	{r4, pc}
    5aa8:	cc08      	ldmia	r4!, {r3}
    5aaa:	4798      	blx	r3
    5aac:	e7f8      	b.n	5aa0 <sark_call_cpp_constructors+0x4>
    5aae:	46c0      	nop			@ (mov r8, r8)
    5ab0:	000078ec 	.word	0x000078ec
    5ab4:	000078ec 	.word	0x000078ec

00005ab8 <sark_init>:
    5ab8:	b570      	push	{r4, r5, r6, lr}
    5aba:	2520      	movs	r5, #32
    5abc:	0004      	movs	r4, r0
    5abe:	8c28      	ldrh	r0, [r5, #32]
    5ac0:	8c6a      	ldrh	r2, [r5, #34]	@ 0x22
    5ac2:	0080      	lsls	r0, r0, #2
    5ac4:	1a20      	subs	r0, r4, r0
    5ac6:	21d2      	movs	r1, #210	@ 0xd2
    5ac8:	f7fa eb62 	blx	190 <cpu_init_mode>
    5acc:	8caa      	ldrh	r2, [r5, #36]	@ 0x24
    5ace:	21d1      	movs	r1, #209	@ 0xd1
    5ad0:	f7fa eb5e 	blx	190 <cpu_init_mode>
    5ad4:	2200      	movs	r2, #0
    5ad6:	21df      	movs	r1, #223	@ 0xdf
    5ad8:	f7fa eb5a 	blx	190 <cpu_init_mode>
    5adc:	8ceb      	ldrh	r3, [r5, #38]	@ 0x26
    5ade:	2658      	movs	r6, #88	@ 0x58
    5ae0:	089b      	lsrs	r3, r3, #2
    5ae2:	009b      	lsls	r3, r3, #2
    5ae4:	1ae1      	subs	r1, r4, r3
    5ae6:	4c35      	ldr	r4, [pc, #212]	@ (5bbc <sark_init+0x104>)
    5ae8:	6121      	str	r1, [r4, #16]
    5aea:	6ae8      	ldr	r0, [r5, #44]	@ 0x2c
    5aec:	6160      	str	r0, [r4, #20]
    5aee:	f000 fc45 	bl	637c <sark_heap_init>
    5af2:	4b33      	ldr	r3, [pc, #204]	@ (5bc0 <sark_init+0x108>)
    5af4:	4a33      	ldr	r2, [pc, #204]	@ (5bc4 <sark_init+0x10c>)
    5af6:	681b      	ldr	r3, [r3, #0]
    5af8:	4d33      	ldr	r5, [pc, #204]	@ (5bc8 <sark_init+0x110>)
    5afa:	0e1b      	lsrs	r3, r3, #24
    5afc:	6063      	str	r3, [r4, #4]
    5afe:	189b      	adds	r3, r3, r2
    5b00:	2192      	movs	r1, #146	@ 0x92
    5b02:	0049      	lsls	r1, r1, #1
    5b04:	61a0      	str	r0, [r4, #24]
    5b06:	781b      	ldrb	r3, [r3, #0]
    5b08:	6023      	str	r3, [r4, #0]
    5b0a:	8cab      	ldrh	r3, [r5, #36]	@ 0x24
    5b0c:	8623      	strh	r3, [r4, #48]	@ 0x30
    5b0e:	4b2f      	ldr	r3, [pc, #188]	@ (5bcc <sark_init+0x114>)
    5b10:	60a3      	str	r3, [r4, #8]
    5b12:	7830      	ldrb	r0, [r6, #0]
    5b14:	f000 fbca 	bl	62ac <sark_alloc>
    5b18:	2292      	movs	r2, #146	@ 0x92
    5b1a:	0052      	lsls	r2, r2, #1
    5b1c:	6220      	str	r0, [r4, #32]
    5b1e:	7831      	ldrb	r1, [r6, #0]
    5b20:	f7ff ff58 	bl	59d4 <sark_block_init>
    5b24:	4b2a      	ldr	r3, [pc, #168]	@ (5bd0 <sark_init+0x118>)
    5b26:	221f      	movs	r2, #31
    5b28:	681b      	ldr	r3, [r3, #0]
    5b2a:	4013      	ands	r3, r2
    5b2c:	6862      	ldr	r2, [r4, #4]
    5b2e:	429a      	cmp	r2, r3
    5b30:	d02c      	beq.n	5b8c <sark_init+0xd4>
    5b32:	6822      	ldr	r2, [r4, #0]
    5b34:	4b27      	ldr	r3, [pc, #156]	@ (5bd4 <sark_init+0x11c>)
    5b36:	01d0      	lsls	r0, r2, #7
    5b38:	18c0      	adds	r0, r0, r3
    5b3a:	6dab      	ldr	r3, [r5, #88]	@ 0x58
    5b3c:	2100      	movs	r1, #0
    5b3e:	4353      	muls	r3, r2
    5b40:	6d6a      	ldr	r2, [r5, #84]	@ 0x54
    5b42:	009b      	lsls	r3, r3, #2
    5b44:	18d3      	adds	r3, r2, r3
    5b46:	2270      	movs	r2, #112	@ 0x70
    5b48:	61e0      	str	r0, [r4, #28]
    5b4a:	6363      	str	r3, [r4, #52]	@ 0x34
    5b4c:	f7fa eb74 	blx	238 <sark_word_set>
    5b50:	69e0      	ldr	r0, [r4, #28]
    5b52:	2205      	movs	r2, #5
    5b54:	0003      	movs	r3, r0
    5b56:	332e      	adds	r3, #46	@ 0x2e
    5b58:	701a      	strb	r2, [r3, #0]
    5b5a:	6862      	ldr	r2, [r4, #4]
    5b5c:	3b01      	subs	r3, #1
    5b5e:	701a      	strb	r2, [r3, #0]
    5b60:	225c      	movs	r2, #92	@ 0x5c
    5b62:	7812      	ldrb	r2, [r2, #0]
    5b64:	2480      	movs	r4, #128	@ 0x80
    5b66:	709a      	strb	r2, [r3, #2]
    5b68:	02e4      	lsls	r4, r4, #11
    5b6a:	69eb      	ldr	r3, [r5, #28]
    5b6c:	6443      	str	r3, [r0, #68]	@ 0x44
    5b6e:	65c4      	str	r4, [r0, #92]	@ 0x5c
    5b70:	4919      	ldr	r1, [pc, #100]	@ (5bd8 <sark_init+0x120>)
    5b72:	3048      	adds	r0, #72	@ 0x48
    5b74:	f7fa eb56 	blx	224 <sark_str_cpy>
    5b78:	4b18      	ldr	r3, [pc, #96]	@ (5bdc <sark_init+0x124>)
    5b7a:	22ff      	movs	r2, #255	@ 0xff
    5b7c:	681b      	ldr	r3, [r3, #0]
    5b7e:	0412      	lsls	r2, r2, #16
    5b80:	4013      	ands	r3, r2
    5b82:	42a3      	cmp	r3, r4
    5b84:	d002      	beq.n	5b8c <sark_init+0xd4>
    5b86:	2014      	movs	r0, #20
    5b88:	f7fa ead0 	blx	12c <rt_error>
    5b8c:	f000 fa3e 	bl	600c <sark_vic_init>
    5b90:	2259      	movs	r2, #89	@ 0x59
    5b92:	7810      	ldrb	r0, [r2, #0]
    5b94:	4b12      	ldr	r3, [pc, #72]	@ (5be0 <sark_init+0x128>)
    5b96:	3a58      	subs	r2, #88	@ 0x58
    5b98:	2112      	movs	r1, #18
    5b9a:	f000 fa5f 	bl	605c <sark_vic_set>
    5b9e:	2201      	movs	r2, #1
    5ba0:	2106      	movs	r1, #6
    5ba2:	4b10      	ldr	r3, [pc, #64]	@ (5be4 <sark_init+0x12c>)
    5ba4:	2010      	movs	r0, #16
    5ba6:	f000 fa59 	bl	605c <sark_vic_set>
    5baa:	235a      	movs	r3, #90	@ 0x5a
    5bac:	7818      	ldrb	r0, [r3, #0]
    5bae:	f000 f9fd 	bl	5fac <event_alloc>
    5bb2:	f000 fa21 	bl	5ff8 <timer_cancel_init>
    5bb6:	201f      	movs	r0, #31
    5bb8:	bd70      	pop	{r4, r5, r6, pc}
    5bba:	46c0      	nop			@ (mov r8, r8)
    5bbc:	00400aac 	.word	0x00400aac
    5bc0:	40000014 	.word	0x40000014
    5bc4:	e5007f94 	.word	0xe5007f94
    5bc8:	e5007f00 	.word	0xe5007f00
    5bcc:	deaddead 	.word	0xdeaddead
    5bd0:	e2000034 	.word	0xe2000034
    5bd4:	e5007000 	.word	0xe5007000
    5bd8:	000078f0 	.word	0x000078f0
    5bdc:	e5007ffc 	.word	0xe5007ffc
    5be0:	000002f0 	.word	0x000002f0
    5be4:	00006198 	.word	0x00006198

00005be8 <sark_msg_send>:
    5be8:	b570      	push	{r4, r5, r6, lr}
    5bea:	4d1d      	ldr	r5, [pc, #116]	@ (5c60 <sark_msg_send+0x78>)
    5bec:	0006      	movs	r6, r0
    5bee:	481d      	ldr	r0, [pc, #116]	@ (5c64 <sark_msg_send+0x7c>)
    5bf0:	69eb      	ldr	r3, [r5, #28]
    5bf2:	6804      	ldr	r4, [r0, #0]
    5bf4:	3339      	adds	r3, #57	@ 0x39
    5bf6:	781a      	ldrb	r2, [r3, #0]
    5bf8:	2a00      	cmp	r2, #0
    5bfa:	d003      	beq.n	5c04 <sark_msg_send+0x1c>
    5bfc:	6802      	ldr	r2, [r0, #0]
    5bfe:	1b12      	subs	r2, r2, r4
    5c00:	428a      	cmp	r2, r1
    5c02:	d9f8      	bls.n	5bf6 <sark_msg_send+0xe>
    5c04:	781b      	ldrb	r3, [r3, #0]
    5c06:	2b00      	cmp	r3, #0
    5c08:	d001      	beq.n	5c0e <sark_msg_send+0x26>
    5c0a:	2000      	movs	r0, #0
    5c0c:	bd70      	pop	{r4, r5, r6, pc}
    5c0e:	f7ff ff19 	bl	5a44 <sark_shmsg_get>
    5c12:	1e04      	subs	r4, r0, #0
    5c14:	d0f9      	beq.n	5c0a <sark_msg_send+0x22>
    5c16:	0031      	movs	r1, r6
    5c18:	f7fa eb20 	blx	25c <sark_msg_cpy>
    5c1c:	69eb      	ldr	r3, [r5, #28]
    5c1e:	635c      	str	r4, [r3, #52]	@ 0x34
    5c20:	3339      	adds	r3, #57	@ 0x39
    5c22:	2401      	movs	r4, #1
    5c24:	701c      	strb	r4, [r3, #0]
    5c26:	0020      	movs	r0, r4
    5c28:	f7fa ead6 	blx	1d8 <sark_lock_get>
    5c2c:	682b      	ldr	r3, [r5, #0]
    5c2e:	490e      	ldr	r1, [pc, #56]	@ (5c68 <sark_msg_send+0x80>)
    5c30:	0026      	movs	r6, r4
    5c32:	680a      	ldr	r2, [r1, #0]
    5c34:	409e      	lsls	r6, r3
    5c36:	0033      	movs	r3, r6
    5c38:	4313      	orrs	r3, r2
    5c3a:	600b      	str	r3, [r1, #0]
    5c3c:	2a00      	cmp	r2, #0
    5c3e:	d106      	bne.n	5c4e <sark_msg_send+0x66>
    5c40:	4b0a      	ldr	r3, [pc, #40]	@ (5c6c <sark_msg_send+0x84>)
    5c42:	781b      	ldrb	r3, [r3, #0]
    5c44:	409c      	lsls	r4, r3
    5c46:	4b0a      	ldr	r3, [pc, #40]	@ (5c70 <sark_msg_send+0x88>)
    5c48:	18e4      	adds	r4, r4, r3
    5c4a:	4b0a      	ldr	r3, [pc, #40]	@ (5c74 <sark_msg_send+0x8c>)
    5c4c:	601c      	str	r4, [r3, #0]
    5c4e:	2101      	movs	r1, #1
    5c50:	f7fa ead4 	blx	1fc <sark_lock_free>
    5c54:	6aeb      	ldr	r3, [r5, #44]	@ 0x2c
    5c56:	2001      	movs	r0, #1
    5c58:	3301      	adds	r3, #1
    5c5a:	62eb      	str	r3, [r5, #44]	@ 0x2c
    5c5c:	e7d6      	b.n	5c0c <sark_msg_send+0x24>
    5c5e:	46c0      	nop			@ (mov r8, r8)
    5c60:	00400aac 	.word	0x00400aac
    5c64:	e5007f10 	.word	0xe5007f10
    5c68:	e5007fec 	.word	0xe5007fec
    5c6c:	e5007fa8 	.word	0xe5007fa8
    5c70:	5ec00000 	.word	0x5ec00000
    5c74:	e2000008 	.word	0xe2000008

00005c78 <sark_cmd_ver>:
    5c78:	4a0d      	ldr	r2, [pc, #52]	@ (5cb0 <sark_cmd_ver+0x38>)
    5c7a:	b510      	push	{r4, lr}
    5c7c:	6853      	ldr	r3, [r2, #4]
    5c7e:	6812      	ldr	r2, [r2, #0]
    5c80:	021b      	lsls	r3, r3, #8
    5c82:	189b      	adds	r3, r3, r2
    5c84:	4a0b      	ldr	r2, [pc, #44]	@ (5cb4 <sark_cmd_ver+0x3c>)
    5c86:	0004      	movs	r4, r0
    5c88:	8812      	ldrh	r2, [r2, #0]
    5c8a:	490b      	ldr	r1, [pc, #44]	@ (5cb8 <sark_cmd_ver+0x40>)
    5c8c:	0412      	lsls	r2, r2, #16
    5c8e:	189b      	adds	r3, r3, r2
    5c90:	6143      	str	r3, [r0, #20]
    5c92:	4b0a      	ldr	r3, [pc, #40]	@ (5cbc <sark_cmd_ver+0x44>)
    5c94:	6183      	str	r3, [r0, #24]
    5c96:	4b0a      	ldr	r3, [pc, #40]	@ (5cc0 <sark_cmd_ver+0x48>)
    5c98:	681b      	ldr	r3, [r3, #0]
    5c9a:	61c3      	str	r3, [r0, #28]
    5c9c:	3020      	adds	r0, #32
    5c9e:	f7fa eac2 	blx	224 <sark_str_cpy>
    5ca2:	0020      	movs	r0, r4
    5ca4:	4907      	ldr	r1, [pc, #28]	@ (5cc4 <sark_cmd_ver+0x4c>)
    5ca6:	302f      	adds	r0, #47	@ 0x2f
    5ca8:	f7fa eabc 	blx	224 <sark_str_cpy>
    5cac:	2021      	movs	r0, #33	@ 0x21
    5cae:	bd10      	pop	{r4, pc}
    5cb0:	00400aac 	.word	0x00400aac
    5cb4:	e5007f00 	.word	0xe5007f00
    5cb8:	000078fb 	.word	0x000078fb
    5cbc:	ffff0100 	.word	0xffff0100
    5cc0:	000078ec 	.word	0x000078ec
    5cc4:	0000790a 	.word	0x0000790a

00005cc8 <sark_cmd_read>:
    5cc8:	0003      	movs	r3, r0
    5cca:	6980      	ldr	r0, [r0, #24]
    5ccc:	2280      	movs	r2, #128	@ 0x80
    5cce:	69d9      	ldr	r1, [r3, #28]
    5cd0:	0052      	lsls	r2, r2, #1
    5cd2:	b510      	push	{r4, lr}
    5cd4:	4290      	cmp	r0, r2
    5cd6:	d801      	bhi.n	5cdc <sark_cmd_read+0x14>
    5cd8:	2902      	cmp	r1, #2
    5cda:	d903      	bls.n	5ce4 <sark_cmd_read+0x1c>
    5cdc:	2284      	movs	r2, #132	@ 0x84
    5cde:	2000      	movs	r0, #0
    5ce0:	821a      	strh	r2, [r3, #16]
    5ce2:	bd10      	pop	{r4, pc}
    5ce4:	695a      	ldr	r2, [r3, #20]
    5ce6:	2900      	cmp	r1, #0
    5ce8:	d107      	bne.n	5cfa <sark_cmd_read+0x32>
    5cea:	1819      	adds	r1, r3, r0
    5cec:	1ad2      	subs	r2, r2, r3
    5cee:	428b      	cmp	r3, r1
    5cf0:	d0f7      	beq.n	5ce2 <sark_cmd_read+0x1a>
    5cf2:	5cd4      	ldrb	r4, [r2, r3]
    5cf4:	751c      	strb	r4, [r3, #20]
    5cf6:	3301      	adds	r3, #1
    5cf8:	e7f9      	b.n	5cee <sark_cmd_read+0x26>
    5cfa:	2901      	cmp	r1, #1
    5cfc:	d109      	bne.n	5d12 <sark_cmd_read+0x4a>
    5cfe:	0841      	lsrs	r1, r0, #1
    5d00:	0049      	lsls	r1, r1, #1
    5d02:	1859      	adds	r1, r3, r1
    5d04:	1ad2      	subs	r2, r2, r3
    5d06:	428b      	cmp	r3, r1
    5d08:	d0eb      	beq.n	5ce2 <sark_cmd_read+0x1a>
    5d0a:	5ad4      	ldrh	r4, [r2, r3]
    5d0c:	829c      	strh	r4, [r3, #20]
    5d0e:	3302      	adds	r3, #2
    5d10:	e7f9      	b.n	5d06 <sark_cmd_read+0x3e>
    5d12:	0881      	lsrs	r1, r0, #2
    5d14:	0089      	lsls	r1, r1, #2
    5d16:	1859      	adds	r1, r3, r1
    5d18:	1ad2      	subs	r2, r2, r3
    5d1a:	428b      	cmp	r3, r1
    5d1c:	d0e1      	beq.n	5ce2 <sark_cmd_read+0x1a>
    5d1e:	58d4      	ldr	r4, [r2, r3]
    5d20:	615c      	str	r4, [r3, #20]
    5d22:	3304      	adds	r3, #4
    5d24:	e7f9      	b.n	5d1a <sark_cmd_read+0x52>

00005d26 <sark_cmd_write>:
    5d26:	6983      	ldr	r3, [r0, #24]
    5d28:	2280      	movs	r2, #128	@ 0x80
    5d2a:	69c1      	ldr	r1, [r0, #28]
    5d2c:	0052      	lsls	r2, r2, #1
    5d2e:	b510      	push	{r4, lr}
    5d30:	4293      	cmp	r3, r2
    5d32:	d801      	bhi.n	5d38 <sark_cmd_write+0x12>
    5d34:	2902      	cmp	r1, #2
    5d36:	d903      	bls.n	5d40 <sark_cmd_write+0x1a>
    5d38:	2384      	movs	r3, #132	@ 0x84
    5d3a:	8203      	strh	r3, [r0, #16]
    5d3c:	2000      	movs	r0, #0
    5d3e:	bd10      	pop	{r4, pc}
    5d40:	6942      	ldr	r2, [r0, #20]
    5d42:	2900      	cmp	r1, #0
    5d44:	d106      	bne.n	5d54 <sark_cmd_write+0x2e>
    5d46:	3020      	adds	r0, #32
    5d48:	4299      	cmp	r1, r3
    5d4a:	d0f7      	beq.n	5d3c <sark_cmd_write+0x16>
    5d4c:	5c44      	ldrb	r4, [r0, r1]
    5d4e:	548c      	strb	r4, [r1, r2]
    5d50:	3101      	adds	r1, #1
    5d52:	e7f9      	b.n	5d48 <sark_cmd_write+0x22>
    5d54:	2901      	cmp	r1, #1
    5d56:	d109      	bne.n	5d6c <sark_cmd_write+0x46>
    5d58:	085b      	lsrs	r3, r3, #1
    5d5a:	005b      	lsls	r3, r3, #1
    5d5c:	18c3      	adds	r3, r0, r3
    5d5e:	1a12      	subs	r2, r2, r0
    5d60:	4298      	cmp	r0, r3
    5d62:	d0eb      	beq.n	5d3c <sark_cmd_write+0x16>
    5d64:	8c01      	ldrh	r1, [r0, #32]
    5d66:	5211      	strh	r1, [r2, r0]
    5d68:	3002      	adds	r0, #2
    5d6a:	e7f9      	b.n	5d60 <sark_cmd_write+0x3a>
    5d6c:	089b      	lsrs	r3, r3, #2
    5d6e:	009b      	lsls	r3, r3, #2
    5d70:	18c3      	adds	r3, r0, r3
    5d72:	1a12      	subs	r2, r2, r0
    5d74:	4298      	cmp	r0, r3
    5d76:	d0e1      	beq.n	5d3c <sark_cmd_write+0x16>
    5d78:	6a01      	ldr	r1, [r0, #32]
    5d7a:	5011      	str	r1, [r2, r0]
    5d7c:	3004      	adds	r0, #4
    5d7e:	e7f9      	b.n	5d74 <sark_cmd_write+0x4e>

00005d80 <sark_cmd_fill>:
    5d80:	3014      	adds	r0, #20
    5d82:	c807      	ldmia	r0, {r0, r1, r2}
    5d84:	b510      	push	{r4, lr}
    5d86:	f7fa ea58 	blx	238 <sark_word_set>
    5d8a:	2000      	movs	r0, #0
    5d8c:	bd10      	pop	{r4, pc}

00005d8e <sark_wait>:
    5d8e:	b570      	push	{r4, r5, r6, lr}
    5d90:	255d      	movs	r5, #93	@ 0x5d
    5d92:	2401      	movs	r4, #1
    5d94:	782b      	ldrb	r3, [r5, #0]
    5d96:	4223      	tst	r3, r4
    5d98:	d100      	bne.n	5d9c <sark_wait+0xe>
    5d9a:	bd70      	pop	{r4, r5, r6, pc}
    5d9c:	f7fa ea18 	blx	1d0 <cpu_wfi>
    5da0:	e7f8      	b.n	5d94 <sark_wait+0x6>
	...

00005da4 <sark_int>:
    5da4:	b570      	push	{r4, r5, r6, lr}
    5da6:	4d53      	ldr	r5, [pc, #332]	@ (5ef4 <sark_int+0x150>)
    5da8:	2301      	movs	r3, #1
    5daa:	686a      	ldr	r2, [r5, #4]
    5dac:	69e9      	ldr	r1, [r5, #28]
    5dae:	4093      	lsls	r3, r2
    5db0:	4a51      	ldr	r2, [pc, #324]	@ (5ef8 <sark_int+0x154>)
    5db2:	189b      	adds	r3, r3, r2
    5db4:	4a51      	ldr	r2, [pc, #324]	@ (5efc <sark_int+0x158>)
    5db6:	6013      	str	r3, [r2, #0]
    5db8:	000a      	movs	r2, r1
    5dba:	3238      	adds	r2, #56	@ 0x38
    5dbc:	7813      	ldrb	r3, [r2, #0]
    5dbe:	2b00      	cmp	r3, #0
    5dc0:	d005      	beq.n	5dce <sark_int+0x2a>
    5dc2:	6b0e      	ldr	r6, [r1, #48]	@ 0x30
    5dc4:	2400      	movs	r4, #0
    5dc6:	2b02      	cmp	r3, #2
    5dc8:	d102      	bne.n	5dd0 <sark_int+0x2c>
    5dca:	6308      	str	r0, [r1, #48]	@ 0x30
    5dcc:	7014      	strb	r4, [r2, #0]
    5dce:	bd70      	pop	{r4, r5, r6, pc}
    5dd0:	7014      	strb	r4, [r2, #0]
    5dd2:	2b03      	cmp	r3, #3
    5dd4:	d124      	bne.n	5e20 <sark_int+0x7c>
    5dd6:	1ef0      	subs	r0, r6, #3
    5dd8:	280a      	cmp	r0, #10
    5dda:	d8f8      	bhi.n	5dce <sark_int+0x2a>
    5ddc:	f001 fc44 	bl	7668 <__gnu_thumb1_case_sqi>
    5de0:	06f7f710 	.word	0x06f7f710
    5de4:	161d0c0a 	.word	0x161d0c0a
    5de8:	1616      	.short	0x1616
    5dea:	16          	.byte	0x16
    5deb:	00          	.byte	0x00
    5dec:	2001      	movs	r0, #1
    5dee:	f000 f8bb 	bl	5f68 <event_pause>
    5df2:	e7ec      	b.n	5dce <sark_int+0x2a>
    5df4:	2000      	movs	r0, #0
    5df6:	e7fa      	b.n	5dee <sark_int+0x4a>
    5df8:	20ff      	movs	r0, #255	@ 0xff
    5dfa:	f000 f8cb 	bl	5f94 <event_stop>
    5dfe:	e7e6      	b.n	5dce <sark_int+0x2a>
    5e00:	225d      	movs	r2, #93	@ 0x5d
    5e02:	7813      	ldrb	r3, [r2, #0]
    5e04:	2101      	movs	r1, #1
    5e06:	438b      	bics	r3, r1
    5e08:	7013      	strb	r3, [r2, #0]
    5e0a:	e7e0      	b.n	5dce <sark_int+0x2a>
    5e0c:	4b3c      	ldr	r3, [pc, #240]	@ (5f00 <sark_int+0x15c>)
    5e0e:	2280      	movs	r2, #128	@ 0x80
    5e10:	62de      	str	r6, [r3, #44]	@ 0x2c
    5e12:	4b3c      	ldr	r3, [pc, #240]	@ (5f04 <sark_int+0x160>)
    5e14:	0592      	lsls	r2, r2, #22
    5e16:	601a      	str	r2, [r3, #0]
    5e18:	e7d9      	b.n	5dce <sark_int+0x2a>
    5e1a:	4b3a      	ldr	r3, [pc, #232]	@ (5f04 <sark_int+0x160>)
    5e1c:	2210      	movs	r2, #16
    5e1e:	e7fa      	b.n	5e16 <sark_int+0x72>
    5e20:	2b01      	cmp	r3, #1
    5e22:	d1d4      	bne.n	5dce <sark_int+0x2a>
    5e24:	f7ff fde6 	bl	59f4 <sark_msg_get>
    5e28:	1e04      	subs	r4, r0, #0
    5e2a:	d05f      	beq.n	5eec <sark_int+0x148>
    5e2c:	0031      	movs	r1, r6
    5e2e:	f7fa ea16 	blx	25c <sark_msg_cpy>
    5e32:	0030      	movs	r0, r6
    5e34:	f7ff fe20 	bl	5a78 <sark_shmsg_free>
    5e38:	6aab      	ldr	r3, [r5, #40]	@ 0x28
    5e3a:	3301      	adds	r3, #1
    5e3c:	62ab      	str	r3, [r5, #40]	@ 0x28
    5e3e:	7aa5      	ldrb	r5, [r4, #10]
    5e40:	2d1f      	cmp	r5, #31
    5e42:	d834      	bhi.n	5eae <sark_int+0x10a>
    5e44:	88a3      	ldrh	r3, [r4, #4]
    5e46:	2b17      	cmp	r3, #23
    5e48:	d803      	bhi.n	5e52 <sark_int+0xae>
    5e4a:	2381      	movs	r3, #129	@ 0x81
    5e4c:	2000      	movs	r0, #0
    5e4e:	8223      	strh	r3, [r4, #16]
    5e50:	e00c      	b.n	5e6c <sark_int+0xc8>
    5e52:	8a20      	ldrh	r0, [r4, #16]
    5e54:	2380      	movs	r3, #128	@ 0x80
    5e56:	8223      	strh	r3, [r4, #16]
    5e58:	2805      	cmp	r0, #5
    5e5a:	d826      	bhi.n	5eaa <sark_int+0x106>
    5e5c:	f7fa fa7a 	bl	354 <__gnu_thumb1_case_uqi>
    5e60:	1d192503 	.word	0x1d192503
    5e64:	2125      	.short	0x2125
    5e66:	0020      	movs	r0, r4
    5e68:	f7ff ff06 	bl	5c78 <sark_cmd_ver>
    5e6c:	8963      	ldrh	r3, [r4, #10]
    5e6e:	89a1      	ldrh	r1, [r4, #12]
    5e70:	021a      	lsls	r2, r3, #8
    5e72:	0a1b      	lsrs	r3, r3, #8
    5e74:	4313      	orrs	r3, r2
    5e76:	300c      	adds	r0, #12
    5e78:	8163      	strh	r3, [r4, #10]
    5e7a:	89e3      	ldrh	r3, [r4, #14]
    5e7c:	80a0      	strh	r0, [r4, #4]
    5e7e:	81e1      	strh	r1, [r4, #14]
    5e80:	0020      	movs	r0, r4
    5e82:	210a      	movs	r1, #10
    5e84:	81a3      	strh	r3, [r4, #12]
    5e86:	f7ff feaf 	bl	5be8 <sark_msg_send>
    5e8a:	0020      	movs	r0, r4
    5e8c:	f7ff fdca 	bl	5a24 <sark_msg_free>
    5e90:	e79d      	b.n	5dce <sark_int+0x2a>
    5e92:	0020      	movs	r0, r4
    5e94:	f7ff ff18 	bl	5cc8 <sark_cmd_read>
    5e98:	e7e8      	b.n	5e6c <sark_int+0xc8>
    5e9a:	0020      	movs	r0, r4
    5e9c:	f7ff ff43 	bl	5d26 <sark_cmd_write>
    5ea0:	e7e4      	b.n	5e6c <sark_int+0xc8>
    5ea2:	0020      	movs	r0, r4
    5ea4:	f7ff ff6c 	bl	5d80 <sark_cmd_fill>
    5ea8:	e7e0      	b.n	5e6c <sark_int+0xc8>
    5eaa:	2383      	movs	r3, #131	@ 0x83
    5eac:	e7ce      	b.n	5e4c <sark_int+0xa8>
    5eae:	235b      	movs	r3, #91	@ 0x5b
    5eb0:	781b      	ldrb	r3, [r3, #0]
    5eb2:	2b00      	cmp	r3, #0
    5eb4:	d00f      	beq.n	5ed6 <sark_int+0x132>
    5eb6:	4b14      	ldr	r3, [pc, #80]	@ (5f08 <sark_int+0x164>)
    5eb8:	699b      	ldr	r3, [r3, #24]
    5eba:	2b00      	cmp	r3, #0
    5ebc:	d0e5      	beq.n	5e8a <sark_int+0xe6>
    5ebe:	f7fa e97c 	blx	1b8 <cpu_int_disable>
    5ec2:	096a      	lsrs	r2, r5, #5
    5ec4:	0021      	movs	r1, r4
    5ec6:	0006      	movs	r6, r0
    5ec8:	2003      	movs	r0, #3
    5eca:	f001 f8cd 	bl	7068 <schedule_sysmode>
    5ece:	0030      	movs	r0, r6
    5ed0:	f7fa e97a 	blx	1c8 <cpu_int_restore>
    5ed4:	e77b      	b.n	5dce <sark_int+0x2a>
    5ed6:	4b0d      	ldr	r3, [pc, #52]	@ (5f0c <sark_int+0x168>)
    5ed8:	681a      	ldr	r2, [r3, #0]
    5eda:	2380      	movs	r3, #128	@ 0x80
    5edc:	055b      	lsls	r3, r3, #21
    5ede:	421a      	tst	r2, r3
    5ee0:	d0d3      	beq.n	5e8a <sark_int+0xe6>
    5ee2:	4a07      	ldr	r2, [pc, #28]	@ (5f00 <sark_int+0x15c>)
    5ee4:	6294      	str	r4, [r2, #40]	@ 0x28
    5ee6:	4a07      	ldr	r2, [pc, #28]	@ (5f04 <sark_int+0x160>)
    5ee8:	6013      	str	r3, [r2, #0]
    5eea:	e770      	b.n	5dce <sark_int+0x2a>
    5eec:	0030      	movs	r0, r6
    5eee:	f7ff fdc3 	bl	5a78 <sark_shmsg_free>
    5ef2:	e76c      	b.n	5dce <sark_int+0x2a>
    5ef4:	00400aac 	.word	0x00400aac
    5ef8:	5ec00000 	.word	0x5ec00000
    5efc:	e200000c 	.word	0xe200000c
    5f00:	00400ae8 	.word	0x00400ae8
    5f04:	1f000018 	.word	0x1f000018
    5f08:	00400bf8 	.word	0x00400bf8
    5f0c:	1f000010 	.word	0x1f000010

00005f10 <event_wait>:
    5f10:	4b12      	ldr	r3, [pc, #72]	@ (5f5c <event_wait+0x4c>)
    5f12:	b570      	push	{r4, r5, r6, lr}
    5f14:	681b      	ldr	r3, [r3, #0]
    5f16:	4d12      	ldr	r5, [pc, #72]	@ (5f60 <event_wait+0x50>)
    5f18:	2401      	movs	r4, #1
    5f1a:	409c      	lsls	r4, r3
    5f1c:	7eab      	ldrb	r3, [r5, #26]
    5f1e:	4e11      	ldr	r6, [pc, #68]	@ (5f64 <event_wait+0x54>)
    5f20:	2b00      	cmp	r3, #0
    5f22:	d011      	beq.n	5f48 <event_wait+0x38>
    5f24:	2009      	movs	r0, #9
    5f26:	f7ff fd43 	bl	59b0 <sark_cpu_state>
    5f2a:	6833      	ldr	r3, [r6, #0]
    5f2c:	0022      	movs	r2, r4
    5f2e:	439a      	bics	r2, r3
    5f30:	d107      	bne.n	5f42 <event_wait+0x32>
    5f32:	7eaa      	ldrb	r2, [r5, #26]
    5f34:	2301      	movs	r3, #1
    5f36:	4053      	eors	r3, r2
    5f38:	2007      	movs	r0, #7
    5f3a:	76ab      	strb	r3, [r5, #26]
    5f3c:	f7ff fd38 	bl	59b0 <sark_cpu_state>
    5f40:	bd70      	pop	{r4, r5, r6, pc}
    5f42:	f7fa e946 	blx	1d0 <cpu_wfi>
    5f46:	e7f0      	b.n	5f2a <event_wait+0x1a>
    5f48:	2008      	movs	r0, #8
    5f4a:	f7ff fd31 	bl	59b0 <sark_cpu_state>
    5f4e:	6833      	ldr	r3, [r6, #0]
    5f50:	421c      	tst	r4, r3
    5f52:	d0ee      	beq.n	5f32 <event_wait+0x22>
    5f54:	f7fa e93c 	blx	1d0 <cpu_wfi>
    5f58:	e7f9      	b.n	5f4e <event_wait+0x3e>
    5f5a:	46c0      	nop			@ (mov r8, r8)
    5f5c:	00400aac 	.word	0x00400aac
    5f60:	00400ae8 	.word	0x00400ae8
    5f64:	e2000058 	.word	0xe2000058

00005f68 <event_pause>:
    5f68:	b570      	push	{r4, r5, r6, lr}
    5f6a:	4d09      	ldr	r5, [pc, #36]	@ (5f90 <event_pause+0x28>)
    5f6c:	1e04      	subs	r4, r0, #0
    5f6e:	d00b      	beq.n	5f88 <event_pause+0x20>
    5f70:	2301      	movs	r3, #1
    5f72:	200a      	movs	r0, #10
    5f74:	762b      	strb	r3, [r5, #24]
    5f76:	f7ff fd1b 	bl	59b0 <sark_cpu_state>
    5f7a:	6b2b      	ldr	r3, [r5, #48]	@ 0x30
    5f7c:	2b00      	cmp	r3, #0
    5f7e:	d002      	beq.n	5f86 <event_pause+0x1e>
    5f80:	6b69      	ldr	r1, [r5, #52]	@ 0x34
    5f82:	0020      	movs	r0, r4
    5f84:	4798      	blx	r3
    5f86:	bd70      	pop	{r4, r5, r6, pc}
    5f88:	7628      	strb	r0, [r5, #24]
    5f8a:	2007      	movs	r0, #7
    5f8c:	e7f3      	b.n	5f76 <event_pause+0xe>
    5f8e:	46c0      	nop			@ (mov r8, r8)
    5f90:	00400ae8 	.word	0x00400ae8

00005f94 <event_stop>:
    5f94:	4b03      	ldr	r3, [pc, #12]	@ (5fa4 <event_stop+0x10>)
    5f96:	2202      	movs	r2, #2
    5f98:	761a      	strb	r2, [r3, #24]
    5f9a:	4a03      	ldr	r2, [pc, #12]	@ (5fa8 <event_stop+0x14>)
    5f9c:	6cd9      	ldr	r1, [r3, #76]	@ 0x4c
    5f9e:	6011      	str	r1, [r2, #0]
    5fa0:	6398      	str	r0, [r3, #56]	@ 0x38
    5fa2:	4770      	bx	lr
    5fa4:	00400ae8 	.word	0x00400ae8
    5fa8:	1f000014 	.word	0x1f000014

00005fac <event_alloc>:
    5fac:	b570      	push	{r4, r5, r6, lr}
    5fae:	211c      	movs	r1, #28
    5fb0:	0005      	movs	r5, r0
    5fb2:	f000 f97b 	bl	62ac <sark_alloc>
    5fb6:	1e04      	subs	r4, r0, #0
    5fb8:	d015      	beq.n	5fe6 <event_alloc+0x3a>
    5fba:	221c      	movs	r2, #28
    5fbc:	0029      	movs	r1, r5
    5fbe:	f7ff fd09 	bl	59d4 <sark_block_init>
    5fc2:	0023      	movs	r3, r4
    5fc4:	2200      	movs	r2, #0
    5fc6:	0006      	movs	r6, r0
    5fc8:	3d01      	subs	r5, #1
    5fca:	d209      	bcs.n	5fe0 <event_alloc+0x34>
    5fcc:	f7fa e8f4 	blx	1b8 <cpu_int_disable>
    5fd0:	4b08      	ldr	r3, [pc, #32]	@ (5ff4 <event_alloc+0x48>)
    5fd2:	681a      	ldr	r2, [r3, #0]
    5fd4:	6032      	str	r2, [r6, #0]
    5fd6:	601c      	str	r4, [r3, #0]
    5fd8:	f7fa e8f6 	blx	1c8 <cpu_int_restore>
    5fdc:	2001      	movs	r0, #1
    5fde:	bd70      	pop	{r4, r5, r6, pc}
    5fe0:	761a      	strb	r2, [r3, #24]
    5fe2:	681b      	ldr	r3, [r3, #0]
    5fe4:	e7f0      	b.n	5fc8 <event_alloc+0x1c>
    5fe6:	4a03      	ldr	r2, [pc, #12]	@ (5ff4 <event_alloc+0x48>)
    5fe8:	2308      	movs	r3, #8
    5fea:	6951      	ldr	r1, [r2, #20]
    5fec:	430b      	orrs	r3, r1
    5fee:	6153      	str	r3, [r2, #20]
    5ff0:	e7f5      	b.n	5fde <event_alloc+0x32>
    5ff2:	46c0      	nop			@ (mov r8, r8)
    5ff4:	00400ae8 	.word	0x00400ae8

00005ff8 <timer_cancel_init>:
    5ff8:	4b03      	ldr	r3, [pc, #12]	@ (6008 <timer_cancel_init+0x10>)
    5ffa:	2200      	movs	r2, #0
    5ffc:	605a      	str	r2, [r3, #4]
    5ffe:	615a      	str	r2, [r3, #20]
    6000:	611a      	str	r2, [r3, #16]
    6002:	3201      	adds	r2, #1
    6004:	761a      	strb	r2, [r3, #24]
    6006:	4770      	bx	lr
    6008:	00400b80 	.word	0x00400b80

0000600c <sark_vic_init>:
    600c:	4b0b      	ldr	r3, [pc, #44]	@ (603c <sark_vic_init+0x30>)
    600e:	2201      	movs	r2, #1
    6010:	4252      	negs	r2, r2
    6012:	b510      	push	{r4, lr}
    6014:	601a      	str	r2, [r3, #0]
    6016:	4b0a      	ldr	r3, [pc, #40]	@ (6040 <sark_vic_init+0x34>)
    6018:	2200      	movs	r2, #0
    601a:	601a      	str	r2, [r3, #0]
    601c:	4b09      	ldr	r3, [pc, #36]	@ (6044 <sark_vic_init+0x38>)
    601e:	4c0a      	ldr	r4, [pc, #40]	@ (6048 <sark_vic_init+0x3c>)
    6020:	601a      	str	r2, [r3, #0]
    6022:	490a      	ldr	r1, [pc, #40]	@ (604c <sark_vic_init+0x40>)
    6024:	4b0a      	ldr	r3, [pc, #40]	@ (6050 <sark_vic_init+0x44>)
    6026:	1e58      	subs	r0, r3, #1
    6028:	601a      	str	r2, [r3, #0]
    602a:	38ff      	subs	r0, #255	@ 0xff
    602c:	3304      	adds	r3, #4
    602e:	6004      	str	r4, [r0, #0]
    6030:	428b      	cmp	r3, r1
    6032:	d1f8      	bne.n	6026 <sark_vic_init+0x1a>
    6034:	4a07      	ldr	r2, [pc, #28]	@ (6054 <sark_vic_init+0x48>)
    6036:	4b08      	ldr	r3, [pc, #32]	@ (6058 <sark_vic_init+0x4c>)
    6038:	6013      	str	r3, [r2, #0]
    603a:	bd10      	pop	{r4, pc}
    603c:	1f000014 	.word	0x1f000014
    6040:	1f00000c 	.word	0x1f00000c
    6044:	1f000030 	.word	0x1f000030
    6048:	00000108 	.word	0x00000108
    604c:	1f000240 	.word	0x1f000240
    6050:	1f000200 	.word	0x1f000200
    6054:	1f000034 	.word	0x1f000034
    6058:	00000320 	.word	0x00000320

0000605c <sark_vic_set>:
    605c:	b510      	push	{r4, lr}
    605e:	2810      	cmp	r0, #16
    6060:	d10b      	bne.n	607a <sark_vic_set+0x1e>
    6062:	62c3      	str	r3, [r0, #44]	@ 0x2c
    6064:	2301      	movs	r3, #1
    6066:	480a      	ldr	r0, [pc, #40]	@ (6090 <sark_vic_set+0x34>)
    6068:	408b      	lsls	r3, r1
    606a:	6003      	str	r3, [r0, #0]
    606c:	2a00      	cmp	r2, #0
    606e:	d003      	beq.n	6078 <sark_vic_set+0x1c>
    6070:	4a08      	ldr	r2, [pc, #32]	@ (6094 <sark_vic_set+0x38>)
    6072:	2301      	movs	r3, #1
    6074:	408b      	lsls	r3, r1
    6076:	6013      	str	r3, [r2, #0]
    6078:	bd10      	pop	{r4, pc}
    607a:	3040      	adds	r0, #64	@ 0x40
    607c:	24f8      	movs	r4, #248	@ 0xf8
    607e:	0080      	lsls	r0, r0, #2
    6080:	0564      	lsls	r4, r4, #21
    6082:	1904      	adds	r4, r0, r4
    6084:	6023      	str	r3, [r4, #0]
    6086:	4b04      	ldr	r3, [pc, #16]	@ (6098 <sark_vic_set+0x3c>)
    6088:	18c0      	adds	r0, r0, r3
    608a:	2320      	movs	r3, #32
    608c:	430b      	orrs	r3, r1
    608e:	e7ec      	b.n	606a <sark_vic_set+0xe>
    6090:	1f00000c 	.word	0x1f00000c
    6094:	1f000010 	.word	0x1f000010
    6098:	1f000100 	.word	0x1f000100

0000609c <v2p_mask>:
    609c:	2300      	movs	r3, #0
    609e:	0002      	movs	r2, r0
    60a0:	2101      	movs	r1, #1
    60a2:	0018      	movs	r0, r3
    60a4:	b530      	push	{r4, r5, lr}
    60a6:	000c      	movs	r4, r1
    60a8:	409c      	lsls	r4, r3
    60aa:	4222      	tst	r2, r4
    60ac:	d005      	beq.n	60ba <v2p_mask+0x1e>
    60ae:	4c05      	ldr	r4, [pc, #20]	@ (60c4 <v2p_mask+0x28>)
    60b0:	000d      	movs	r5, r1
    60b2:	191c      	adds	r4, r3, r4
    60b4:	7824      	ldrb	r4, [r4, #0]
    60b6:	40a5      	lsls	r5, r4
    60b8:	4328      	orrs	r0, r5
    60ba:	3301      	adds	r3, #1
    60bc:	2b12      	cmp	r3, #18
    60be:	d1f2      	bne.n	60a6 <v2p_mask+0xa>
    60c0:	bd30      	pop	{r4, r5, pc}
    60c2:	46c0      	nop			@ (mov r8, r8)
    60c4:	e5007fa8 	.word	0xe5007fa8

000060c8 <rtr_mc_clear>:
    60c8:	1841      	adds	r1, r0, r1
    60ca:	2280      	movs	r2, #128	@ 0x80
    60cc:	0003      	movs	r3, r0
    60ce:	00d2      	lsls	r2, r2, #3
    60d0:	2000      	movs	r0, #0
    60d2:	b5f0      	push	{r4, r5, r6, r7, lr}
    60d4:	4291      	cmp	r1, r2
    60d6:	d812      	bhi.n	60fe <rtr_mc_clear+0x36>
    60d8:	480f      	ldr	r0, [pc, #60]	@ (6118 <rtr_mc_clear+0x50>)
    60da:	009a      	lsls	r2, r3, #2
    60dc:	1812      	adds	r2, r2, r0
    60de:	480f      	ldr	r0, [pc, #60]	@ (611c <rtr_mc_clear+0x54>)
    60e0:	2580      	movs	r5, #128	@ 0x80
    60e2:	6800      	ldr	r0, [r0, #0]
    60e4:	011c      	lsls	r4, r3, #4
    60e6:	01ed      	lsls	r5, r5, #7
    60e8:	1900      	adds	r0, r0, r4
    60ea:	2780      	movs	r7, #128	@ 0x80
    60ec:	24ff      	movs	r4, #255	@ 0xff
    60ee:	46ac      	mov	ip, r5
    60f0:	2501      	movs	r5, #1
    60f2:	0624      	lsls	r4, r4, #24
    60f4:	023f      	lsls	r7, r7, #8
    60f6:	426d      	negs	r5, r5
    60f8:	4299      	cmp	r1, r3
    60fa:	d801      	bhi.n	6100 <rtr_mc_clear+0x38>
    60fc:	2001      	movs	r0, #1
    60fe:	bdf0      	pop	{r4, r5, r6, r7, pc}
    6100:	2600      	movs	r6, #0
    6102:	6014      	str	r4, [r2, #0]
    6104:	6044      	str	r4, [r0, #4]
    6106:	51d6      	str	r6, [r2, r7]
    6108:	60c6      	str	r6, [r0, #12]
    610a:	4666      	mov	r6, ip
    610c:	5195      	str	r5, [r2, r6]
    610e:	3301      	adds	r3, #1
    6110:	6085      	str	r5, [r0, #8]
    6112:	3204      	adds	r2, #4
    6114:	3010      	adds	r0, #16
    6116:	e7ef      	b.n	60f8 <rtr_mc_clear+0x30>
    6118:	e1004000 	.word	0xe1004000
    611c:	e5007fd4 	.word	0xe5007fd4

00006120 <rtr_mc_set>:
    6120:	b5f7      	push	{r0, r1, r2, r4, r5, r6, r7, lr}
    6122:	001d      	movs	r5, r3
    6124:	2380      	movs	r3, #128	@ 0x80
    6126:	0004      	movs	r4, r0
    6128:	000f      	movs	r7, r1
    612a:	00db      	lsls	r3, r3, #3
    612c:	2000      	movs	r0, #0
    612e:	9201      	str	r2, [sp, #4]
    6130:	429c      	cmp	r4, r3
    6132:	d224      	bcs.n	617e <rtr_mc_set+0x5e>
    6134:	4a12      	ldr	r2, [pc, #72]	@ (6180 <rtr_mc_set+0x60>)
    6136:	0123      	lsls	r3, r4, #4
    6138:	6816      	ldr	r6, [r2, #0]
    613a:	0e2a      	lsrs	r2, r5, #24
    613c:	18f6      	adds	r6, r6, r3
    613e:	4282      	cmp	r2, r0
    6140:	d101      	bne.n	6146 <rtr_mc_set+0x26>
    6142:	235c      	movs	r3, #92	@ 0x5c
    6144:	781a      	ldrb	r2, [r3, #0]
    6146:	0228      	lsls	r0, r5, #8
    6148:	0a03      	lsrs	r3, r0, #8
    614a:	6073      	str	r3, [r6, #4]
    614c:	4b0d      	ldr	r3, [pc, #52]	@ (6184 <rtr_mc_set+0x64>)
    614e:	490e      	ldr	r1, [pc, #56]	@ (6188 <rtr_mc_set+0x68>)
    6150:	681b      	ldr	r3, [r3, #0]
    6152:	0b80      	lsrs	r0, r0, #14
    6154:	021b      	lsls	r3, r3, #8
    6156:	185b      	adds	r3, r3, r1
    6158:	189b      	adds	r3, r3, r2
    615a:	8073      	strh	r3, [r6, #2]
    615c:	f7ff ff9e 	bl	609c <v2p_mask>
    6160:	233f      	movs	r3, #63	@ 0x3f
    6162:	401d      	ands	r5, r3
    6164:	4b09      	ldr	r3, [pc, #36]	@ (618c <rtr_mc_set+0x6c>)
    6166:	00a4      	lsls	r4, r4, #2
    6168:	9a01      	ldr	r2, [sp, #4]
    616a:	0180      	lsls	r0, r0, #6
    616c:	4305      	orrs	r5, r0
    616e:	50e5      	str	r5, [r4, r3]
    6170:	4b07      	ldr	r3, [pc, #28]	@ (6190 <rtr_mc_set+0x70>)
    6172:	2001      	movs	r0, #1
    6174:	50e7      	str	r7, [r4, r3]
    6176:	4b07      	ldr	r3, [pc, #28]	@ (6194 <rtr_mc_set+0x74>)
    6178:	60b7      	str	r7, [r6, #8]
    617a:	50e2      	str	r2, [r4, r3]
    617c:	60f2      	str	r2, [r6, #12]
    617e:	bdfe      	pop	{r1, r2, r3, r4, r5, r6, r7, pc}
    6180:	e5007fd4 	.word	0xe5007fd4
    6184:	00400aac 	.word	0x00400aac
    6188:	ffff8000 	.word	0xffff8000
    618c:	e1004000 	.word	0xe1004000
    6190:	e1008000 	.word	0xe1008000
    6194:	e100c000 	.word	0xe100c000

00006198 <sark_fiq_han>:
    6198:	e92d000c 	push	{r2, r3}
    619c:	e59f2018 	ldr	r2, [pc, #24]	@ 61bc <sark_fiq_han+0x24>
    61a0:	e3a03202 	mov	r3, #536870912	@ 0x20000000
    61a4:	e5933014 	ldr	r3, [r3, #20]
    61a8:	e5923038 	ldr	r3, [r2, #56]	@ 0x38
    61ac:	e2833001 	add	r3, r3, #1
    61b0:	e5823038 	str	r3, [r2, #56]	@ 0x38
    61b4:	e8bd000c 	pop	{r2, r3}
    61b8:	e25ef004 	subs	pc, lr, #4
    61bc:	00400aac 	.word	0x00400aac

000061c0 <sark_xalloc>:
    61c0:	b5f0      	push	{r4, r5, r6, r7, lr}
    61c2:	0006      	movs	r6, r0
    61c4:	b085      	sub	sp, #20
    61c6:	0017      	movs	r7, r2
    61c8:	2900      	cmp	r1, #0
    61ca:	d102      	bne.n	61d2 <sark_xalloc+0x12>
    61cc:	2000      	movs	r0, #0
    61ce:	b005      	add	sp, #20
    61d0:	bdf0      	pop	{r4, r5, r6, r7, pc}
    61d2:	2aff      	cmp	r2, #255	@ 0xff
    61d4:	d8fa      	bhi.n	61cc <sark_xalloc+0xc>
    61d6:	0a1d      	lsrs	r5, r3, #8
    61d8:	079a      	lsls	r2, r3, #30
    61da:	d401      	bmi.n	61e0 <sark_xalloc+0x20>
    61dc:	225c      	movs	r2, #92	@ 0x5c
    61de:	7815      	ldrb	r5, [r2, #0]
    61e0:	022d      	lsls	r5, r5, #8
    61e2:	19ed      	adds	r5, r5, r7
    61e4:	2f00      	cmp	r7, #0
    61e6:	d00f      	beq.n	6208 <sark_xalloc+0x48>
    61e8:	4a2e      	ldr	r2, [pc, #184]	@ (62a4 <sark_xalloc+0xe4>)
    61ea:	00a8      	lsls	r0, r5, #2
    61ec:	6812      	ldr	r2, [r2, #0]
    61ee:	5880      	ldr	r0, [r0, r2]
    61f0:	2800      	cmp	r0, #0
    61f2:	d009      	beq.n	6208 <sark_xalloc+0x48>
    61f4:	075b      	lsls	r3, r3, #29
    61f6:	d5e9      	bpl.n	61cc <sark_xalloc+0xc>
    61f8:	0002      	movs	r2, r0
    61fa:	3a08      	subs	r2, #8
    61fc:	6813      	ldr	r3, [r2, #0]
    61fe:	1a9b      	subs	r3, r3, r2
    6200:	3b08      	subs	r3, #8
    6202:	4299      	cmp	r1, r3
    6204:	d0e3      	beq.n	61ce <sark_xalloc+0xe>
    6206:	e7e1      	b.n	61cc <sark_xalloc+0xc>
    6208:	2203      	movs	r2, #3
    620a:	3103      	adds	r1, #3
    620c:	4391      	bics	r1, r2
    620e:	3108      	adds	r1, #8
    6210:	3a02      	subs	r2, #2
    6212:	9103      	str	r1, [sp, #12]
    6214:	0019      	movs	r1, r3
    6216:	4011      	ands	r1, r2
    6218:	2000      	movs	r0, #0
    621a:	9102      	str	r1, [sp, #8]
    621c:	4213      	tst	r3, r2
    621e:	d002      	beq.n	6226 <sark_xalloc+0x66>
    6220:	3006      	adds	r0, #6
    6222:	f7f9 efda 	blx	1d8 <sark_lock_get>
    6226:	6834      	ldr	r4, [r6, #0]
    6228:	2300      	movs	r3, #0
    622a:	9301      	str	r3, [sp, #4]
    622c:	2c00      	cmp	r4, #0
    622e:	d106      	bne.n	623e <sark_xalloc+0x7e>
    6230:	9b02      	ldr	r3, [sp, #8]
    6232:	2b00      	cmp	r3, #0
    6234:	d0ca      	beq.n	61cc <sark_xalloc+0xc>
    6236:	2106      	movs	r1, #6
    6238:	f7f9 efe0 	blx	1fc <sark_lock_free>
    623c:	e7c6      	b.n	61cc <sark_xalloc+0xc>
    623e:	9b03      	ldr	r3, [sp, #12]
    6240:	6821      	ldr	r1, [r4, #0]
    6242:	18e3      	adds	r3, r4, r3
    6244:	429c      	cmp	r4, r3
    6246:	d2f3      	bcs.n	6230 <sark_xalloc+0x70>
    6248:	6862      	ldr	r2, [r4, #4]
    624a:	4694      	mov	ip, r2
    624c:	4299      	cmp	r1, r3
    624e:	d325      	bcc.n	629c <sark_xalloc+0xdc>
    6250:	001a      	movs	r2, r3
    6252:	3208      	adds	r2, #8
    6254:	4291      	cmp	r1, r2
    6256:	d904      	bls.n	6262 <sark_xalloc+0xa2>
    6258:	4662      	mov	r2, ip
    625a:	6019      	str	r1, [r3, #0]
    625c:	6023      	str	r3, [r4, #0]
    625e:	605a      	str	r2, [r3, #4]
    6260:	6063      	str	r3, [r4, #4]
    6262:	9a01      	ldr	r2, [sp, #4]
    6264:	6863      	ldr	r3, [r4, #4]
    6266:	2a00      	cmp	r2, #0
    6268:	d016      	beq.n	6298 <sark_xalloc+0xd8>
    626a:	6053      	str	r3, [r2, #4]
    626c:	68f3      	ldr	r3, [r6, #12]
    626e:	9a03      	ldr	r2, [sp, #12]
    6270:	1a9b      	subs	r3, r3, r2
    6272:	60f3      	str	r3, [r6, #12]
    6274:	9b02      	ldr	r3, [sp, #8]
    6276:	2b00      	cmp	r3, #0
    6278:	d002      	beq.n	6280 <sark_xalloc+0xc0>
    627a:	2106      	movs	r1, #6
    627c:	f7f9 efbe 	blx	1fc <sark_lock_free>
    6280:	4b09      	ldr	r3, [pc, #36]	@ (62a8 <sark_xalloc+0xe8>)
    6282:	0020      	movs	r0, r4
    6284:	18eb      	adds	r3, r5, r3
    6286:	3008      	adds	r0, #8
    6288:	6063      	str	r3, [r4, #4]
    628a:	2f00      	cmp	r7, #0
    628c:	d09f      	beq.n	61ce <sark_xalloc+0xe>
    628e:	4b05      	ldr	r3, [pc, #20]	@ (62a4 <sark_xalloc+0xe4>)
    6290:	00ad      	lsls	r5, r5, #2
    6292:	681b      	ldr	r3, [r3, #0]
    6294:	50e8      	str	r0, [r5, r3]
    6296:	e79a      	b.n	61ce <sark_xalloc+0xe>
    6298:	6033      	str	r3, [r6, #0]
    629a:	e7e7      	b.n	626c <sark_xalloc+0xac>
    629c:	9401      	str	r4, [sp, #4]
    629e:	0014      	movs	r4, r2
    62a0:	e7c4      	b.n	622c <sark_xalloc+0x6c>
    62a2:	46c0      	nop			@ (mov r8, r8)
    62a4:	e5007fdc 	.word	0xe5007fdc
    62a8:	ffff0000 	.word	0xffff0000

000062ac <sark_alloc>:
    62ac:	b510      	push	{r4, lr}
    62ae:	4c04      	ldr	r4, [pc, #16]	@ (62c0 <sark_alloc+0x14>)
    62b0:	2300      	movs	r3, #0
    62b2:	4341      	muls	r1, r0
    62b4:	001a      	movs	r2, r3
    62b6:	69a0      	ldr	r0, [r4, #24]
    62b8:	f7ff ff82 	bl	61c0 <sark_xalloc>
    62bc:	bd10      	pop	{r4, pc}
    62be:	46c0      	nop			@ (mov r8, r8)
    62c0:	00400aac 	.word	0x00400aac

000062c4 <sark_xfree>:
    62c4:	b5f7      	push	{r0, r1, r2, r4, r5, r6, r7, lr}
    62c6:	2301      	movs	r3, #1
    62c8:	0016      	movs	r6, r2
    62ca:	401e      	ands	r6, r3
    62cc:	0005      	movs	r5, r0
    62ce:	000c      	movs	r4, r1
    62d0:	2000      	movs	r0, #0
    62d2:	9601      	str	r6, [sp, #4]
    62d4:	421a      	tst	r2, r3
    62d6:	d002      	beq.n	62de <sark_xfree+0x1a>
    62d8:	3006      	adds	r0, #6
    62da:	f7f9 ef7e 	blx	1d8 <sark_lock_get>
    62de:	0021      	movs	r1, r4
    62e0:	3908      	subs	r1, #8
    62e2:	684a      	ldr	r2, [r1, #4]
    62e4:	682b      	ldr	r3, [r5, #0]
    62e6:	0617      	lsls	r7, r2, #24
    62e8:	0e3f      	lsrs	r7, r7, #24
    62ea:	d007      	beq.n	62fc <sark_xfree+0x38>
    62ec:	4f1d      	ldr	r7, [pc, #116]	@ (6364 <sark_xfree+0xa0>)
    62ee:	0412      	lsls	r2, r2, #16
    62f0:	0c12      	lsrs	r2, r2, #16
    62f2:	0092      	lsls	r2, r2, #2
    62f4:	683f      	ldr	r7, [r7, #0]
    62f6:	0016      	movs	r6, r2
    62f8:	2200      	movs	r2, #0
    62fa:	51f2      	str	r2, [r6, r7]
    62fc:	3c08      	subs	r4, #8
    62fe:	6827      	ldr	r7, [r4, #0]
    6300:	1a7a      	subs	r2, r7, r1
    6302:	4694      	mov	ip, r2
    6304:	68ea      	ldr	r2, [r5, #12]
    6306:	4462      	add	r2, ip
    6308:	60ea      	str	r2, [r5, #12]
    630a:	2200      	movs	r2, #0
    630c:	2b00      	cmp	r3, #0
    630e:	d10d      	bne.n	632c <sark_xfree+0x68>
    6310:	6063      	str	r3, [r4, #4]
    6312:	2a00      	cmp	r2, #0
    6314:	d00f      	beq.n	6336 <sark_xfree+0x72>
    6316:	6051      	str	r1, [r2, #4]
    6318:	2b00      	cmp	r3, #0
    631a:	d11f      	bne.n	635c <sark_xfree+0x98>
    631c:	6813      	ldr	r3, [r2, #0]
    631e:	428b      	cmp	r3, r1
    6320:	d10c      	bne.n	633c <sark_xfree+0x78>
    6322:	6823      	ldr	r3, [r4, #0]
    6324:	6013      	str	r3, [r2, #0]
    6326:	6863      	ldr	r3, [r4, #4]
    6328:	6053      	str	r3, [r2, #4]
    632a:	e007      	b.n	633c <sark_xfree+0x78>
    632c:	428b      	cmp	r3, r1
    632e:	d8ef      	bhi.n	6310 <sark_xfree+0x4c>
    6330:	001a      	movs	r2, r3
    6332:	685b      	ldr	r3, [r3, #4]
    6334:	e7ea      	b.n	630c <sark_xfree+0x48>
    6336:	6029      	str	r1, [r5, #0]
    6338:	2b00      	cmp	r3, #0
    633a:	d106      	bne.n	634a <sark_xfree+0x86>
    633c:	9b01      	ldr	r3, [sp, #4]
    633e:	2b00      	cmp	r3, #0
    6340:	d002      	beq.n	6348 <sark_xfree+0x84>
    6342:	2106      	movs	r1, #6
    6344:	f7f9 ef5a 	blx	1fc <sark_lock_free>
    6348:	bdf7      	pop	{r0, r1, r2, r4, r5, r6, r7, pc}
    634a:	429f      	cmp	r7, r3
    634c:	d1f6      	bne.n	633c <sark_xfree+0x78>
    634e:	681d      	ldr	r5, [r3, #0]
    6350:	685b      	ldr	r3, [r3, #4]
    6352:	6025      	str	r5, [r4, #0]
    6354:	6063      	str	r3, [r4, #4]
    6356:	2a00      	cmp	r2, #0
    6358:	d1e0      	bne.n	631c <sark_xfree+0x58>
    635a:	e7ef      	b.n	633c <sark_xfree+0x78>
    635c:	429f      	cmp	r7, r3
    635e:	d1dd      	bne.n	631c <sark_xfree+0x58>
    6360:	e7f5      	b.n	634e <sark_xfree+0x8a>
    6362:	46c0      	nop			@ (mov r8, r8)
    6364:	e5007fdc 	.word	0xe5007fdc

00006368 <sark_free>:
    6368:	4b03      	ldr	r3, [pc, #12]	@ (6378 <sark_free+0x10>)
    636a:	0001      	movs	r1, r0
    636c:	b510      	push	{r4, lr}
    636e:	6998      	ldr	r0, [r3, #24]
    6370:	2200      	movs	r2, #0
    6372:	f7ff ffa7 	bl	62c4 <sark_xfree>
    6376:	bd10      	pop	{r4, pc}
    6378:	00400aac 	.word	0x00400aac

0000637c <sark_heap_init>:
    637c:	0003      	movs	r3, r0
    637e:	3908      	subs	r1, #8
    6380:	3310      	adds	r3, #16
    6382:	6043      	str	r3, [r0, #4]
    6384:	6003      	str	r3, [r0, #0]
    6386:	1acb      	subs	r3, r1, r3
    6388:	3b08      	subs	r3, #8
    638a:	60c3      	str	r3, [r0, #12]
    638c:	2300      	movs	r3, #0
    638e:	6101      	str	r1, [r0, #16]
    6390:	6081      	str	r1, [r0, #8]
    6392:	600b      	str	r3, [r1, #0]
    6394:	6143      	str	r3, [r0, #20]
    6396:	604b      	str	r3, [r1, #4]
    6398:	4770      	bx	lr
	...

0000639c <rtr_alloc_id>:
    639c:	b5f7      	push	{r0, r1, r2, r4, r5, r6, r7, lr}
    639e:	1e04      	subs	r4, r0, #0
    63a0:	9101      	str	r1, [sp, #4]
    63a2:	d02d      	beq.n	6400 <rtr_alloc_id+0x64>
    63a4:	4b19      	ldr	r3, [pc, #100]	@ (640c <rtr_alloc_id+0x70>)
    63a6:	2007      	movs	r0, #7
    63a8:	681e      	ldr	r6, [r3, #0]
    63aa:	f7f9 ef16 	blx	1d8 <sark_lock_get>
    63ae:	4b18      	ldr	r3, [pc, #96]	@ (6410 <rtr_alloc_id+0x74>)
    63b0:	2200      	movs	r2, #0
    63b2:	9000      	str	r0, [sp, #0]
    63b4:	881d      	ldrh	r5, [r3, #0]
    63b6:	2d00      	cmp	r5, #0
    63b8:	d01d      	beq.n	63f6 <rtr_alloc_id+0x5a>
    63ba:	012b      	lsls	r3, r5, #4
    63bc:	5af0      	ldrh	r0, [r6, r3]
    63be:	18f1      	adds	r1, r6, r3
    63c0:	1963      	adds	r3, r4, r5
    63c2:	884f      	ldrh	r7, [r1, #2]
    63c4:	4298      	cmp	r0, r3
    63c6:	d202      	bcs.n	63ce <rtr_alloc_id+0x32>
    63c8:	002a      	movs	r2, r5
    63ca:	003d      	movs	r5, r7
    63cc:	e7f3      	b.n	63b6 <rtr_alloc_id+0x1a>
    63ce:	4298      	cmp	r0, r3
    63d0:	d907      	bls.n	63e2 <rtr_alloc_id+0x46>
    63d2:	011c      	lsls	r4, r3, #4
    63d4:	041b      	lsls	r3, r3, #16
    63d6:	1934      	adds	r4, r6, r4
    63d8:	0c1b      	lsrs	r3, r3, #16
    63da:	8020      	strh	r0, [r4, #0]
    63dc:	800b      	strh	r3, [r1, #0]
    63de:	8067      	strh	r7, [r4, #2]
    63e0:	804b      	strh	r3, [r1, #2]
    63e2:	884b      	ldrh	r3, [r1, #2]
    63e4:	2a00      	cmp	r2, #0
    63e6:	d00d      	beq.n	6404 <rtr_alloc_id+0x68>
    63e8:	0112      	lsls	r2, r2, #4
    63ea:	18b2      	adds	r2, r6, r2
    63ec:	8053      	strh	r3, [r2, #2]
    63ee:	4b09      	ldr	r3, [pc, #36]	@ (6414 <rtr_alloc_id+0x78>)
    63f0:	9a01      	ldr	r2, [sp, #4]
    63f2:	4313      	orrs	r3, r2
    63f4:	804b      	strh	r3, [r1, #2]
    63f6:	9800      	ldr	r0, [sp, #0]
    63f8:	2107      	movs	r1, #7
    63fa:	f7f9 ef00 	blx	1fc <sark_lock_free>
    63fe:	002c      	movs	r4, r5
    6400:	0020      	movs	r0, r4
    6402:	bdfe      	pop	{r1, r2, r3, r4, r5, r6, r7, pc}
    6404:	4a02      	ldr	r2, [pc, #8]	@ (6410 <rtr_alloc_id+0x74>)
    6406:	8013      	strh	r3, [r2, #0]
    6408:	e7f1      	b.n	63ee <rtr_alloc_id+0x52>
    640a:	46c0      	nop			@ (mov r8, r8)
    640c:	e5007fd4 	.word	0xe5007fd4
    6410:	e5007fe0 	.word	0xe5007fe0
    6414:	ffff8000 	.word	0xffff8000

00006418 <rtr_alloc>:
    6418:	235c      	movs	r3, #92	@ 0x5c
    641a:	b510      	push	{r4, lr}
    641c:	7819      	ldrb	r1, [r3, #0]
    641e:	f7ff ffbd 	bl	639c <rtr_alloc_id>
    6422:	bd10      	pop	{r4, pc}

00006424 <rtr_free>:
    6424:	4b25      	ldr	r3, [pc, #148]	@ (64bc <rtr_free+0x98>)
    6426:	b5f7      	push	{r0, r1, r2, r4, r5, r6, r7, lr}
    6428:	1e42      	subs	r2, r0, #1
    642a:	0006      	movs	r6, r0
    642c:	9101      	str	r1, [sp, #4]
    642e:	429a      	cmp	r2, r3
    6430:	d843      	bhi.n	64ba <rtr_free+0x96>
    6432:	4b23      	ldr	r3, [pc, #140]	@ (64c0 <rtr_free+0x9c>)
    6434:	2007      	movs	r0, #7
    6436:	681f      	ldr	r7, [r3, #0]
    6438:	f7f9 eece 	blx	1d8 <sark_lock_get>
    643c:	4b21      	ldr	r3, [pc, #132]	@ (64c4 <rtr_free+0xa0>)
    643e:	0135      	lsls	r5, r6, #4
    6440:	197d      	adds	r5, r7, r5
    6442:	9000      	str	r0, [sp, #0]
    6444:	881c      	ldrh	r4, [r3, #0]
    6446:	9b01      	ldr	r3, [sp, #4]
    6448:	2b00      	cmp	r3, #0
    644a:	d004      	beq.n	6456 <rtr_free+0x32>
    644c:	8829      	ldrh	r1, [r5, #0]
    644e:	0030      	movs	r0, r6
    6450:	1b89      	subs	r1, r1, r6
    6452:	f7ff fe39 	bl	60c8 <rtr_mc_clear>
    6456:	2300      	movs	r3, #0
    6458:	2c00      	cmp	r4, #0
    645a:	d113      	bne.n	6484 <rtr_free+0x60>
    645c:	0432      	lsls	r2, r6, #16
    645e:	0c12      	lsrs	r2, r2, #16
    6460:	806c      	strh	r4, [r5, #2]
    6462:	2b00      	cmp	r3, #0
    6464:	d021      	beq.n	64aa <rtr_free+0x86>
    6466:	0119      	lsls	r1, r3, #4
    6468:	1879      	adds	r1, r7, r1
    646a:	804a      	strh	r2, [r1, #2]
    646c:	2c00      	cmp	r4, #0
    646e:	d110      	bne.n	6492 <rtr_free+0x6e>
    6470:	011b      	lsls	r3, r3, #4
    6472:	18fa      	adds	r2, r7, r3
    6474:	5afb      	ldrh	r3, [r7, r3]
    6476:	429e      	cmp	r6, r3
    6478:	d11b      	bne.n	64b2 <rtr_free+0x8e>
    647a:	882b      	ldrh	r3, [r5, #0]
    647c:	8013      	strh	r3, [r2, #0]
    647e:	886b      	ldrh	r3, [r5, #2]
    6480:	8053      	strh	r3, [r2, #2]
    6482:	e016      	b.n	64b2 <rtr_free+0x8e>
    6484:	42a6      	cmp	r6, r4
    6486:	d3e9      	bcc.n	645c <rtr_free+0x38>
    6488:	0122      	lsls	r2, r4, #4
    648a:	18ba      	adds	r2, r7, r2
    648c:	0023      	movs	r3, r4
    648e:	8854      	ldrh	r4, [r2, #2]
    6490:	e7e2      	b.n	6458 <rtr_free+0x34>
    6492:	882a      	ldrh	r2, [r5, #0]
    6494:	4294      	cmp	r4, r2
    6496:	d105      	bne.n	64a4 <rtr_free+0x80>
    6498:	0124      	lsls	r4, r4, #4
    649a:	5b39      	ldrh	r1, [r7, r4]
    649c:	193a      	adds	r2, r7, r4
    649e:	8029      	strh	r1, [r5, #0]
    64a0:	8852      	ldrh	r2, [r2, #2]
    64a2:	806a      	strh	r2, [r5, #2]
    64a4:	2b00      	cmp	r3, #0
    64a6:	d004      	beq.n	64b2 <rtr_free+0x8e>
    64a8:	e7e2      	b.n	6470 <rtr_free+0x4c>
    64aa:	4906      	ldr	r1, [pc, #24]	@ (64c4 <rtr_free+0xa0>)
    64ac:	800a      	strh	r2, [r1, #0]
    64ae:	2c00      	cmp	r4, #0
    64b0:	d1ef      	bne.n	6492 <rtr_free+0x6e>
    64b2:	9800      	ldr	r0, [sp, #0]
    64b4:	2107      	movs	r1, #7
    64b6:	f7f9 eea2 	blx	1fc <sark_lock_free>
    64ba:	bdf7      	pop	{r0, r1, r2, r4, r5, r6, r7, pc}
    64bc:	000003fe 	.word	0x000003fe
    64c0:	e5007fd4 	.word	0xe5007fd4
    64c4:	e5007fe0 	.word	0xe5007fe0

000064c8 <io_buf_init>:
    64c8:	b510      	push	{r4, lr}
    64ca:	4c0c      	ldr	r4, [pc, #48]	@ (64fc <io_buf_init+0x34>)
    64cc:	480c      	ldr	r0, [pc, #48]	@ (6500 <io_buf_init+0x38>)
    64ce:	6d21      	ldr	r1, [r4, #80]	@ 0x50
    64d0:	6800      	ldr	r0, [r0, #0]
    64d2:	3110      	adds	r1, #16
    64d4:	2301      	movs	r3, #1
    64d6:	2200      	movs	r2, #0
    64d8:	f7ff fe72 	bl	61c0 <sark_xalloc>
    64dc:	2800      	cmp	r0, #0
    64de:	d102      	bne.n	64e6 <io_buf_init+0x1e>
    64e0:	300e      	adds	r0, #14
    64e2:	f7f9 ee24 	blx	12c <rt_error>
    64e6:	69e3      	ldr	r3, [r4, #28]
    64e8:	4a06      	ldr	r2, [pc, #24]	@ (6504 <io_buf_init+0x3c>)
    64ea:	6043      	str	r3, [r0, #4]
    64ec:	8b23      	ldrh	r3, [r4, #24]
    64ee:	6083      	str	r3, [r0, #8]
    64f0:	2300      	movs	r3, #0
    64f2:	6003      	str	r3, [r0, #0]
    64f4:	6013      	str	r3, [r2, #0]
    64f6:	60c3      	str	r3, [r0, #12]
    64f8:	bd10      	pop	{r4, pc}
    64fa:	46c0      	nop			@ (mov r8, r8)
    64fc:	e5007f00 	.word	0xe5007f00
    6500:	e5007fd0 	.word	0xe5007fd0
    6504:	00400ba4 	.word	0x00400ba4

00006508 <io_put_char>:
    6508:	b570      	push	{r4, r5, r6, lr}
    650a:	000c      	movs	r4, r1
    650c:	2803      	cmp	r0, #3
    650e:	d907      	bls.n	6520 <io_put_char+0x18>
    6510:	4931      	ldr	r1, [pc, #196]	@ (65d8 <io_put_char+0xd0>)
    6512:	680a      	ldr	r2, [r1, #0]
    6514:	1c53      	adds	r3, r2, #1
    6516:	5484      	strb	r4, [r0, r2]
    6518:	2200      	movs	r2, #0
    651a:	600b      	str	r3, [r1, #0]
    651c:	54c2      	strb	r2, [r0, r3]
    651e:	bd70      	pop	{r4, r5, r6, pc}
    6520:	2800      	cmp	r0, #0
    6522:	d134      	bne.n	658e <io_put_char+0x86>
    6524:	4d2d      	ldr	r5, [pc, #180]	@ (65dc <io_put_char+0xd4>)
    6526:	682b      	ldr	r3, [r5, #0]
    6528:	2b00      	cmp	r3, #0
    652a:	d11a      	bne.n	6562 <io_put_char+0x5a>
    652c:	2192      	movs	r1, #146	@ 0x92
    652e:	0049      	lsls	r1, r1, #1
    6530:	3001      	adds	r0, #1
    6532:	f7ff febb 	bl	62ac <sark_alloc>
    6536:	2800      	cmp	r0, #0
    6538:	d102      	bne.n	6540 <io_put_char+0x38>
    653a:	300e      	adds	r0, #14
    653c:	f7f9 edf6 	blx	12c <rt_error>
    6540:	2307      	movs	r3, #7
    6542:	8103      	strh	r3, [r0, #8]
    6544:	33f8      	adds	r3, #248	@ 0xf8
    6546:	7283      	strb	r3, [r0, #10]
    6548:	4b25      	ldr	r3, [pc, #148]	@ (65e0 <io_put_char+0xd8>)
    654a:	889a      	ldrh	r2, [r3, #4]
    654c:	8182      	strh	r2, [r0, #12]
    654e:	4a25      	ldr	r2, [pc, #148]	@ (65e4 <io_put_char+0xdc>)
    6550:	6812      	ldr	r2, [r2, #0]
    6552:	72c2      	strb	r2, [r0, #11]
    6554:	881b      	ldrh	r3, [r3, #0]
    6556:	81c3      	strh	r3, [r0, #14]
    6558:	2340      	movs	r3, #64	@ 0x40
    655a:	8203      	strh	r3, [r0, #16]
    655c:	3b34      	subs	r3, #52	@ 0x34
    655e:	8083      	strh	r3, [r0, #4]
    6560:	6028      	str	r0, [r5, #0]
    6562:	6828      	ldr	r0, [r5, #0]
    6564:	8883      	ldrh	r3, [r0, #4]
    6566:	1c5a      	adds	r2, r3, #1
    6568:	18c3      	adds	r3, r0, r3
    656a:	8082      	strh	r2, [r0, #4]
    656c:	721c      	strb	r4, [r3, #8]
    656e:	2c0a      	cmp	r4, #10
    6570:	d006      	beq.n	6580 <io_put_char+0x78>
    6572:	2c00      	cmp	r4, #0
    6574:	d004      	beq.n	6580 <io_put_char+0x78>
    6576:	8882      	ldrh	r2, [r0, #4]
    6578:	2386      	movs	r3, #134	@ 0x86
    657a:	005b      	lsls	r3, r3, #1
    657c:	429a      	cmp	r2, r3
    657e:	d1ce      	bne.n	651e <io_put_char+0x16>
    6580:	210a      	movs	r1, #10
    6582:	f7ff fb31 	bl	5be8 <sark_msg_send>
    6586:	682b      	ldr	r3, [r5, #0]
    6588:	220c      	movs	r2, #12
    658a:	809a      	strh	r2, [r3, #4]
    658c:	e7c7      	b.n	651e <io_put_char+0x16>
    658e:	2802      	cmp	r0, #2
    6590:	d1c5      	bne.n	651e <io_put_char+0x16>
    6592:	4d15      	ldr	r5, [pc, #84]	@ (65e8 <io_put_char+0xe0>)
    6594:	682b      	ldr	r3, [r5, #0]
    6596:	2b00      	cmp	r3, #0
    6598:	d105      	bne.n	65a6 <io_put_char+0x9e>
    659a:	4b12      	ldr	r3, [pc, #72]	@ (65e4 <io_put_char+0xdc>)
    659c:	69de      	ldr	r6, [r3, #28]
    659e:	f7ff ff93 	bl	64c8 <io_buf_init>
    65a2:	65b0      	str	r0, [r6, #88]	@ 0x58
    65a4:	6028      	str	r0, [r5, #0]
    65a6:	4911      	ldr	r1, [pc, #68]	@ (65ec <io_put_char+0xe4>)
    65a8:	682e      	ldr	r6, [r5, #0]
    65aa:	680a      	ldr	r2, [r1, #0]
    65ac:	1c53      	adds	r3, r2, #1
    65ae:	18b2      	adds	r2, r6, r2
    65b0:	7414      	strb	r4, [r2, #16]
    65b2:	4a0b      	ldr	r2, [pc, #44]	@ (65e0 <io_put_char+0xd8>)
    65b4:	600b      	str	r3, [r1, #0]
    65b6:	6d12      	ldr	r2, [r2, #80]	@ 0x50
    65b8:	4293      	cmp	r3, r2
    65ba:	d107      	bne.n	65cc <io_put_char+0xc4>
    65bc:	60f3      	str	r3, [r6, #12]
    65be:	f7ff ff83 	bl	64c8 <io_buf_init>
    65c2:	682b      	ldr	r3, [r5, #0]
    65c4:	6030      	str	r0, [r6, #0]
    65c6:	681b      	ldr	r3, [r3, #0]
    65c8:	602b      	str	r3, [r5, #0]
    65ca:	e7a8      	b.n	651e <io_put_char+0x16>
    65cc:	2c0a      	cmp	r4, #10
    65ce:	d001      	beq.n	65d4 <io_put_char+0xcc>
    65d0:	2c00      	cmp	r4, #0
    65d2:	d1a4      	bne.n	651e <io_put_char+0x16>
    65d4:	60f3      	str	r3, [r6, #12]
    65d6:	e7a2      	b.n	651e <io_put_char+0x16>
    65d8:	00400ba8 	.word	0x00400ba8
    65dc:	00400ba0 	.word	0x00400ba0
    65e0:	e5007f00 	.word	0xe5007f00
    65e4:	00400aac 	.word	0x00400aac
    65e8:	00400b9c 	.word	0x00400b9c
    65ec:	00400ba4 	.word	0x00400ba4

000065f0 <io_put_fixed>:
    65f0:	b5f0      	push	{r4, r5, r6, r7, lr}
    65f2:	b08d      	sub	sp, #52	@ 0x34
    65f4:	0015      	movs	r5, r2
    65f6:	001f      	movs	r7, r3
    65f8:	9000      	str	r0, [sp, #0]
    65fa:	9101      	str	r1, [sp, #4]
    65fc:	2b0c      	cmp	r3, #12
    65fe:	d900      	bls.n	6602 <io_put_fixed+0x12>
    6600:	270c      	movs	r7, #12
    6602:	aa05      	add	r2, sp, #20
    6604:	19d0      	adds	r0, r2, r7
    6606:	260a      	movs	r6, #10
    6608:	9a01      	ldr	r2, [sp, #4]
    660a:	2400      	movs	r4, #0
    660c:	46b4      	mov	ip, r6
    660e:	0412      	lsls	r2, r2, #16
    6610:	0c12      	lsrs	r2, r2, #16
    6612:	0016      	movs	r6, r2
    6614:	4662      	mov	r2, ip
    6616:	4372      	muls	r2, r6
    6618:	3801      	subs	r0, #1
    661a:	0c16      	lsrs	r6, r2, #16
    661c:	42a7      	cmp	r7, r4
    661e:	d108      	bne.n	6632 <io_put_fixed+0x42>
    6620:	0020      	movs	r0, r4
    6622:	af05      	add	r7, sp, #20
    6624:	2200      	movs	r2, #0
    6626:	2e04      	cmp	r6, #4
    6628:	d913      	bls.n	6652 <io_put_fixed+0x62>
    662a:	42a2      	cmp	r2, r4
    662c:	d105      	bne.n	663a <io_put_fixed+0x4a>
    662e:	2201      	movs	r2, #1
    6630:	e010      	b.n	6654 <io_put_fixed+0x64>
    6632:	3630      	adds	r6, #48	@ 0x30
    6634:	3401      	adds	r4, #1
    6636:	7006      	strb	r6, [r0, #0]
    6638:	e7e9      	b.n	660e <io_put_fixed+0x1e>
    663a:	7839      	ldrb	r1, [r7, #0]
    663c:	2938      	cmp	r1, #56	@ 0x38
    663e:	d904      	bls.n	664a <io_put_fixed+0x5a>
    6640:	2130      	movs	r1, #48	@ 0x30
    6642:	7039      	strb	r1, [r7, #0]
    6644:	3201      	adds	r2, #1
    6646:	3701      	adds	r7, #1
    6648:	e7ed      	b.n	6626 <io_put_fixed+0x36>
    664a:	000e      	movs	r6, r1
    664c:	3601      	adds	r6, #1
    664e:	af05      	add	r7, sp, #20
    6650:	54be      	strb	r6, [r7, r2]
    6652:	2200      	movs	r2, #0
    6654:	ae05      	add	r6, sp, #20
    6656:	2b00      	cmp	r3, #0
    6658:	d002      	beq.n	6660 <io_put_fixed+0x70>
    665a:	232e      	movs	r3, #46	@ 0x2e
    665c:	1c60      	adds	r0, r4, #1
    665e:	5533      	strb	r3, [r6, r4]
    6660:	9b01      	ldr	r3, [sp, #4]
    6662:	0004      	movs	r4, r0
    6664:	0c19      	lsrs	r1, r3, #16
    6666:	1851      	adds	r1, r2, r1
    6668:	a803      	add	r0, sp, #12
    666a:	f7f9 ee2a 	blx	2c0 <sark_div10>
    666e:	9b04      	ldr	r3, [sp, #16]
    6670:	9903      	ldr	r1, [sp, #12]
    6672:	0022      	movs	r2, r4
    6674:	3330      	adds	r3, #48	@ 0x30
    6676:	3401      	adds	r4, #1
    6678:	54b3      	strb	r3, [r6, r2]
    667a:	2900      	cmp	r1, #0
    667c:	d1f4      	bne.n	6668 <io_put_fixed+0x78>
    667e:	9b13      	ldr	r3, [sp, #76]	@ 0x4c
    6680:	2b00      	cmp	r3, #0
    6682:	d002      	beq.n	668a <io_put_fixed+0x9a>
    6684:	232d      	movs	r3, #45	@ 0x2d
    6686:	5533      	strb	r3, [r6, r4]
    6688:	1c94      	adds	r4, r2, #2
    668a:	1c63      	adds	r3, r4, #1
    668c:	429d      	cmp	r5, r3
    668e:	d808      	bhi.n	66a2 <io_put_fixed+0xb2>
    6690:	3c01      	subs	r4, #1
    6692:	5d31      	ldrb	r1, [r6, r4]
    6694:	9800      	ldr	r0, [sp, #0]
    6696:	f7ff ff37 	bl	6508 <io_put_char>
    669a:	2c00      	cmp	r4, #0
    669c:	d1f8      	bne.n	6690 <io_put_fixed+0xa0>
    669e:	b00d      	add	sp, #52	@ 0x34
    66a0:	bdf0      	pop	{r4, r5, r6, r7, pc}
    66a2:	9912      	ldr	r1, [sp, #72]	@ 0x48
    66a4:	9800      	ldr	r0, [sp, #0]
    66a6:	f7ff ff2f 	bl	6508 <io_put_char>
    66aa:	3d01      	subs	r5, #1
    66ac:	e7ed      	b.n	668a <io_put_fixed+0x9a>
	...

000066b0 <io_printf>:
    66b0:	b40e      	push	{r1, r2, r3}
    66b2:	b5f0      	push	{r4, r5, r6, r7, lr}
    66b4:	0007      	movs	r7, r0
    66b6:	b08c      	sub	sp, #48	@ 0x30
    66b8:	2803      	cmp	r0, #3
    66ba:	d04e      	beq.n	675a <io_printf+0xaa>
    66bc:	d903      	bls.n	66c6 <io_printf+0x16>
    66be:	4a9d      	ldr	r2, [pc, #628]	@ (6934 <io_printf+0x284>)
    66c0:	2300      	movs	r3, #0
    66c2:	7003      	strb	r3, [r0, #0]
    66c4:	6013      	str	r3, [r2, #0]
    66c6:	ab12      	add	r3, sp, #72	@ 0x48
    66c8:	9305      	str	r3, [sp, #20]
    66ca:	9b11      	ldr	r3, [sp, #68]	@ 0x44
    66cc:	7819      	ldrb	r1, [r3, #0]
    66ce:	2900      	cmp	r1, #0
    66d0:	d043      	beq.n	675a <io_printf+0xaa>
    66d2:	2925      	cmp	r1, #37	@ 0x25
    66d4:	d005      	beq.n	66e2 <io_printf+0x32>
    66d6:	3301      	adds	r3, #1
    66d8:	9311      	str	r3, [sp, #68]	@ 0x44
    66da:	0038      	movs	r0, r7
    66dc:	f7ff ff14 	bl	6508 <io_put_char>
    66e0:	e7f3      	b.n	66ca <io_printf+0x1a>
    66e2:	9b11      	ldr	r3, [sp, #68]	@ 0x44
    66e4:	7859      	ldrb	r1, [r3, #1]
    66e6:	1c9a      	adds	r2, r3, #2
    66e8:	2900      	cmp	r1, #0
    66ea:	d036      	beq.n	675a <io_printf+0xaa>
    66ec:	9103      	str	r1, [sp, #12]
    66ee:	2930      	cmp	r1, #48	@ 0x30
    66f0:	d001      	beq.n	66f6 <io_printf+0x46>
    66f2:	2320      	movs	r3, #32
    66f4:	9303      	str	r3, [sp, #12]
    66f6:	2400      	movs	r4, #0
    66f8:	000b      	movs	r3, r1
    66fa:	3b30      	subs	r3, #48	@ 0x30
    66fc:	0010      	movs	r0, r2
    66fe:	3201      	adds	r2, #1
    6700:	2b09      	cmp	r3, #9
    6702:	d922      	bls.n	674a <io_printf+0x9a>
    6704:	2306      	movs	r3, #6
    6706:	9011      	str	r0, [sp, #68]	@ 0x44
    6708:	292e      	cmp	r1, #46	@ 0x2e
    670a:	d109      	bne.n	6720 <io_printf+0x70>
    670c:	7801      	ldrb	r1, [r0, #0]
    670e:	2300      	movs	r3, #0
    6710:	200a      	movs	r0, #10
    6712:	000d      	movs	r5, r1
    6714:	3d30      	subs	r5, #48	@ 0x30
    6716:	9211      	str	r2, [sp, #68]	@ 0x44
    6718:	2d09      	cmp	r5, #9
    671a:	d923      	bls.n	6764 <io_printf+0xb4>
    671c:	2900      	cmp	r1, #0
    671e:	d01c      	beq.n	675a <io_printf+0xaa>
    6720:	297a      	cmp	r1, #122	@ 0x7a
    6722:	d8da      	bhi.n	66da <io_printf+0x2a>
    6724:	2962      	cmp	r1, #98	@ 0x62
    6726:	d823      	bhi.n	6770 <io_printf+0xc0>
    6728:	294b      	cmp	r1, #75	@ 0x4b
    672a:	d001      	beq.n	6730 <io_printf+0x80>
    672c:	2952      	cmp	r1, #82	@ 0x52
    672e:	d1d4      	bne.n	66da <io_printf+0x2a>
    6730:	9905      	ldr	r1, [sp, #20]
    6732:	1d0a      	adds	r2, r1, #4
    6734:	9205      	str	r2, [sp, #20]
    6736:	2200      	movs	r2, #0
    6738:	9201      	str	r2, [sp, #4]
    673a:	9a03      	ldr	r2, [sp, #12]
    673c:	9200      	str	r2, [sp, #0]
    673e:	6809      	ldr	r1, [r1, #0]
    6740:	0022      	movs	r2, r4
    6742:	0038      	movs	r0, r7
    6744:	f7ff ff54 	bl	65f0 <io_put_fixed>
    6748:	e7bf      	b.n	66ca <io_printf+0x1a>
    674a:	230a      	movs	r3, #10
    674c:	4363      	muls	r3, r4
    674e:	185c      	adds	r4, r3, r1
    6750:	1e53      	subs	r3, r2, #1
    6752:	7819      	ldrb	r1, [r3, #0]
    6754:	3c30      	subs	r4, #48	@ 0x30
    6756:	2900      	cmp	r1, #0
    6758:	d1ce      	bne.n	66f8 <io_printf+0x48>
    675a:	b00c      	add	sp, #48	@ 0x30
    675c:	bcf0      	pop	{r4, r5, r6, r7}
    675e:	bc08      	pop	{r3}
    6760:	b003      	add	sp, #12
    6762:	4718      	bx	r3
    6764:	4343      	muls	r3, r0
    6766:	185b      	adds	r3, r3, r1
    6768:	3b30      	subs	r3, #48	@ 0x30
    676a:	7811      	ldrb	r1, [r2, #0]
    676c:	3201      	adds	r2, #1
    676e:	e7d0      	b.n	6712 <io_printf+0x62>
    6770:	0008      	movs	r0, r1
    6772:	3863      	subs	r0, #99	@ 0x63
    6774:	2817      	cmp	r0, #23
    6776:	d8b0      	bhi.n	66da <io_printf+0x2a>
    6778:	f000 ff80 	bl	767c <__gnu_thumb1_case_shi>
    677c:	00380018 	.word	0x00380018
    6780:	ffdaffaf 	.word	0xffdaffaf
    6784:	ffafffaf 	.word	0xffafffaf
    6788:	ffafffaf 	.word	0xffafffaf
    678c:	ffaf0091 	.word	0xffaf0091
    6790:	ffafffaf 	.word	0xffafffaf
    6794:	ffafffaf 	.word	0xffafffaf
    6798:	0091ffaf 	.word	0x0091ffaf
    679c:	ffaf001d 	.word	0xffaf001d
    67a0:	ffaf006b 	.word	0xffaf006b
    67a4:	009fffaf 	.word	0x009fffaf
    67a8:	00c7ffaf 	.word	0x00c7ffaf
    67ac:	9b05      	ldr	r3, [sp, #20]
    67ae:	1d1a      	adds	r2, r3, #4
    67b0:	6819      	ldr	r1, [r3, #0]
    67b2:	9205      	str	r2, [sp, #20]
    67b4:	e791      	b.n	66da <io_printf+0x2a>
    67b6:	9b05      	ldr	r3, [sp, #20]
    67b8:	2600      	movs	r6, #0
    67ba:	681d      	ldr	r5, [r3, #0]
    67bc:	1d1a      	adds	r2, r3, #4
    67be:	9205      	str	r2, [sp, #20]
    67c0:	5dab      	ldrb	r3, [r5, r6]
    67c2:	2b00      	cmp	r3, #0
    67c4:	d10a      	bne.n	67dc <io_printf+0x12c>
    67c6:	42a6      	cmp	r6, r4
    67c8:	db0a      	blt.n	67e0 <io_printf+0x130>
    67ca:	7829      	ldrb	r1, [r5, #0]
    67cc:	2900      	cmp	r1, #0
    67ce:	d100      	bne.n	67d2 <io_printf+0x122>
    67d0:	e77b      	b.n	66ca <io_printf+0x1a>
    67d2:	0038      	movs	r0, r7
    67d4:	3501      	adds	r5, #1
    67d6:	f7ff fe97 	bl	6508 <io_put_char>
    67da:	e7f6      	b.n	67ca <io_printf+0x11a>
    67dc:	3601      	adds	r6, #1
    67de:	e7ef      	b.n	67c0 <io_printf+0x110>
    67e0:	2120      	movs	r1, #32
    67e2:	0038      	movs	r0, r7
    67e4:	f7ff fe90 	bl	6508 <io_put_char>
    67e8:	3c01      	subs	r4, #1
    67ea:	e7ec      	b.n	67c6 <io_printf+0x116>
    67ec:	9b05      	ldr	r3, [sp, #20]
    67ee:	6819      	ldr	r1, [r3, #0]
    67f0:	1d1a      	adds	r2, r3, #4
    67f2:	2300      	movs	r3, #0
    67f4:	9205      	str	r2, [sp, #20]
    67f6:	9303      	str	r3, [sp, #12]
    67f8:	4299      	cmp	r1, r3
    67fa:	da02      	bge.n	6802 <io_printf+0x152>
    67fc:	332d      	adds	r3, #45	@ 0x2d
    67fe:	4249      	negs	r1, r1
    6800:	9303      	str	r3, [sp, #12]
    6802:	2500      	movs	r5, #0
    6804:	a806      	add	r0, sp, #24
    6806:	f7f9 ed5c 	blx	2c0 <sark_div10>
    680a:	9a07      	ldr	r2, [sp, #28]
    680c:	9906      	ldr	r1, [sp, #24]
    680e:	ae08      	add	r6, sp, #32
    6810:	3230      	adds	r2, #48	@ 0x30
    6812:	55aa      	strb	r2, [r5, r6]
    6814:	3501      	adds	r5, #1
    6816:	2900      	cmp	r1, #0
    6818:	d1f4      	bne.n	6804 <io_printf+0x154>
    681a:	3d01      	subs	r5, #1
    681c:	5d73      	ldrb	r3, [r6, r5]
    681e:	2b30      	cmp	r3, #48	@ 0x30
    6820:	d101      	bne.n	6826 <io_printf+0x176>
    6822:	2d00      	cmp	r5, #0
    6824:	d1f9      	bne.n	681a <io_printf+0x16a>
    6826:	9b03      	ldr	r3, [sp, #12]
    6828:	2b00      	cmp	r3, #0
    682a:	d002      	beq.n	6832 <io_printf+0x182>
    682c:	3501      	adds	r5, #1
    682e:	232d      	movs	r3, #45	@ 0x2d
    6830:	5573      	strb	r3, [r6, r5]
    6832:	1c6b      	adds	r3, r5, #1
    6834:	42a3      	cmp	r3, r4
    6836:	d306      	bcc.n	6846 <io_printf+0x196>
    6838:	5d71      	ldrb	r1, [r6, r5]
    683a:	0038      	movs	r0, r7
    683c:	f7ff fe64 	bl	6508 <io_put_char>
    6840:	3d01      	subs	r5, #1
    6842:	d2f9      	bcs.n	6838 <io_printf+0x188>
    6844:	e741      	b.n	66ca <io_printf+0x1a>
    6846:	2120      	movs	r1, #32
    6848:	0038      	movs	r0, r7
    684a:	f7ff fe5d 	bl	6508 <io_put_char>
    684e:	3c01      	subs	r4, #1
    6850:	e7ef      	b.n	6832 <io_printf+0x182>
    6852:	9b05      	ldr	r3, [sp, #20]
    6854:	2500      	movs	r5, #0
    6856:	6819      	ldr	r1, [r3, #0]
    6858:	1d1a      	adds	r2, r3, #4
    685a:	9205      	str	r2, [sp, #20]
    685c:	a806      	add	r0, sp, #24
    685e:	f7f9 ed30 	blx	2c0 <sark_div10>
    6862:	9a07      	ldr	r2, [sp, #28]
    6864:	9906      	ldr	r1, [sp, #24]
    6866:	ae08      	add	r6, sp, #32
    6868:	3230      	adds	r2, #48	@ 0x30
    686a:	55aa      	strb	r2, [r5, r6]
    686c:	3501      	adds	r5, #1
    686e:	2900      	cmp	r1, #0
    6870:	d1f4      	bne.n	685c <io_printf+0x1ac>
    6872:	3d01      	subs	r5, #1
    6874:	5d73      	ldrb	r3, [r6, r5]
    6876:	2b30      	cmp	r3, #48	@ 0x30
    6878:	d101      	bne.n	687e <io_printf+0x1ce>
    687a:	2d00      	cmp	r5, #0
    687c:	d1f9      	bne.n	6872 <io_printf+0x1c2>
    687e:	1c6b      	adds	r3, r5, #1
    6880:	42a3      	cmp	r3, r4
    6882:	d306      	bcc.n	6892 <io_printf+0x1e2>
    6884:	5d71      	ldrb	r1, [r6, r5]
    6886:	0038      	movs	r0, r7
    6888:	f7ff fe3e 	bl	6508 <io_put_char>
    688c:	3d01      	subs	r5, #1
    688e:	d2f9      	bcs.n	6884 <io_printf+0x1d4>
    6890:	e71b      	b.n	66ca <io_printf+0x1a>
    6892:	9903      	ldr	r1, [sp, #12]
    6894:	0038      	movs	r0, r7
    6896:	f7ff fe37 	bl	6508 <io_put_char>
    689a:	3c01      	subs	r4, #1
    689c:	e7ef      	b.n	687e <io_printf+0x1ce>
    689e:	9a05      	ldr	r2, [sp, #20]
    68a0:	1d11      	adds	r1, r2, #4
    68a2:	6812      	ldr	r2, [r2, #0]
    68a4:	9105      	str	r1, [sp, #20]
    68a6:	17d0      	asrs	r0, r2, #31
    68a8:	1811      	adds	r1, r2, r0
    68aa:	0fd2      	lsrs	r2, r2, #31
    68ac:	4041      	eors	r1, r0
    68ae:	9201      	str	r2, [sp, #4]
    68b0:	9a03      	ldr	r2, [sp, #12]
    68b2:	9200      	str	r2, [sp, #0]
    68b4:	0049      	lsls	r1, r1, #1
    68b6:	0022      	movs	r2, r4
    68b8:	e743      	b.n	6742 <io_printf+0x92>
    68ba:	9b05      	ldr	r3, [sp, #20]
    68bc:	a902      	add	r1, sp, #8
    68be:	1d1a      	adds	r2, r3, #4
    68c0:	9205      	str	r2, [sp, #20]
    68c2:	681b      	ldr	r3, [r3, #0]
    68c4:	2217      	movs	r2, #23
    68c6:	481c      	ldr	r0, [pc, #112]	@ (6938 <io_printf+0x288>)
    68c8:	2500      	movs	r5, #0
    68ca:	1852      	adds	r2, r2, r1
    68cc:	260f      	movs	r6, #15
    68ce:	0019      	movs	r1, r3
    68d0:	4031      	ands	r1, r6
    68d2:	5c41      	ldrb	r1, [r0, r1]
    68d4:	3501      	adds	r5, #1
    68d6:	091b      	lsrs	r3, r3, #4
    68d8:	5551      	strb	r1, [r2, r5]
    68da:	d1f8      	bne.n	68ce <io_printf+0x21e>
    68dc:	ae08      	add	r6, sp, #32
    68de:	3d01      	subs	r5, #1
    68e0:	5dab      	ldrb	r3, [r5, r6]
    68e2:	2b30      	cmp	r3, #48	@ 0x30
    68e4:	d101      	bne.n	68ea <io_printf+0x23a>
    68e6:	2d00      	cmp	r5, #0
    68e8:	d1f9      	bne.n	68de <io_printf+0x22e>
    68ea:	1c6b      	adds	r3, r5, #1
    68ec:	42a3      	cmp	r3, r4
    68ee:	d306      	bcc.n	68fe <io_printf+0x24e>
    68f0:	5d71      	ldrb	r1, [r6, r5]
    68f2:	0038      	movs	r0, r7
    68f4:	f7ff fe08 	bl	6508 <io_put_char>
    68f8:	3d01      	subs	r5, #1
    68fa:	d2f9      	bcs.n	68f0 <io_printf+0x240>
    68fc:	e6e5      	b.n	66ca <io_printf+0x1a>
    68fe:	9903      	ldr	r1, [sp, #12]
    6900:	0038      	movs	r0, r7
    6902:	f7ff fe01 	bl	6508 <io_put_char>
    6906:	3c01      	subs	r4, #1
    6908:	e7ef      	b.n	68ea <io_printf+0x23a>
    690a:	9b05      	ldr	r3, [sp, #20]
    690c:	3c01      	subs	r4, #1
    690e:	681d      	ldr	r5, [r3, #0]
    6910:	1d1a      	adds	r2, r3, #4
    6912:	260f      	movs	r6, #15
    6914:	9205      	str	r2, [sp, #20]
    6916:	2c00      	cmp	r4, #0
    6918:	da00      	bge.n	691c <io_printf+0x26c>
    691a:	e6d6      	b.n	66ca <io_printf+0x1a>
    691c:	00a3      	lsls	r3, r4, #2
    691e:	0029      	movs	r1, r5
    6920:	40d9      	lsrs	r1, r3
    6922:	4a05      	ldr	r2, [pc, #20]	@ (6938 <io_printf+0x288>)
    6924:	000b      	movs	r3, r1
    6926:	4033      	ands	r3, r6
    6928:	5cd1      	ldrb	r1, [r2, r3]
    692a:	0038      	movs	r0, r7
    692c:	f7ff fdec 	bl	6508 <io_put_char>
    6930:	3c01      	subs	r4, #1
    6932:	e7f0      	b.n	6916 <io_printf+0x266>
    6934:	00400ba8 	.word	0x00400ba8
    6938:	00007a4f 	.word	0x00007a4f

0000693c <__aeabi_idiv0>:
    693c:	e3a0000b 	mov	r0, #11
    6940:	e92d4010 	push	{r4, lr}
    6944:	ebffe5f8 	bl	12c <rt_error>

00006948 <configure_timer1>:
    6948:	b570      	push	{r4, r5, r6, lr}
    694a:	4c18      	ldr	r4, [pc, #96]	@ (69ac <configure_timer1+0x64>)
    694c:	4a18      	ldr	r2, [pc, #96]	@ (69b0 <configure_timer1+0x68>)
    694e:	6ba3      	ldr	r3, [r4, #56]	@ 0x38
    6950:	4d18      	ldr	r5, [pc, #96]	@ (69b4 <configure_timer1+0x6c>)
    6952:	4343      	muls	r3, r0
    6954:	2601      	movs	r6, #1
    6956:	6013      	str	r3, [r2, #0]
    6958:	602e      	str	r6, [r5, #0]
    695a:	2b00      	cmp	r3, #0
    695c:	da04      	bge.n	6968 <configure_timer1+0x20>
    695e:	425b      	negs	r3, r3
    6960:	6013      	str	r3, [r2, #0]
    6962:	2301      	movs	r3, #1
    6964:	425b      	negs	r3, r3
    6966:	602b      	str	r3, [r5, #0]
    6968:	6812      	ldr	r2, [r2, #0]
    696a:	4e13      	ldr	r6, [pc, #76]	@ (69b8 <configure_timer1+0x70>)
    696c:	0c53      	lsrs	r3, r2, #17
    696e:	045b      	lsls	r3, r3, #17
    6970:	1ad2      	subs	r2, r2, r3
    6972:	6032      	str	r2, [r6, #0]
    6974:	145a      	asrs	r2, r3, #17
    6976:	682b      	ldr	r3, [r5, #0]
    6978:	4d10      	ldr	r5, [pc, #64]	@ (69bc <configure_timer1+0x74>)
    697a:	4353      	muls	r3, r2
    697c:	4a10      	ldr	r2, [pc, #64]	@ (69c0 <configure_timer1+0x78>)
    697e:	6015      	str	r5, [r2, #0]
    6980:	8ca4      	ldrh	r4, [r4, #36]	@ 0x24
    6982:	4a10      	ldr	r2, [pc, #64]	@ (69c4 <configure_timer1+0x7c>)
    6984:	4360      	muls	r0, r4
    6986:	6010      	str	r0, [r2, #0]
    6988:	480f      	ldr	r0, [pc, #60]	@ (69c8 <configure_timer1+0x80>)
    698a:	2500      	movs	r5, #0
    698c:	6005      	str	r5, [r0, #0]
    698e:	480f      	ldr	r0, [pc, #60]	@ (69cc <configure_timer1+0x84>)
    6990:	3501      	adds	r5, #1
    6992:	4361      	muls	r1, r4
    6994:	6005      	str	r5, [r0, #0]
    6996:	6810      	ldr	r0, [r2, #0]
    6998:	1809      	adds	r1, r1, r0
    699a:	2084      	movs	r0, #132	@ 0x84
    699c:	18c9      	adds	r1, r1, r3
    699e:	0580      	lsls	r0, r0, #22
    69a0:	6001      	str	r1, [r0, #0]
    69a2:	6812      	ldr	r2, [r2, #0]
    69a4:	189b      	adds	r3, r3, r2
    69a6:	4a0a      	ldr	r2, [pc, #40]	@ (69d0 <configure_timer1+0x88>)
    69a8:	6013      	str	r3, [r2, #0]
    69aa:	bd70      	pop	{r4, r5, r6, pc}
    69ac:	e5007f00 	.word	0xe5007f00
    69b0:	004011b4 	.word	0x004011b4
    69b4:	004011b0 	.word	0x004011b0
    69b8:	004011ac 	.word	0x004011ac
    69bc:	001e8480 	.word	0x001e8480
    69c0:	004011a8 	.word	0x004011a8
    69c4:	004011b8 	.word	0x004011b8
    69c8:	21000008 	.word	0x21000008
    69cc:	2100000c 	.word	0x2100000c
    69d0:	21000018 	.word	0x21000018

000069d4 <resume>:
    69d4:	4a0d      	ldr	r2, [pc, #52]	@ (6a0c <resume+0x38>)
    69d6:	b510      	push	{r4, lr}
    69d8:	6813      	ldr	r3, [r2, #0]
    69da:	2b01      	cmp	r3, #1
    69dc:	d105      	bne.n	69ea <resume+0x16>
    69de:	2100      	movs	r1, #0
    69e0:	6011      	str	r1, [r2, #0]
    69e2:	4a0b      	ldr	r2, [pc, #44]	@ (6a10 <resume+0x3c>)
    69e4:	7e91      	ldrb	r1, [r2, #26]
    69e6:	404b      	eors	r3, r1
    69e8:	7693      	strb	r3, [r2, #26]
    69ea:	4b0a      	ldr	r3, [pc, #40]	@ (6a14 <resume+0x40>)
    69ec:	2200      	movs	r2, #0
    69ee:	2007      	movs	r0, #7
    69f0:	601a      	str	r2, [r3, #0]
    69f2:	f7fe ffdd 	bl	59b0 <sark_cpu_state>
    69f6:	4b08      	ldr	r3, [pc, #32]	@ (6a18 <resume+0x44>)
    69f8:	691b      	ldr	r3, [r3, #16]
    69fa:	2b00      	cmp	r3, #0
    69fc:	d002      	beq.n	6a04 <resume+0x30>
    69fe:	4b07      	ldr	r3, [pc, #28]	@ (6a1c <resume+0x48>)
    6a00:	2210      	movs	r2, #16
    6a02:	601a      	str	r2, [r3, #0]
    6a04:	4b06      	ldr	r3, [pc, #24]	@ (6a20 <resume+0x4c>)
    6a06:	22e2      	movs	r2, #226	@ 0xe2
    6a08:	601a      	str	r2, [r3, #0]
    6a0a:	bd10      	pop	{r4, pc}
    6a0c:	004011c4 	.word	0x004011c4
    6a10:	00400ae8 	.word	0x00400ae8
    6a14:	004011c8 	.word	0x004011c8
    6a18:	00400bf8 	.word	0x00400bf8
    6a1c:	1f000010 	.word	0x1f000010
    6a20:	21000008 	.word	0x21000008

00006a24 <clean_up>:
    6a24:	b510      	push	{r4, lr}
    6a26:	f7f9 ebc8 	blx	1b8 <cpu_int_disable>
    6a2a:	4b10      	ldr	r3, [pc, #64]	@ (6a6c <clean_up+0x48>)
    6a2c:	681a      	ldr	r2, [r3, #0]
    6a2e:	2320      	movs	r3, #32
    6a30:	61da      	str	r2, [r3, #28]
    6a32:	4b0f      	ldr	r3, [pc, #60]	@ (6a70 <clean_up+0x4c>)
    6a34:	681a      	ldr	r2, [r3, #0]
    6a36:	4b0f      	ldr	r3, [pc, #60]	@ (6a74 <clean_up+0x50>)
    6a38:	601a      	str	r2, [r3, #0]
    6a3a:	4b0f      	ldr	r3, [pc, #60]	@ (6a78 <clean_up+0x54>)
    6a3c:	681a      	ldr	r2, [r3, #0]
    6a3e:	4b0f      	ldr	r3, [pc, #60]	@ (6a7c <clean_up+0x58>)
    6a40:	601a      	str	r2, [r3, #0]
    6a42:	2359      	movs	r3, #89	@ 0x59
    6a44:	781b      	ldrb	r3, [r3, #0]
    6a46:	4a0e      	ldr	r2, [pc, #56]	@ (6a80 <clean_up+0x5c>)
    6a48:	009b      	lsls	r3, r3, #2
    6a4a:	189b      	adds	r3, r3, r2
    6a4c:	2232      	movs	r2, #50	@ 0x32
    6a4e:	601a      	str	r2, [r3, #0]
    6a50:	4b0c      	ldr	r3, [pc, #48]	@ (6a84 <clean_up+0x60>)
    6a52:	3a31      	subs	r2, #49	@ 0x31
    6a54:	601a      	str	r2, [r3, #0]
    6a56:	4b0c      	ldr	r3, [pc, #48]	@ (6a88 <clean_up+0x64>)
    6a58:	2200      	movs	r2, #0
    6a5a:	601a      	str	r2, [r3, #0]
    6a5c:	4b0b      	ldr	r3, [pc, #44]	@ (6a8c <clean_up+0x68>)
    6a5e:	323f      	adds	r2, #63	@ 0x3f
    6a60:	601a      	str	r2, [r3, #0]
    6a62:	3a32      	subs	r2, #50	@ 0x32
    6a64:	601a      	str	r2, [r3, #0]
    6a66:	f7f9 ebb0 	blx	1c8 <cpu_int_restore>
    6a6a:	bd10      	pop	{r4, pc}
    6a6c:	004011a0 	.word	0x004011a0
    6a70:	0040119c 	.word	0x0040119c
    6a74:	1f00000c 	.word	0x1f00000c
    6a78:	00401198 	.word	0x00401198
    6a7c:	1f000010 	.word	0x1f000010
    6a80:	2f000200 	.word	0x2f000200
    6a84:	2100000c 	.word	0x2100000c
    6a88:	40000018 	.word	0x40000018
    6a8c:	40000010 	.word	0x40000010

00006a90 <resume_wait>:
    6a90:	4b06      	ldr	r3, [pc, #24]	@ (6aac <resume_wait+0x1c>)
    6a92:	2001      	movs	r0, #1
    6a94:	681b      	ldr	r3, [r3, #0]
    6a96:	4098      	lsls	r0, r3
    6a98:	4b05      	ldr	r3, [pc, #20]	@ (6ab0 <resume_wait+0x20>)
    6a9a:	7e9a      	ldrb	r2, [r3, #26]
    6a9c:	4b05      	ldr	r3, [pc, #20]	@ (6ab4 <resume_wait+0x24>)
    6a9e:	681b      	ldr	r3, [r3, #0]
    6aa0:	2a00      	cmp	r2, #0
    6aa2:	d001      	beq.n	6aa8 <resume_wait+0x18>
    6aa4:	4398      	bics	r0, r3
    6aa6:	4770      	bx	lr
    6aa8:	4018      	ands	r0, r3
    6aaa:	e7fc      	b.n	6aa6 <resume_wait+0x16>
    6aac:	00400aac 	.word	0x00400aac
    6ab0:	00400ae8 	.word	0x00400ae8
    6ab4:	e2000058 	.word	0xe2000058

00006ab8 <start>:
    6ab8:	b5f0      	push	{r4, r5, r6, r7, lr}
    6aba:	4fb6      	ldr	r7, [pc, #728]	@ (6d94 <start+0x2dc>)
    6abc:	b085      	sub	sp, #20
    6abe:	6039      	str	r1, [r7, #0]
    6ac0:	683b      	ldr	r3, [r7, #0]
    6ac2:	9001      	str	r0, [sp, #4]
    6ac4:	200a      	movs	r0, #10
    6ac6:	2b00      	cmp	r3, #0
    6ac8:	d100      	bne.n	6acc <start+0x14>
    6aca:	2007      	movs	r0, #7
    6acc:	f7fe ff70 	bl	59b0 <sark_cpu_state>
    6ad0:	2380      	movs	r3, #128	@ 0x80
    6ad2:	059b      	lsls	r3, r3, #22
    6ad4:	2400      	movs	r4, #0
    6ad6:	601c      	str	r4, [r3, #0]
    6ad8:	4baf      	ldr	r3, [pc, #700]	@ (6d98 <start+0x2e0>)
    6ada:	223f      	movs	r2, #63	@ 0x3f
    6adc:	601a      	str	r2, [r3, #0]
    6ade:	3a32      	subs	r2, #50	@ 0x32
    6ae0:	601a      	str	r2, [r3, #0]
    6ae2:	4bae      	ldr	r3, [pc, #696]	@ (6d9c <start+0x2e4>)
    6ae4:	22c0      	movs	r2, #192	@ 0xc0
    6ae6:	0112      	lsls	r2, r2, #4
    6ae8:	601a      	str	r2, [r3, #0]
    6aea:	4bad      	ldr	r3, [pc, #692]	@ (6da0 <start+0x2e8>)
    6aec:	2203      	movs	r2, #3
    6aee:	601a      	str	r2, [r3, #0]
    6af0:	4dac      	ldr	r5, [pc, #688]	@ (6da4 <start+0x2ec>)
    6af2:	4bad      	ldr	r3, [pc, #692]	@ (6da8 <start+0x2f0>)
    6af4:	6828      	ldr	r0, [r5, #0]
    6af6:	6819      	ldr	r1, [r3, #0]
    6af8:	f7ff ff26 	bl	6948 <configure_timer1>
    6afc:	683b      	ldr	r3, [r7, #0]
    6afe:	49ab      	ldr	r1, [pc, #684]	@ (6dac <start+0x2f4>)
    6b00:	9300      	str	r3, [sp, #0]
    6b02:	4bab      	ldr	r3, [pc, #684]	@ (6db0 <start+0x2f8>)
    6b04:	680a      	ldr	r2, [r1, #0]
    6b06:	601a      	str	r2, [r3, #0]
    6b08:	4aaa      	ldr	r2, [pc, #680]	@ (6db4 <start+0x2fc>)
    6b0a:	2320      	movs	r3, #32
    6b0c:	69d8      	ldr	r0, [r3, #28]
    6b0e:	4eaa      	ldr	r6, [pc, #680]	@ (6db8 <start+0x300>)
    6b10:	6010      	str	r0, [r2, #0]
    6b12:	4aaa      	ldr	r2, [pc, #680]	@ (6dbc <start+0x304>)
    6b14:	6830      	ldr	r0, [r6, #0]
    6b16:	6010      	str	r0, [r2, #0]
    6b18:	4aa9      	ldr	r2, [pc, #676]	@ (6dc0 <start+0x308>)
    6b1a:	6810      	ldr	r0, [r2, #0]
    6b1c:	4684      	mov	ip, r0
    6b1e:	48a9      	ldr	r0, [pc, #676]	@ (6dc4 <start+0x30c>)
    6b20:	4662      	mov	r2, ip
    6b22:	6002      	str	r2, [r0, #0]
    6b24:	48a8      	ldr	r0, [pc, #672]	@ (6dc8 <start+0x310>)
    6b26:	6800      	ldr	r0, [r0, #0]
    6b28:	2807      	cmp	r0, #7
    6b2a:	d809      	bhi.n	6b40 <start+0x88>
    6b2c:	f7f9 fc12 	bl	354 <__gnu_thumb1_case_uqi>
    6b30:	cfc7c204 	.word	0xcfc7c204
    6b34:	bdbd04cb 	.word	0xbdbd04cb
    6b38:	2480      	movs	r4, #128	@ 0x80
    6b3a:	48a4      	ldr	r0, [pc, #656]	@ (6dcc <start+0x314>)
    6b3c:	0464      	lsls	r4, r4, #17
    6b3e:	61d8      	str	r0, [r3, #28]
    6b40:	2359      	movs	r3, #89	@ 0x59
    6b42:	781b      	ldrb	r3, [r3, #0]
    6b44:	4aa2      	ldr	r2, [pc, #648]	@ (6dd0 <start+0x318>)
    6b46:	009b      	lsls	r3, r3, #2
    6b48:	189b      	adds	r3, r3, r2
    6b4a:	2000      	movs	r0, #0
    6b4c:	6018      	str	r0, [r3, #0]
    6b4e:	48a1      	ldr	r0, [pc, #644]	@ (6dd4 <start+0x31c>)
    6b50:	4ba1      	ldr	r3, [pc, #644]	@ (6dd8 <start+0x320>)
    6b52:	6003      	str	r3, [r0, #0]
    6b54:	2032      	movs	r0, #50	@ 0x32
    6b56:	6010      	str	r0, [r2, #0]
    6b58:	48a0      	ldr	r0, [pc, #640]	@ (6ddc <start+0x324>)
    6b5a:	4ba1      	ldr	r3, [pc, #644]	@ (6de0 <start+0x328>)
    6b5c:	6003      	str	r3, [r0, #0]
    6b5e:	4ba1      	ldr	r3, [pc, #644]	@ (6de4 <start+0x32c>)
    6b60:	2038      	movs	r0, #56	@ 0x38
    6b62:	6018      	str	r0, [r3, #0]
    6b64:	48a0      	ldr	r0, [pc, #640]	@ (6de8 <start+0x330>)
    6b66:	4ba1      	ldr	r3, [pc, #644]	@ (6dec <start+0x334>)
    6b68:	6003      	str	r3, [r0, #0]
    6b6a:	4ba1      	ldr	r3, [pc, #644]	@ (6df0 <start+0x338>)
    6b6c:	203b      	movs	r0, #59	@ 0x3b
    6b6e:	6018      	str	r0, [r3, #0]
    6b70:	48a0      	ldr	r0, [pc, #640]	@ (6df4 <start+0x33c>)
    6b72:	4ba1      	ldr	r3, [pc, #644]	@ (6df8 <start+0x340>)
    6b74:	6003      	str	r3, [r0, #0]
    6b76:	4ba1      	ldr	r3, [pc, #644]	@ (6dfc <start+0x344>)
    6b78:	202c      	movs	r0, #44	@ 0x2c
    6b7a:	6018      	str	r0, [r3, #0]
    6b7c:	48a0      	ldr	r0, [pc, #640]	@ (6e00 <start+0x348>)
    6b7e:	4ba1      	ldr	r3, [pc, #644]	@ (6e04 <start+0x34c>)
    6b80:	6003      	str	r3, [r0, #0]
    6b82:	4ba1      	ldr	r3, [pc, #644]	@ (6e08 <start+0x350>)
    6b84:	2024      	movs	r0, #36	@ 0x24
    6b86:	6018      	str	r0, [r3, #0]
    6b88:	48a0      	ldr	r0, [pc, #640]	@ (6e0c <start+0x354>)
    6b8a:	4ba1      	ldr	r3, [pc, #644]	@ (6e10 <start+0x358>)
    6b8c:	6003      	str	r3, [r0, #0]
    6b8e:	4ba1      	ldr	r3, [pc, #644]	@ (6e14 <start+0x35c>)
    6b90:	202b      	movs	r0, #43	@ 0x2b
    6b92:	6018      	str	r0, [r3, #0]
    6b94:	48a0      	ldr	r0, [pc, #640]	@ (6e18 <start+0x360>)
    6b96:	4ba1      	ldr	r3, [pc, #644]	@ (6e1c <start+0x364>)
    6b98:	6003      	str	r3, [r0, #0]
    6b9a:	9a00      	ldr	r2, [sp, #0]
    6b9c:	4ba0      	ldr	r3, [pc, #640]	@ (6e20 <start+0x368>)
    6b9e:	2021      	movs	r0, #33	@ 0x21
    6ba0:	6018      	str	r0, [r3, #0]
    6ba2:	6034      	str	r4, [r6, #0]
    6ba4:	680b      	ldr	r3, [r1, #0]
    6ba6:	2a00      	cmp	r2, #0
    6ba8:	d001      	beq.n	6bae <start+0xf6>
    6baa:	2110      	movs	r1, #16
    6bac:	438b      	bics	r3, r1
    6bae:	4a84      	ldr	r2, [pc, #528]	@ (6dc0 <start+0x308>)
    6bb0:	4c9c      	ldr	r4, [pc, #624]	@ (6e24 <start+0x36c>)
    6bb2:	6013      	str	r3, [r2, #0]
    6bb4:	2300      	movs	r3, #0
    6bb6:	6063      	str	r3, [r4, #4]
    6bb8:	61e3      	str	r3, [r4, #28]
    6bba:	6223      	str	r3, [r4, #32]
    6bbc:	6263      	str	r3, [r4, #36]	@ 0x24
    6bbe:	6023      	str	r3, [r4, #0]
    6bc0:	63e3      	str	r3, [r4, #60]	@ 0x3c
    6bc2:	6423      	str	r3, [r4, #64]	@ 0x40
    6bc4:	64a3      	str	r3, [r4, #72]	@ 0x48
    6bc6:	6463      	str	r3, [r4, #68]	@ 0x44
    6bc8:	9b01      	ldr	r3, [sp, #4]
    6bca:	2201      	movs	r2, #1
    6bcc:	6162      	str	r2, [r4, #20]
    6bce:	4293      	cmp	r3, r2
    6bd0:	d101      	bne.n	6bd6 <start+0x11e>
    6bd2:	f7ff f99d 	bl	5f10 <event_wait>
    6bd6:	682b      	ldr	r3, [r5, #0]
    6bd8:	2b00      	cmp	r3, #0
    6bda:	d005      	beq.n	6be8 <start+0x130>
    6bdc:	683b      	ldr	r3, [r7, #0]
    6bde:	2b00      	cmp	r3, #0
    6be0:	d102      	bne.n	6be8 <start+0x130>
    6be2:	4b91      	ldr	r3, [pc, #580]	@ (6e28 <start+0x370>)
    6be4:	22e2      	movs	r2, #226	@ 0xe2
    6be6:	601a      	str	r2, [r3, #0]
    6be8:	4b90      	ldr	r3, [pc, #576]	@ (6e2c <start+0x374>)
    6bea:	2200      	movs	r2, #0
    6bec:	601a      	str	r2, [r3, #0]
    6bee:	4b90      	ldr	r3, [pc, #576]	@ (6e30 <start+0x378>)
    6bf0:	2101      	movs	r1, #1
    6bf2:	6019      	str	r1, [r3, #0]
    6bf4:	4b8f      	ldr	r3, [pc, #572]	@ (6e34 <start+0x37c>)
    6bf6:	601a      	str	r2, [r3, #0]
    6bf8:	4b8d      	ldr	r3, [pc, #564]	@ (6e30 <start+0x378>)
    6bfa:	681b      	ldr	r3, [r3, #0]
    6bfc:	2b00      	cmp	r3, #0
    6bfe:	d000      	beq.n	6c02 <start+0x14a>
    6c00:	e08b      	b.n	6d1a <start+0x262>
    6c02:	f7ff ff0f 	bl	6a24 <clean_up>
    6c06:	f7f9 ead0 	blx	1a8 <cpu_int_enable>
    6c0a:	4a8b      	ldr	r2, [pc, #556]	@ (6e38 <start+0x380>)
    6c0c:	498b      	ldr	r1, [pc, #556]	@ (6e3c <start+0x384>)
    6c0e:	6813      	ldr	r3, [r2, #0]
    6c10:	6808      	ldr	r0, [r1, #0]
    6c12:	4e8b      	ldr	r6, [pc, #556]	@ (6e40 <start+0x388>)
    6c14:	181b      	adds	r3, r3, r0
    6c16:	4d8b      	ldr	r5, [pc, #556]	@ (6e44 <start+0x38c>)
    6c18:	60a3      	str	r3, [r4, #8]
    6c1a:	6833      	ldr	r3, [r6, #0]
    6c1c:	60e3      	str	r3, [r4, #12]
    6c1e:	682b      	ldr	r3, [r5, #0]
    6c20:	61a3      	str	r3, [r4, #24]
    6c22:	4889      	ldr	r0, [pc, #548]	@ (6e48 <start+0x390>)
    6c24:	4b89      	ldr	r3, [pc, #548]	@ (6e4c <start+0x394>)
    6c26:	681b      	ldr	r3, [r3, #0]
    6c28:	6800      	ldr	r0, [r0, #0]
    6c2a:	181b      	adds	r3, r3, r0
    6c2c:	6323      	str	r3, [r4, #48]	@ 0x30
    6c2e:	4b88      	ldr	r3, [pc, #544]	@ (6e50 <start+0x398>)
    6c30:	681b      	ldr	r3, [r3, #0]
    6c32:	6363      	str	r3, [r4, #52]	@ 0x34
    6c34:	4b87      	ldr	r3, [pc, #540]	@ (6e54 <start+0x39c>)
    6c36:	781b      	ldrb	r3, [r3, #0]
    6c38:	2b00      	cmp	r3, #0
    6c3a:	d00b      	beq.n	6c54 <start+0x19c>
    6c3c:	6812      	ldr	r2, [r2, #0]
    6c3e:	680b      	ldr	r3, [r1, #0]
    6c40:	2002      	movs	r0, #2
    6c42:	4985      	ldr	r1, [pc, #532]	@ (6e58 <start+0x3a0>)
    6c44:	18d2      	adds	r2, r2, r3
    6c46:	f7ff fd33 	bl	66b0 <io_printf>
    6c4a:	6832      	ldr	r2, [r6, #0]
    6c4c:	4983      	ldr	r1, [pc, #524]	@ (6e5c <start+0x3a4>)
    6c4e:	2002      	movs	r0, #2
    6c50:	f7ff fd2e 	bl	66b0 <io_printf>
    6c54:	6922      	ldr	r2, [r4, #16]
    6c56:	4982      	ldr	r1, [pc, #520]	@ (6e60 <start+0x3a8>)
    6c58:	2002      	movs	r0, #2
    6c5a:	f7ff fd29 	bl	66b0 <io_printf>
    6c5e:	4981      	ldr	r1, [pc, #516]	@ (6e64 <start+0x3ac>)
    6c60:	6ba2      	ldr	r2, [r4, #56]	@ 0x38
    6c62:	2002      	movs	r0, #2
    6c64:	f7ff fd24 	bl	66b0 <io_printf>
    6c68:	682a      	ldr	r2, [r5, #0]
    6c6a:	497f      	ldr	r1, [pc, #508]	@ (6e68 <start+0x3b0>)
    6c6c:	2002      	movs	r0, #2
    6c6e:	f7ff fd1f 	bl	66b0 <io_printf>
    6c72:	6863      	ldr	r3, [r4, #4]
    6c74:	07db      	lsls	r3, r3, #31
    6c76:	d504      	bpl.n	6c82 <start+0x1ca>
    6c78:	497c      	ldr	r1, [pc, #496]	@ (6e6c <start+0x3b4>)
    6c7a:	6a22      	ldr	r2, [r4, #32]
    6c7c:	2002      	movs	r0, #2
    6c7e:	f7ff fd17 	bl	66b0 <io_printf>
    6c82:	4c68      	ldr	r4, [pc, #416]	@ (6e24 <start+0x36c>)
    6c84:	2002      	movs	r0, #2
    6c86:	6863      	ldr	r3, [r4, #4]
    6c88:	4203      	tst	r3, r0
    6c8a:	d003      	beq.n	6c94 <start+0x1dc>
    6c8c:	4978      	ldr	r1, [pc, #480]	@ (6e70 <start+0x3b8>)
    6c8e:	69e2      	ldr	r2, [r4, #28]
    6c90:	f7ff fd0e 	bl	66b0 <io_printf>
    6c94:	6863      	ldr	r3, [r4, #4]
    6c96:	075b      	lsls	r3, r3, #29
    6c98:	d504      	bpl.n	6ca4 <start+0x1ec>
    6c9a:	4976      	ldr	r1, [pc, #472]	@ (6e74 <start+0x3bc>)
    6c9c:	6a62      	ldr	r2, [r4, #36]	@ 0x24
    6c9e:	2002      	movs	r0, #2
    6ca0:	f7ff fd06 	bl	66b0 <io_printf>
    6ca4:	6820      	ldr	r0, [r4, #0]
    6ca6:	b005      	add	sp, #20
    6ca8:	bdf0      	pop	{r4, r5, r6, r7, pc}
    6caa:	4873      	ldr	r0, [pc, #460]	@ (6e78 <start+0x3c0>)
    6cac:	2480      	movs	r4, #128	@ 0x80
    6cae:	0524      	lsls	r4, r4, #20
    6cb0:	61d8      	str	r0, [r3, #28]
    6cb2:	e745      	b.n	6b40 <start+0x88>
    6cb4:	4871      	ldr	r0, [pc, #452]	@ (6e7c <start+0x3c4>)
    6cb6:	2480      	movs	r4, #128	@ 0x80
    6cb8:	0164      	lsls	r4, r4, #5
    6cba:	61d8      	str	r0, [r3, #28]
    6cbc:	e740      	b.n	6b40 <start+0x88>
    6cbe:	4870      	ldr	r0, [pc, #448]	@ (6e80 <start+0x3c8>)
    6cc0:	2410      	movs	r4, #16
    6cc2:	61d8      	str	r0, [r3, #28]
    6cc4:	e73c      	b.n	6b40 <start+0x88>
    6cc6:	486f      	ldr	r0, [pc, #444]	@ (6e84 <start+0x3cc>)
    6cc8:	2402      	movs	r4, #2
    6cca:	61d8      	str	r0, [r3, #28]
    6ccc:	e738      	b.n	6b40 <start+0x88>
    6cce:	486e      	ldr	r0, [pc, #440]	@ (6e88 <start+0x3d0>)
    6cd0:	2480      	movs	r4, #128	@ 0x80
    6cd2:	02e4      	lsls	r4, r4, #11
    6cd4:	61d8      	str	r0, [r3, #28]
    6cd6:	e733      	b.n	6b40 <start+0x88>
    6cd8:	0028      	movs	r0, r5
    6cda:	f7f9 ea76 	blx	1c8 <cpu_int_restore>
    6cde:	4d6b      	ldr	r5, [pc, #428]	@ (6e8c <start+0x3d4>)
    6ce0:	9b03      	ldr	r3, [sp, #12]
    6ce2:	692a      	ldr	r2, [r5, #16]
    6ce4:	429a      	cmp	r2, r3
    6ce6:	d102      	bne.n	6cee <start+0x236>
    6ce8:	4b4e      	ldr	r3, [pc, #312]	@ (6e24 <start+0x36c>)
    6cea:	2101      	movs	r1, #1
    6cec:	63d9      	str	r1, [r3, #60]	@ 0x3c
    6cee:	9b03      	ldr	r3, [sp, #12]
    6cf0:	429a      	cmp	r2, r3
    6cf2:	d102      	bne.n	6cfa <start+0x242>
    6cf4:	683b      	ldr	r3, [r7, #0]
    6cf6:	2b00      	cmp	r3, #0
    6cf8:	d103      	bne.n	6d02 <start+0x24a>
    6cfa:	9b03      	ldr	r3, [sp, #12]
    6cfc:	9900      	ldr	r1, [sp, #0]
    6cfe:	0030      	movs	r0, r6
    6d00:	4798      	blx	r3
    6d02:	9b03      	ldr	r3, [sp, #12]
    6d04:	692a      	ldr	r2, [r5, #16]
    6d06:	429a      	cmp	r2, r3
    6d08:	d107      	bne.n	6d1a <start+0x262>
    6d0a:	4a46      	ldr	r2, [pc, #280]	@ (6e24 <start+0x36c>)
    6d0c:	6c13      	ldr	r3, [r2, #64]	@ 0x40
    6d0e:	2b00      	cmp	r3, #0
    6d10:	d001      	beq.n	6d16 <start+0x25e>
    6d12:	3b01      	subs	r3, #1
    6d14:	6413      	str	r3, [r2, #64]	@ 0x40
    6d16:	2300      	movs	r3, #0
    6d18:	63d3      	str	r3, [r2, #60]	@ 0x3c
    6d1a:	f7f9 ea4e 	blx	1b8 <cpu_int_disable>
    6d1e:	2100      	movs	r1, #0
    6d20:	0005      	movs	r5, r0
    6d22:	e01f      	b.n	6d64 <start+0x2ac>
    6d24:	4a5a      	ldr	r2, [pc, #360]	@ (6e90 <start+0x3d8>)
    6d26:	6812      	ldr	r2, [r2, #0]
    6d28:	4291      	cmp	r1, r2
    6d2a:	d21f      	bcs.n	6d6c <start+0x2b4>
    6d2c:	23c8      	movs	r3, #200	@ 0xc8
    6d2e:	434b      	muls	r3, r1
    6d30:	4858      	ldr	r0, [pc, #352]	@ (6e94 <start+0x3dc>)
    6d32:	469c      	mov	ip, r3
    6d34:	4662      	mov	r2, ip
    6d36:	1882      	adds	r2, r0, r2
    6d38:	581b      	ldr	r3, [r3, r0]
    6d3a:	6852      	ldr	r2, [r2, #4]
    6d3c:	4293      	cmp	r3, r2
    6d3e:	d010      	beq.n	6d62 <start+0x2aa>
    6d40:	220c      	movs	r2, #12
    6d42:	435a      	muls	r2, r3
    6d44:	4462      	add	r2, ip
    6d46:	1882      	adds	r2, r0, r2
    6d48:	6896      	ldr	r6, [r2, #8]
    6d4a:	9603      	str	r6, [sp, #12]
    6d4c:	68d6      	ldr	r6, [r2, #12]
    6d4e:	6912      	ldr	r2, [r2, #16]
    6d50:	3301      	adds	r3, #1
    6d52:	9200      	str	r2, [sp, #0]
    6d54:	220f      	movs	r2, #15
    6d56:	4013      	ands	r3, r2
    6d58:	4662      	mov	r2, ip
    6d5a:	5013      	str	r3, [r2, r0]
    6d5c:	9b03      	ldr	r3, [sp, #12]
    6d5e:	2b00      	cmp	r3, #0
    6d60:	d1ba      	bne.n	6cd8 <start+0x220>
    6d62:	3101      	adds	r1, #1
    6d64:	4b32      	ldr	r3, [pc, #200]	@ (6e30 <start+0x378>)
    6d66:	681a      	ldr	r2, [r3, #0]
    6d68:	2a00      	cmp	r2, #0
    6d6a:	d1db      	bne.n	6d24 <start+0x26c>
    6d6c:	681b      	ldr	r3, [r3, #0]
    6d6e:	2b00      	cmp	r3, #0
    6d70:	d100      	bne.n	6d74 <start+0x2bc>
    6d72:	e741      	b.n	6bf8 <start+0x140>
    6d74:	f7f9 ea2c 	blx	1d0 <cpu_wfi>
    6d78:	4b2e      	ldr	r3, [pc, #184]	@ (6e34 <start+0x37c>)
    6d7a:	681b      	ldr	r3, [r3, #0]
    6d7c:	2b01      	cmp	r3, #1
    6d7e:	d105      	bne.n	6d8c <start+0x2d4>
    6d80:	f7ff fe86 	bl	6a90 <resume_wait>
    6d84:	2800      	cmp	r0, #0
    6d86:	d101      	bne.n	6d8c <start+0x2d4>
    6d88:	f7ff fe24 	bl	69d4 <resume>
    6d8c:	0028      	movs	r0, r5
    6d8e:	f7f9 ea1c 	blx	1c8 <cpu_int_restore>
    6d92:	e731      	b.n	6bf8 <start+0x140>
    6d94:	004011c8 	.word	0x004011c8
    6d98:	40000010 	.word	0x40000010
    6d9c:	40000018 	.word	0x40000018
    6da0:	40000028 	.word	0x40000028
    6da4:	004011bc 	.word	0x004011bc
    6da8:	004011a4 	.word	0x004011a4
    6dac:	00401194 	.word	0x00401194
    6db0:	1f000014 	.word	0x1f000014
    6db4:	004011a0 	.word	0x004011a0
    6db8:	1f00000c 	.word	0x1f00000c
    6dbc:	0040119c 	.word	0x0040119c
    6dc0:	1f000010 	.word	0x1f000010
    6dc4:	00401198 	.word	0x00401198
    6dc8:	0040000c 	.word	0x0040000c
    6dcc:	00007194 	.word	0x00007194
    6dd0:	2f000200 	.word	0x2f000200
    6dd4:	2f000100 	.word	0x2f000100
    6dd8:	000002f0 	.word	0x000002f0
    6ddc:	2f000110 	.word	0x2f000110
    6de0:	00007120 	.word	0x00007120
    6de4:	2f000210 	.word	0x2f000210
    6de8:	2f000114 	.word	0x2f000114
    6dec:	000071cc 	.word	0x000071cc
    6df0:	2f000214 	.word	0x2f000214
    6df4:	2f00010c 	.word	0x2f00010c
    6df8:	0000730c 	.word	0x0000730c
    6dfc:	2f00020c 	.word	0x2f00020c
    6e00:	2f000108 	.word	0x2f000108
    6e04:	00007414 	.word	0x00007414
    6e08:	2f000208 	.word	0x2f000208
    6e0c:	2f000118 	.word	0x2f000118
    6e10:	00007278 	.word	0x00007278
    6e14:	2f000218 	.word	0x2f000218
    6e18:	2f00011c 	.word	0x2f00011c
    6e1c:	00007594 	.word	0x00007594
    6e20:	2f00021c 	.word	0x2f00021c
    6e24:	00400bac 	.word	0x00400bac
    6e28:	21000008 	.word	0x21000008
    6e2c:	004011c0 	.word	0x004011c0
    6e30:	004011cc 	.word	0x004011cc
    6e34:	004011c4 	.word	0x004011c4
    6e38:	e1000300 	.word	0xe1000300
    6e3c:	e1000304 	.word	0xe1000304
    6e40:	e1000320 	.word	0xe1000320
    6e44:	40000040 	.word	0x40000040
    6e48:	e100031c 	.word	0xe100031c
    6e4c:	e1000318 	.word	0xe1000318
    6e50:	e100032c 	.word	0xe100032c
    6e54:	004011d0 	.word	0x004011d0
    6e58:	00007910 	.word	0x00007910
    6e5c:	00007936 	.word	0x00007936
    6e60:	0000795c 	.word	0x0000795c
    6e64:	00007982 	.word	0x00007982
    6e68:	000079ab 	.word	0x000079ab
    6e6c:	000079ca 	.word	0x000079ca
    6e70:	000079f6 	.word	0x000079f6
    6e74:	00007a21 	.word	0x00007a21
    6e78:	00007240 	.word	0x00007240
    6e7c:	0000739c 	.word	0x0000739c
    6e80:	00007554 	.word	0x00007554
    6e84:	00007600 	.word	0x00007600
    6e88:	00007654 	.word	0x00007654
    6e8c:	00400bf8 	.word	0x00400bf8
    6e90:	00401190 	.word	0x00401190
    6e94:	00400c38 	.word	0x00400c38

00006e98 <spin1_callback_on>:
    6e98:	4b25      	ldr	r3, [pc, #148]	@ (6f30 <spin1_callback_on+0x98>)
    6e9a:	b510      	push	{r4, lr}
    6e9c:	00c4      	lsls	r4, r0, #3
    6e9e:	5119      	str	r1, [r3, r4]
    6ea0:	191b      	adds	r3, r3, r4
    6ea2:	605a      	str	r2, [r3, #4]
    6ea4:	2a00      	cmp	r2, #0
    6ea6:	da21      	bge.n	6eec <spin1_callback_on+0x54>
    6ea8:	4b22      	ldr	r3, [pc, #136]	@ (6f34 <spin1_callback_on+0x9c>)
    6eaa:	6819      	ldr	r1, [r3, #0]
    6eac:	1c4c      	adds	r4, r1, #1
    6eae:	d01c      	beq.n	6eea <spin1_callback_on+0x52>
    6eb0:	2800      	cmp	r0, #0
    6eb2:	d108      	bne.n	6ec6 <spin1_callback_on+0x2e>
    6eb4:	2905      	cmp	r1, #5
    6eb6:	d10a      	bne.n	6ece <spin1_callback_on+0x36>
    6eb8:	6018      	str	r0, [r3, #0]
    6eba:	491f      	ldr	r1, [pc, #124]	@ (6f38 <spin1_callback_on+0xa0>)
    6ebc:	680b      	ldr	r3, [r1, #0]
    6ebe:	1c9c      	adds	r4, r3, #2
    6ec0:	d11d      	bne.n	6efe <spin1_callback_on+0x66>
    6ec2:	600a      	str	r2, [r1, #0]
    6ec4:	e01f      	b.n	6f06 <spin1_callback_on+0x6e>
    6ec6:	2805      	cmp	r0, #5
    6ec8:	d104      	bne.n	6ed4 <spin1_callback_on+0x3c>
    6eca:	2900      	cmp	r1, #0
    6ecc:	d0f4      	beq.n	6eb8 <spin1_callback_on+0x20>
    6ece:	2013      	movs	r0, #19
    6ed0:	f7f9 e92c 	blx	12c <rt_error>
    6ed4:	2806      	cmp	r0, #6
    6ed6:	d103      	bne.n	6ee0 <spin1_callback_on+0x48>
    6ed8:	2907      	cmp	r1, #7
    6eda:	d1f8      	bne.n	6ece <spin1_callback_on+0x36>
    6edc:	6018      	str	r0, [r3, #0]
    6ede:	e00c      	b.n	6efa <spin1_callback_on+0x62>
    6ee0:	2807      	cmp	r0, #7
    6ee2:	d1f4      	bne.n	6ece <spin1_callback_on+0x36>
    6ee4:	2906      	cmp	r1, #6
    6ee6:	d0f9      	beq.n	6edc <spin1_callback_on+0x44>
    6ee8:	e7f1      	b.n	6ece <spin1_callback_on+0x36>
    6eea:	6018      	str	r0, [r3, #0]
    6eec:	2800      	cmp	r0, #0
    6eee:	d0e4      	beq.n	6eba <spin1_callback_on+0x22>
    6ef0:	2805      	cmp	r0, #5
    6ef2:	d0e2      	beq.n	6eba <spin1_callback_on+0x22>
    6ef4:	1f83      	subs	r3, r0, #6
    6ef6:	2b01      	cmp	r3, #1
    6ef8:	d805      	bhi.n	6f06 <spin1_callback_on+0x6e>
    6efa:	4910      	ldr	r1, [pc, #64]	@ (6f3c <spin1_callback_on+0xa4>)
    6efc:	e7de      	b.n	6ebc <spin1_callback_on+0x24>
    6efe:	3301      	adds	r3, #1
    6f00:	d101      	bne.n	6f06 <spin1_callback_on+0x6e>
    6f02:	1c53      	adds	r3, r2, #1
    6f04:	d1e3      	bne.n	6ece <spin1_callback_on+0x36>
    6f06:	4b0e      	ldr	r3, [pc, #56]	@ (6f40 <spin1_callback_on+0xa8>)
    6f08:	0080      	lsls	r0, r0, #2
    6f0a:	58c1      	ldr	r1, [r0, r3]
    6f0c:	480d      	ldr	r0, [pc, #52]	@ (6f44 <spin1_callback_on+0xac>)
    6f0e:	6803      	ldr	r3, [r0, #0]
    6f10:	430b      	orrs	r3, r1
    6f12:	6003      	str	r3, [r0, #0]
    6f14:	4b0c      	ldr	r3, [pc, #48]	@ (6f48 <spin1_callback_on+0xb0>)
    6f16:	681b      	ldr	r3, [r3, #0]
    6f18:	2b00      	cmp	r3, #0
    6f1a:	d001      	beq.n	6f20 <spin1_callback_on+0x88>
    6f1c:	4b0b      	ldr	r3, [pc, #44]	@ (6f4c <spin1_callback_on+0xb4>)
    6f1e:	6019      	str	r1, [r3, #0]
    6f20:	2a00      	cmp	r2, #0
    6f22:	dd04      	ble.n	6f2e <spin1_callback_on+0x96>
    6f24:	4b0a      	ldr	r3, [pc, #40]	@ (6f50 <spin1_callback_on+0xb8>)
    6f26:	6819      	ldr	r1, [r3, #0]
    6f28:	4291      	cmp	r1, r2
    6f2a:	d200      	bcs.n	6f2e <spin1_callback_on+0x96>
    6f2c:	601a      	str	r2, [r3, #0]
    6f2e:	bd10      	pop	{r4, pc}
    6f30:	00400bf8 	.word	0x00400bf8
    6f34:	0040000c 	.word	0x0040000c
    6f38:	00400008 	.word	0x00400008
    6f3c:	00400004 	.word	0x00400004
    6f40:	00007a60 	.word	0x00007a60
    6f44:	00401194 	.word	0x00401194
    6f48:	004011cc 	.word	0x004011cc
    6f4c:	1f000010 	.word	0x1f000010
    6f50:	00401190 	.word	0x00401190

00006f54 <spin1_set_timer_tick_and_phase>:
    6f54:	4b02      	ldr	r3, [pc, #8]	@ (6f60 <spin1_set_timer_tick_and_phase+0xc>)
    6f56:	6018      	str	r0, [r3, #0]
    6f58:	4b02      	ldr	r3, [pc, #8]	@ (6f64 <spin1_set_timer_tick_and_phase+0x10>)
    6f5a:	6019      	str	r1, [r3, #0]
    6f5c:	4770      	bx	lr
    6f5e:	46c0      	nop			@ (mov r8, r8)
    6f60:	004011bc 	.word	0x004011bc
    6f64:	004011a4 	.word	0x004011a4

00006f68 <spin1_start>:
    6f68:	b510      	push	{r4, lr}
    6f6a:	2100      	movs	r1, #0
    6f6c:	f7ff fda4 	bl	6ab8 <start>
    6f70:	bd10      	pop	{r4, pc}
	...

00006f74 <spin1_send_packet>:
    6f74:	b5f0      	push	{r4, r5, r6, r7, lr}
    6f76:	b085      	sub	sp, #20
    6f78:	000d      	movs	r5, r1
    6f7a:	0014      	movs	r4, r2
    6f7c:	0006      	movs	r6, r0
    6f7e:	f7f9 e91c 	blx	1b8 <cpu_int_disable>
    6f82:	2180      	movs	r1, #128	@ 0x80
    6f84:	0589      	lsls	r1, r1, #22
    6f86:	2300      	movs	r3, #0
    6f88:	9001      	str	r0, [sp, #4]
    6f8a:	600b      	str	r3, [r1, #0]
    6f8c:	680a      	ldr	r2, [r1, #0]
    6f8e:	680f      	ldr	r7, [r1, #0]
    6f90:	4a2f      	ldr	r2, [pc, #188]	@ (7050 <spin1_send_packet+0xdc>)
    6f92:	007f      	lsls	r7, r7, #1
    6f94:	d524      	bpl.n	6fe0 <spin1_send_packet+0x6c>
    6f96:	6857      	ldr	r7, [r2, #4]
    6f98:	1c79      	adds	r1, r7, #1
    6f9a:	468c      	mov	ip, r1
    6f9c:	4660      	mov	r0, ip
    6f9e:	210f      	movs	r1, #15
    6fa0:	4001      	ands	r1, r0
    6fa2:	6810      	ldr	r0, [r2, #0]
    6fa4:	4281      	cmp	r1, r0
    6fa6:	d10e      	bne.n	6fc6 <spin1_send_packet+0x52>
    6fa8:	4a2a      	ldr	r2, [pc, #168]	@ (7054 <spin1_send_packet+0xe0>)
    6faa:	2104      	movs	r1, #4
    6fac:	6854      	ldr	r4, [r2, #4]
    6fae:	4321      	orrs	r1, r4
    6fb0:	6051      	str	r1, [r2, #4]
    6fb2:	6a51      	ldr	r1, [r2, #36]	@ 0x24
    6fb4:	001c      	movs	r4, r3
    6fb6:	3101      	adds	r1, #1
    6fb8:	6251      	str	r1, [r2, #36]	@ 0x24
    6fba:	9801      	ldr	r0, [sp, #4]
    6fbc:	f7f9 e904 	blx	1c8 <cpu_int_restore>
    6fc0:	0020      	movs	r0, r4
    6fc2:	b005      	add	sp, #20
    6fc4:	bdf0      	pop	{r4, r5, r6, r7, pc}
    6fc6:	230c      	movs	r3, #12
    6fc8:	437b      	muls	r3, r7
    6fca:	18d3      	adds	r3, r2, r3
    6fcc:	609e      	str	r6, [r3, #8]
    6fce:	60dd      	str	r5, [r3, #12]
    6fd0:	611c      	str	r4, [r3, #16]
    6fd2:	4b21      	ldr	r3, [pc, #132]	@ (7058 <spin1_send_packet+0xe4>)
    6fd4:	6051      	str	r1, [r2, #4]
    6fd6:	2280      	movs	r2, #128	@ 0x80
    6fd8:	0112      	lsls	r2, r2, #4
    6fda:	601a      	str	r2, [r3, #0]
    6fdc:	2401      	movs	r4, #1
    6fde:	e7ec      	b.n	6fba <spin1_send_packet+0x46>
    6fe0:	6853      	ldr	r3, [r2, #4]
    6fe2:	6817      	ldr	r7, [r2, #0]
    6fe4:	200f      	movs	r0, #15
    6fe6:	3301      	adds	r3, #1
    6fe8:	4684      	mov	ip, r0
    6fea:	4003      	ands	r3, r0
    6fec:	42bb      	cmp	r3, r7
    6fee:	d114      	bne.n	701a <spin1_send_packet+0xa6>
    6ff0:	270c      	movs	r7, #12
    6ff2:	435f      	muls	r7, r3
    6ff4:	19d7      	adds	r7, r2, r7
    6ff6:	68b8      	ldr	r0, [r7, #8]
    6ff8:	9002      	str	r0, [sp, #8]
    6ffa:	68f8      	ldr	r0, [r7, #12]
    6ffc:	9003      	str	r0, [sp, #12]
    6ffe:	693f      	ldr	r7, [r7, #16]
    7000:	3301      	adds	r3, #1
    7002:	4660      	mov	r0, ip
    7004:	4003      	ands	r3, r0
    7006:	6013      	str	r3, [r2, #0]
    7008:	600f      	str	r7, [r1, #0]
    700a:	03bf      	lsls	r7, r7, #14
    700c:	d502      	bpl.n	7014 <spin1_send_packet+0xa0>
    700e:	4b13      	ldr	r3, [pc, #76]	@ (705c <spin1_send_packet+0xe8>)
    7010:	9a03      	ldr	r2, [sp, #12]
    7012:	601a      	str	r2, [r3, #0]
    7014:	4b12      	ldr	r3, [pc, #72]	@ (7060 <spin1_send_packet+0xec>)
    7016:	9a02      	ldr	r2, [sp, #8]
    7018:	601a      	str	r2, [r3, #0]
    701a:	490d      	ldr	r1, [pc, #52]	@ (7050 <spin1_send_packet+0xdc>)
    701c:	684b      	ldr	r3, [r1, #4]
    701e:	680a      	ldr	r2, [r1, #0]
    7020:	429a      	cmp	r2, r3
    7022:	d10a      	bne.n	703a <spin1_send_packet+0xc6>
    7024:	2380      	movs	r3, #128	@ 0x80
    7026:	059b      	lsls	r3, r3, #22
    7028:	601c      	str	r4, [r3, #0]
    702a:	03a4      	lsls	r4, r4, #14
    702c:	d501      	bpl.n	7032 <spin1_send_packet+0xbe>
    702e:	4b0b      	ldr	r3, [pc, #44]	@ (705c <spin1_send_packet+0xe8>)
    7030:	601d      	str	r5, [r3, #0]
    7032:	4b0b      	ldr	r3, [pc, #44]	@ (7060 <spin1_send_packet+0xec>)
    7034:	601e      	str	r6, [r3, #0]
    7036:	4b0b      	ldr	r3, [pc, #44]	@ (7064 <spin1_send_packet+0xf0>)
    7038:	e7cd      	b.n	6fd6 <spin1_send_packet+0x62>
    703a:	220c      	movs	r2, #12
    703c:	435a      	muls	r2, r3
    703e:	188a      	adds	r2, r1, r2
    7040:	3301      	adds	r3, #1
    7042:	6096      	str	r6, [r2, #8]
    7044:	60d5      	str	r5, [r2, #12]
    7046:	6114      	str	r4, [r2, #16]
    7048:	220f      	movs	r2, #15
    704a:	4013      	ands	r3, r2
    704c:	604b      	str	r3, [r1, #4]
    704e:	e7c5      	b.n	6fdc <spin1_send_packet+0x68>
    7050:	00400f80 	.word	0x00400f80
    7054:	00400bac 	.word	0x00400bac
    7058:	1f000010 	.word	0x1f000010
    705c:	20000004 	.word	0x20000004
    7060:	20000008 	.word	0x20000008
    7064:	1f000014 	.word	0x1f000014

00007068 <schedule_sysmode>:
    7068:	b5f7      	push	{r0, r1, r2, r4, r5, r6, r7, lr}
    706a:	9000      	str	r0, [sp, #0]
    706c:	9b00      	ldr	r3, [sp, #0]
    706e:	9201      	str	r2, [sp, #4]
    7070:	4a19      	ldr	r2, [pc, #100]	@ (70d8 <schedule_sysmode+0x70>)
    7072:	00df      	lsls	r7, r3, #3
    7074:	19d3      	adds	r3, r2, r7
    7076:	685c      	ldr	r4, [r3, #4]
    7078:	0008      	movs	r0, r1
    707a:	2c00      	cmp	r4, #0
    707c:	dc03      	bgt.n	7086 <schedule_sysmode+0x1e>
    707e:	58bb      	ldr	r3, [r7, r2]
    7080:	9901      	ldr	r1, [sp, #4]
    7082:	4798      	blx	r3
    7084:	bdf7      	pop	{r0, r1, r2, r4, r5, r6, r7, pc}
    7086:	3c01      	subs	r4, #1
    7088:	25c8      	movs	r5, #200	@ 0xc8
    708a:	4365      	muls	r5, r4
    708c:	4b13      	ldr	r3, [pc, #76]	@ (70dc <schedule_sysmode+0x74>)
    708e:	240f      	movs	r4, #15
    7090:	1959      	adds	r1, r3, r5
    7092:	468c      	mov	ip, r1
    7094:	6849      	ldr	r1, [r1, #4]
    7096:	1c4e      	adds	r6, r1, #1
    7098:	4026      	ands	r6, r4
    709a:	58ec      	ldr	r4, [r5, r3]
    709c:	42a6      	cmp	r6, r4
    709e:	d012      	beq.n	70c6 <schedule_sysmode+0x5e>
    70a0:	240c      	movs	r4, #12
    70a2:	4361      	muls	r1, r4
    70a4:	194c      	adds	r4, r1, r5
    70a6:	191b      	adds	r3, r3, r4
    70a8:	58ba      	ldr	r2, [r7, r2]
    70aa:	609a      	str	r2, [r3, #8]
    70ac:	9a01      	ldr	r2, [sp, #4]
    70ae:	60d8      	str	r0, [r3, #12]
    70b0:	611a      	str	r2, [r3, #16]
    70b2:	4663      	mov	r3, ip
    70b4:	605e      	str	r6, [r3, #4]
    70b6:	9b00      	ldr	r3, [sp, #0]
    70b8:	2b02      	cmp	r3, #2
    70ba:	d1e3      	bne.n	7084 <schedule_sysmode+0x1c>
    70bc:	4a08      	ldr	r2, [pc, #32]	@ (70e0 <schedule_sysmode+0x78>)
    70be:	6c13      	ldr	r3, [r2, #64]	@ 0x40
    70c0:	3301      	adds	r3, #1
    70c2:	6413      	str	r3, [r2, #64]	@ 0x40
    70c4:	e7de      	b.n	7084 <schedule_sysmode+0x1c>
    70c6:	4b06      	ldr	r3, [pc, #24]	@ (70e0 <schedule_sysmode+0x78>)
    70c8:	2201      	movs	r2, #1
    70ca:	6859      	ldr	r1, [r3, #4]
    70cc:	430a      	orrs	r2, r1
    70ce:	605a      	str	r2, [r3, #4]
    70d0:	6a1a      	ldr	r2, [r3, #32]
    70d2:	3201      	adds	r2, #1
    70d4:	621a      	str	r2, [r3, #32]
    70d6:	e7d5      	b.n	7084 <schedule_sysmode+0x1c>
    70d8:	00400bf8 	.word	0x00400bf8
    70dc:	00400c38 	.word	0x00400c38
    70e0:	00400bac 	.word	0x00400bac

000070e4 <sark_pre_main>:
    70e4:	b510      	push	{r4, lr}
    70e6:	f7fe fcd9 	bl	5a9c <sark_call_cpp_constructors>
    70ea:	2006      	movs	r0, #6
    70ec:	f7fe fc60 	bl	59b0 <sark_cpu_state>
    70f0:	235b      	movs	r3, #91	@ 0x5b
    70f2:	2201      	movs	r2, #1
    70f4:	701a      	strb	r2, [r3, #0]
    70f6:	f7fe fc63 	bl	59c0 <sark_app_lead>
    70fa:	4b04      	ldr	r3, [pc, #16]	@ (710c <sark_pre_main+0x28>)
    70fc:	4a04      	ldr	r2, [pc, #16]	@ (7110 <sark_pre_main+0x2c>)
    70fe:	681b      	ldr	r3, [r3, #0]
    7100:	1a1b      	subs	r3, r3, r0
    7102:	4259      	negs	r1, r3
    7104:	414b      	adcs	r3, r1
    7106:	7013      	strb	r3, [r2, #0]
    7108:	bd10      	pop	{r4, pc}
    710a:	46c0      	nop			@ (mov r8, r8)
    710c:	00400aac 	.word	0x00400aac
    7110:	004011d0 	.word	0x004011d0

00007114 <sark_post_main>:
    7114:	b510      	push	{r4, lr}
    7116:	200b      	movs	r0, #11
    7118:	f7fe fc4a 	bl	59b0 <sark_cpu_state>
    711c:	bd10      	pop	{r4, pc}
	...

00007120 <cc_rx_ready_isr>:
    7120:	e24ee004 	sub	lr, lr, #4
    7124:	e92d500f 	push	{r0, r1, r2, r3, ip, lr}
    7128:	e3a03202 	mov	r3, #536870912	@ 0x20000000
    712c:	e593200c 	ldr	r2, [r3, #12]
    7130:	e59f0054 	ldr	r0, [pc, #84]	@ 718c <cc_rx_ready_isr+0x6c>
    7134:	e2122802 	ands	r2, r2, #131072	@ 0x20000
    7138:	0a00000a 	beq	7168 <cc_rx_ready_isr+0x48>
    713c:	e5932010 	ldr	r2, [r3, #16]
    7140:	e5931014 	ldr	r1, [r3, #20]
    7144:	e5903028 	ldr	r3, [r0, #40]	@ 0x28
    7148:	e3530000 	cmp	r3, #0
    714c:	13a00005 	movne	r0, #5
    7150:	1a000009 	bne	717c <cc_rx_ready_isr+0x5c>
    7154:	e59f2034 	ldr	r2, [pc, #52]	@ 7190 <cc_rx_ready_isr+0x70>
    7158:	e5923010 	ldr	r3, [r2, #16]
    715c:	e2833001 	add	r3, r3, #1
    7160:	e5823010 	str	r3, [r2, #16]
    7164:	ea000005 	b	7180 <cc_rx_ready_isr+0x60>
    7168:	e5931014 	ldr	r1, [r3, #20]
    716c:	e5903000 	ldr	r3, [r0]
    7170:	e3530000 	cmp	r3, #0
    7174:	0afffff6 	beq	7154 <cc_rx_ready_isr+0x34>
    7178:	e1a00002 	mov	r0, r2
    717c:	ebffe468 	bl	324 <schedule>
    7180:	e3a0341f 	mov	r3, #520093696	@ 0x1f000000
    7184:	e5833030 	str	r3, [r3, #48]	@ 0x30
    7188:	e8fd900f 	ldm	sp!, {r0, r1, r2, r3, ip, pc}^
    718c:	00400bf8 	.word	0x00400bf8
    7190:	00400bac 	.word	0x00400bac

00007194 <cc_rx_ready_fiqsr>:
    7194:	e24ee004 	sub	lr, lr, #4
    7198:	e92d500f 	push	{r0, r1, r2, r3, ip, lr}
    719c:	e3a03202 	mov	r3, #536870912	@ 0x20000000
    71a0:	e593100c 	ldr	r1, [r3, #12]
    71a4:	e59f201c 	ldr	r2, [pc, #28]	@ 71c8 <cc_rx_ready_fiqsr+0x34>
    71a8:	e2111802 	ands	r1, r1, #131072	@ 0x20000
    71ac:	15931010 	ldrne	r1, [r3, #16]
    71b0:	05930014 	ldreq	r0, [r3, #20]
    71b4:	15930014 	ldrne	r0, [r3, #20]
    71b8:	05923000 	ldreq	r3, [r2]
    71bc:	15923028 	ldrne	r3, [r2, #40]	@ 0x28
    71c0:	e12fff33 	blx	r3
    71c4:	e8fd900f 	ldm	sp!, {r0, r1, r2, r3, ip, pc}^
    71c8:	00400bf8 	.word	0x00400bf8

000071cc <cc_fr_ready_isr>:
    71cc:	e24ee004 	sub	lr, lr, #4
    71d0:	e92d500f 	push	{r0, r1, r2, r3, ip, lr}
    71d4:	e3a03202 	mov	r3, #536870912	@ 0x20000000
    71d8:	e593200c 	ldr	r2, [r3, #12]
    71dc:	e59f0054 	ldr	r0, [pc, #84]	@ 7238 <cc_fr_ready_isr+0x6c>
    71e0:	e2122802 	ands	r2, r2, #131072	@ 0x20000
    71e4:	0a00000c 	beq	721c <cc_fr_ready_isr+0x50>
    71e8:	e5932010 	ldr	r2, [r3, #16]
    71ec:	e5931014 	ldr	r1, [r3, #20]
    71f0:	e5903038 	ldr	r3, [r0, #56]	@ 0x38
    71f4:	e3530000 	cmp	r3, #0
    71f8:	13a00007 	movne	r0, #7
    71fc:	1a00000b 	bne	7230 <cc_fr_ready_isr+0x64>
    7200:	e59f2034 	ldr	r2, [pc, #52]	@ 723c <cc_fr_ready_isr+0x70>
    7204:	e5923038 	ldr	r3, [r2, #56]	@ 0x38
    7208:	e2833001 	add	r3, r3, #1
    720c:	e5823038 	str	r3, [r2, #56]	@ 0x38
    7210:	e3a0341f 	mov	r3, #520093696	@ 0x1f000000
    7214:	e5833030 	str	r3, [r3, #48]	@ 0x30
    7218:	e8fd900f 	ldm	sp!, {r0, r1, r2, r3, ip, pc}^
    721c:	e5931014 	ldr	r1, [r3, #20]
    7220:	e5903030 	ldr	r3, [r0, #48]	@ 0x30
    7224:	e3530000 	cmp	r3, #0
    7228:	0afffff4 	beq	7200 <cc_fr_ready_isr+0x34>
    722c:	e3a00006 	mov	r0, #6
    7230:	ebffe43b 	bl	324 <schedule>
    7234:	eafffff5 	b	7210 <cc_fr_ready_isr+0x44>
    7238:	00400bf8 	.word	0x00400bf8
    723c:	00400bac 	.word	0x00400bac

00007240 <cc_fr_ready_fiqsr>:
    7240:	e24ee004 	sub	lr, lr, #4
    7244:	e92d500f 	push	{r0, r1, r2, r3, ip, lr}
    7248:	e3a03202 	mov	r3, #536870912	@ 0x20000000
    724c:	e593100c 	ldr	r1, [r3, #12]
    7250:	e59f201c 	ldr	r2, [pc, #28]	@ 7274 <cc_fr_ready_fiqsr+0x34>
    7254:	e2111802 	ands	r1, r1, #131072	@ 0x20000
    7258:	15931010 	ldrne	r1, [r3, #16]
    725c:	05930014 	ldreq	r0, [r3, #20]
    7260:	15930014 	ldrne	r0, [r3, #20]
    7264:	05923030 	ldreq	r3, [r2, #48]	@ 0x30
    7268:	15923038 	ldrne	r3, [r2, #56]	@ 0x38
    726c:	e12fff33 	blx	r3
    7270:	e8fd900f 	ldm	sp!, {r0, r1, r2, r3, ip, pc}^
    7274:	00400bf8 	.word	0x00400bf8

00007278 <cc_tx_empty_isr>:
    7278:	e24ee004 	sub	lr, lr, #4
    727c:	e92d501f 	push	{r0, r1, r2, r3, r4, ip, lr}
    7280:	e3a03202 	mov	r3, #536870912	@ 0x20000000
    7284:	e3a02000 	mov	r2, #0
    7288:	e5832000 	str	r2, [r3]
    728c:	e59f1074 	ldr	r1, [pc, #116]	@ 7308 <cc_tx_empty_isr+0x90>
    7290:	e5932000 	ldr	r2, [r3]
    7294:	e3a0c00c 	mov	ip, #12
    7298:	e5912000 	ldr	r2, [r1]
    729c:	e5910004 	ldr	r0, [r1, #4]
    72a0:	e1520000 	cmp	r2, r0
    72a4:	0a000013 	beq	72f8 <cc_tx_empty_isr+0x80>
    72a8:	e5930000 	ldr	r0, [r3]
    72ac:	e3100101 	tst	r0, #1073741824	@ 0x40000000
    72b0:	0a000003 	beq	72c4 <cc_tx_empty_isr+0x4c>
    72b4:	e3a0341f 	mov	r3, #520093696	@ 0x1f000000
    72b8:	e3a02001 	mov	r2, #1
    72bc:	e5832030 	str	r2, [r3, #48]	@ 0x30
    72c0:	e8fd901f 	ldm	sp!, {r0, r1, r2, r3, r4, ip, pc}^
    72c4:	e020129c 	mla	r0, ip, r2, r1
    72c8:	e2822001 	add	r2, r2, #1
    72cc:	e590e008 	ldr	lr, [r0, #8]
    72d0:	e590400c 	ldr	r4, [r0, #12]
    72d4:	e5900010 	ldr	r0, [r0, #16]
    72d8:	e202200f 	and	r2, r2, #15
    72dc:	e3100802 	tst	r0, #131072	@ 0x20000
    72e0:	e5812000 	str	r2, [r1]
    72e4:	e5830000 	str	r0, [r3]
    72e8:	15834004 	strne	r4, [r3, #4]
    72ec:	e583e008 	str	lr, [r3, #8]
    72f0:	e5932000 	ldr	r2, [r3]
    72f4:	eaffffe7 	b	7298 <cc_tx_empty_isr+0x20>
    72f8:	e3a0341f 	mov	r3, #520093696	@ 0x1f000000
    72fc:	e3a02b02 	mov	r2, #2048	@ 0x800
    7300:	e5832014 	str	r2, [r3, #20]
    7304:	eaffffea 	b	72b4 <cc_tx_empty_isr+0x3c>
    7308:	00400f80 	.word	0x00400f80

0000730c <dma_done_isr>:
    730c:	e24ee004 	sub	lr, lr, #4
    7310:	e92d503f 	push	{r0, r1, r2, r3, r4, r5, ip, lr}
    7314:	e3a03008 	mov	r3, #8
    7318:	e3a0c101 	mov	ip, #1073741824	@ 0x40000000
    731c:	e58c3010 	str	r3, [ip, #16]
    7320:	e59f306c 	ldr	r3, [pc, #108]	@ 7394 <dma_done_isr+0x88>
    7324:	e3a0e014 	mov	lr, #20
    7328:	e5930000 	ldr	r0, [r3]
    732c:	e5934004 	ldr	r4, [r3, #4]
    7330:	e022309e 	mla	r2, lr, r0, r3
    7334:	e2800001 	add	r0, r0, #1
    7338:	e200000f 	and	r0, r0, #15
    733c:	e1500004 	cmp	r0, r4
    7340:	e5921008 	ldr	r1, [r2, #8]
    7344:	e5830000 	str	r0, [r3]
    7348:	e592200c 	ldr	r2, [r2, #12]
    734c:	0a000006 	beq	736c <dma_done_isr+0x60>
    7350:	e023309e 	mla	r3, lr, r0, r3
    7354:	e593e014 	ldr	lr, [r3, #20]
    7358:	e5930018 	ldr	r0, [r3, #24]
    735c:	e5933010 	ldr	r3, [r3, #16]
    7360:	e58c3004 	str	r3, [ip, #4]
    7364:	e58ce008 	str	lr, [ip, #8]
    7368:	e58c000c 	str	r0, [ip, #12]
    736c:	e59f3024 	ldr	r3, [pc, #36]	@ 7398 <dma_done_isr+0x8c>
    7370:	e5933008 	ldr	r3, [r3, #8]
    7374:	e3530000 	cmp	r3, #0
    7378:	0a000001 	beq	7384 <dma_done_isr+0x78>
    737c:	e3a00001 	mov	r0, #1
    7380:	ebffe3e7 	bl	324 <schedule>
    7384:	e3a0341f 	mov	r3, #520093696	@ 0x1f000000
    7388:	e3a02001 	mov	r2, #1
    738c:	e5832030 	str	r2, [r3, #48]	@ 0x30
    7390:	e8fd903f 	ldm	sp!, {r0, r1, r2, r3, r4, r5, ip, pc}^
    7394:	00401048 	.word	0x00401048
    7398:	00400bf8 	.word	0x00400bf8

0000739c <dma_done_fiqsr>:
    739c:	e24ee004 	sub	lr, lr, #4
    73a0:	e92d503f 	push	{r0, r1, r2, r3, r4, r5, ip, lr}
    73a4:	e3a03008 	mov	r3, #8
    73a8:	e3a0c101 	mov	ip, #1073741824	@ 0x40000000
    73ac:	e58c3010 	str	r3, [ip, #16]
    73b0:	e59f3054 	ldr	r3, [pc, #84]	@ 740c <dma_done_fiqsr+0x70>
    73b4:	e3a0e014 	mov	lr, #20
    73b8:	e5932000 	ldr	r2, [r3]
    73bc:	e5934004 	ldr	r4, [r3, #4]
    73c0:	e021329e 	mla	r1, lr, r2, r3
    73c4:	e2822001 	add	r2, r2, #1
    73c8:	e202200f 	and	r2, r2, #15
    73cc:	e1520004 	cmp	r2, r4
    73d0:	e5910008 	ldr	r0, [r1, #8]
    73d4:	e5832000 	str	r2, [r3]
    73d8:	e591100c 	ldr	r1, [r1, #12]
    73dc:	0a000006 	beq	73fc <dma_done_fiqsr+0x60>
    73e0:	e023329e 	mla	r3, lr, r2, r3
    73e4:	e593e014 	ldr	lr, [r3, #20]
    73e8:	e5932018 	ldr	r2, [r3, #24]
    73ec:	e5933010 	ldr	r3, [r3, #16]
    73f0:	e58c3004 	str	r3, [ip, #4]
    73f4:	e58ce008 	str	lr, [ip, #8]
    73f8:	e58c200c 	str	r2, [ip, #12]
    73fc:	e59f300c 	ldr	r3, [pc, #12]	@ 7410 <dma_done_fiqsr+0x74>
    7400:	e5933008 	ldr	r3, [r3, #8]
    7404:	e12fff33 	blx	r3
    7408:	e8fd903f 	ldm	sp!, {r0, r1, r2, r3, r4, r5, ip, pc}^
    740c:	00401048 	.word	0x00401048
    7410:	00400bf8 	.word	0x00400bf8

00007414 <timer1_isr>:
    7414:	e24ee004 	sub	lr, lr, #4
    7418:	e92d503f 	push	{r0, r1, r2, r3, r4, r5, ip, lr}
    741c:	e59f1108 	ldr	r1, [pc, #264]	@ 752c <timer1_isr+0x118>
    7420:	e3a04001 	mov	r4, #1
    7424:	e3a03421 	mov	r3, #553648128	@ 0x21000000
    7428:	e583400c 	str	r4, [r3, #12]
    742c:	e5913000 	ldr	r3, [r1]
    7430:	e59fe0f8 	ldr	lr, [pc, #248]	@ 7530 <timer1_isr+0x11c>
    7434:	e0833004 	add	r3, r3, r4
    7438:	e5813000 	str	r3, [r1]
    743c:	e59f30f0 	ldr	r3, [pc, #240]	@ 7534 <timer1_isr+0x120>
    7440:	e59fc0f0 	ldr	ip, [pc, #240]	@ 7538 <timer1_isr+0x124>
    7444:	e5932000 	ldr	r2, [r3]
    7448:	e59e3000 	ldr	r3, [lr]
    744c:	e59f00e8 	ldr	r0, [pc, #232]	@ 753c <timer1_isr+0x128>
    7450:	e0433002 	sub	r3, r3, r2
    7454:	e3530000 	cmp	r3, #0
    7458:	e58e3000 	str	r3, [lr]
    745c:	ca00000c 	bgt	7494 <timer1_isr+0x80>
    7460:	e59f50d8 	ldr	r5, [pc, #216]	@ 7540 <timer1_isr+0x12c>
    7464:	e283397a 	add	r3, r3, #1998848	@ 0x1e8000
    7468:	e5955038 	ldr	r5, [r5, #56]	@ 0x38
    746c:	e2833d12 	add	r3, r3, #1152	@ 0x480
    7470:	e0020295 	mul	r2, r5, r2
    7474:	e5804000 	str	r4, [r0]
    7478:	e3520000 	cmp	r2, #0
    747c:	e58c2000 	str	r2, [ip]
    7480:	b2622000 	rsblt	r2, r2, #0
    7484:	b58c2000 	strlt	r2, [ip]
    7488:	b3e02000 	mvnlt	r2, #0
    748c:	b5802000 	strlt	r2, [r0]
    7490:	e58e3000 	str	r3, [lr]
    7494:	e59fe0a8 	ldr	lr, [pc, #168]	@ 7544 <timer1_isr+0x130>
    7498:	e59c3000 	ldr	r3, [ip]
    749c:	e59e2000 	ldr	r2, [lr]
    74a0:	e5900000 	ldr	r0, [r0]
    74a4:	e0822003 	add	r2, r2, r3
    74a8:	e1a038a2 	lsr	r3, r2, #17
    74ac:	e1a03883 	lsl	r3, r3, #17
    74b0:	e0422003 	sub	r2, r2, r3
    74b4:	e58e2000 	str	r2, [lr]
    74b8:	e59f2088 	ldr	r2, [pc, #136]	@ 7548 <timer1_isr+0x134>
    74bc:	e1a038c3 	asr	r3, r3, #17
    74c0:	e5922000 	ldr	r2, [r2]
    74c4:	e0232390 	mla	r3, r0, r3, r2
    74c8:	e3a02421 	mov	r2, #553648128	@ 0x21000000
    74cc:	e5823018 	str	r3, [r2, #24]
    74d0:	e59f3074 	ldr	r3, [pc, #116]	@ 754c <timer1_isr+0x138>
    74d4:	e5933010 	ldr	r3, [r3, #16]
    74d8:	e3530000 	cmp	r3, #0
    74dc:	0a00000e 	beq	751c <timer1_isr+0x108>
    74e0:	e59f3068 	ldr	r3, [pc, #104]	@ 7550 <timer1_isr+0x13c>
    74e4:	e593203c 	ldr	r2, [r3, #60]	@ 0x3c
    74e8:	e3520000 	cmp	r2, #0
    74ec:	0a000006 	beq	750c <timer1_isr+0xf8>
    74f0:	e5932048 	ldr	r2, [r3, #72]	@ 0x48
    74f4:	e5930044 	ldr	r0, [r3, #68]	@ 0x44
    74f8:	e2822001 	add	r2, r2, #1
    74fc:	e5832048 	str	r2, [r3, #72]	@ 0x48
    7500:	e5932040 	ldr	r2, [r3, #64]	@ 0x40
    7504:	e1520000 	cmp	r2, r0
    7508:	85832044 	strhi	r2, [r3, #68]	@ 0x44
    750c:	e5911000 	ldr	r1, [r1]
    7510:	e3a02000 	mov	r2, #0
    7514:	e3a00002 	mov	r0, #2
    7518:	ebffe381 	bl	324 <schedule>
    751c:	e3a0341f 	mov	r3, #520093696	@ 0x1f000000
    7520:	e3a02001 	mov	r2, #1
    7524:	e5832030 	str	r2, [r3, #48]	@ 0x30
    7528:	e8fd903f 	ldm	sp!, {r0, r1, r2, r3, r4, r5, ip, pc}^
    752c:	004011c0 	.word	0x004011c0
    7530:	004011a8 	.word	0x004011a8
    7534:	004011bc 	.word	0x004011bc
    7538:	004011b4 	.word	0x004011b4
    753c:	004011b0 	.word	0x004011b0
    7540:	e5007f00 	.word	0xe5007f00
    7544:	004011ac 	.word	0x004011ac
    7548:	004011b8 	.word	0x004011b8
    754c:	00400bf8 	.word	0x00400bf8
    7550:	00400bac 	.word	0x00400bac

00007554 <timer1_fiqsr>:
    7554:	e24ee004 	sub	lr, lr, #4
    7558:	e92d500f 	push	{r0, r1, r2, r3, ip, lr}
    755c:	e3a02001 	mov	r2, #1
    7560:	e3a03421 	mov	r3, #553648128	@ 0x21000000
    7564:	e583200c 	str	r2, [r3, #12]
    7568:	e59f301c 	ldr	r3, [pc, #28]	@ 758c <timer1_fiqsr+0x38>
    756c:	e3a01000 	mov	r1, #0
    7570:	e5930000 	ldr	r0, [r3]
    7574:	e0800002 	add	r0, r0, r2
    7578:	e5830000 	str	r0, [r3]
    757c:	e59f300c 	ldr	r3, [pc, #12]	@ 7590 <timer1_fiqsr+0x3c>
    7580:	e5933010 	ldr	r3, [r3, #16]
    7584:	e12fff33 	blx	r3
    7588:	e8fd900f 	ldm	sp!, {r0, r1, r2, r3, ip, pc}^
    758c:	004011c0 	.word	0x004011c0
    7590:	00400bf8 	.word	0x00400bf8

00007594 <soft_int_isr>:
    7594:	e24ee004 	sub	lr, lr, #4
    7598:	e92d500f 	push	{r0, r1, r2, r3, ip, lr}
    759c:	e59f0054 	ldr	r0, [pc, #84]	@ 75f8 <soft_int_isr+0x64>
    75a0:	e5903000 	ldr	r3, [r0]
    75a4:	e2833001 	add	r3, r3, #1
    75a8:	e7901183 	ldr	r1, [r0, r3, lsl #3]
    75ac:	e0802183 	add	r2, r0, r3, lsl #3
    75b0:	e2033003 	and	r3, r3, #3
    75b4:	e5803000 	str	r3, [r0]
    75b8:	e5900004 	ldr	r0, [r0, #4]
    75bc:	e5922004 	ldr	r2, [r2, #4]
    75c0:	e1530000 	cmp	r3, r0
    75c4:	03a0341f 	moveq	r3, #520093696	@ 0x1f000000
    75c8:	03a00002 	moveq	r0, #2
    75cc:	0583001c 	streq	r0, [r3, #28]
    75d0:	e59f3024 	ldr	r3, [pc, #36]	@ 75fc <soft_int_isr+0x68>
    75d4:	e5933020 	ldr	r3, [r3, #32]
    75d8:	e3530000 	cmp	r3, #0
    75dc:	0a000001 	beq	75e8 <soft_int_isr+0x54>
    75e0:	e3a00004 	mov	r0, #4
    75e4:	ebffe34e 	bl	324 <schedule>
    75e8:	e3a0341f 	mov	r3, #520093696	@ 0x1f000000
    75ec:	e3a02001 	mov	r2, #1
    75f0:	e5832030 	str	r2, [r3, #48]	@ 0x30
    75f4:	e8fd900f 	ldm	sp!, {r0, r1, r2, r3, ip, pc}^
    75f8:	00400f58 	.word	0x00400f58
    75fc:	00400bf8 	.word	0x00400bf8

00007600 <soft_int_fiqsr>:
    7600:	e24ee004 	sub	lr, lr, #4
    7604:	e92d500f 	push	{r0, r1, r2, r3, ip, lr}
    7608:	e59f203c 	ldr	r2, [pc, #60]	@ 764c <soft_int_fiqsr+0x4c>
    760c:	e5923000 	ldr	r3, [r2]
    7610:	e2833001 	add	r3, r3, #1
    7614:	e7920183 	ldr	r0, [r2, r3, lsl #3]
    7618:	e0821183 	add	r1, r2, r3, lsl #3
    761c:	e2033003 	and	r3, r3, #3
    7620:	e5823000 	str	r3, [r2]
    7624:	e5922004 	ldr	r2, [r2, #4]
    7628:	e5911004 	ldr	r1, [r1, #4]
    762c:	e1530002 	cmp	r3, r2
    7630:	03a0341f 	moveq	r3, #520093696	@ 0x1f000000
    7634:	03a02002 	moveq	r2, #2
    7638:	0583201c 	streq	r2, [r3, #28]
    763c:	e59f300c 	ldr	r3, [pc, #12]	@ 7650 <soft_int_fiqsr+0x50>
    7640:	e5933020 	ldr	r3, [r3, #32]
    7644:	e12fff33 	blx	r3
    7648:	e8fd900f 	ldm	sp!, {r0, r1, r2, r3, ip, pc}^
    764c:	00400f58 	.word	0x00400f58
    7650:	00400bf8 	.word	0x00400bf8

00007654 <sark_fiqsr>:
    7654:	e24ee004 	sub	lr, lr, #4
    7658:	e92d500f 	push	{r0, r1, r2, r3, ip, lr}
    765c:	e3a00000 	mov	r0, #0
    7660:	fafff9cf 	blx	5da4 <sark_int>
    7664:	e8fd900f 	ldm	sp!, {r0, r1, r2, r3, ip, pc}^

00007668 <__gnu_thumb1_case_sqi>:
    7668:	b402      	push	{r1}
    766a:	4671      	mov	r1, lr
    766c:	0849      	lsrs	r1, r1, #1
    766e:	0049      	lsls	r1, r1, #1
    7670:	5609      	ldrsb	r1, [r1, r0]
    7672:	0049      	lsls	r1, r1, #1
    7674:	448e      	add	lr, r1
    7676:	bc02      	pop	{r1}
    7678:	4770      	bx	lr
    767a:	46c0      	nop			@ (mov r8, r8)

0000767c <__gnu_thumb1_case_shi>:
    767c:	b403      	push	{r0, r1}
    767e:	4671      	mov	r1, lr
    7680:	0849      	lsrs	r1, r1, #1
    7682:	0040      	lsls	r0, r0, #1
    7684:	0049      	lsls	r1, r1, #1
    7686:	5e09      	ldrsh	r1, [r1, r0]
    7688:	0049      	lsls	r1, r1, #1
    768a:	448e      	add	lr, r1
    768c:	bc03      	pop	{r0, r1}
    768e:	4770      	bx	lr

00007690 <__divsi3>:
    7690:	e3510000 	cmp	r1, #0
    7694:	0a000043 	beq	77a8 <.divsi3_skip_div0_test+0x110>

00007698 <.divsi3_skip_div0_test>:
    7698:	e020c001 	eor	ip, r0, r1
    769c:	42611000 	rsbmi	r1, r1, #0
    76a0:	e2512001 	subs	r2, r1, #1
    76a4:	0a000027 	beq	7748 <.divsi3_skip_div0_test+0xb0>
    76a8:	e1b03000 	movs	r3, r0
    76ac:	42603000 	rsbmi	r3, r0, #0
    76b0:	e1530001 	cmp	r3, r1
    76b4:	9a000026 	bls	7754 <.divsi3_skip_div0_test+0xbc>
    76b8:	e1110002 	tst	r1, r2
    76bc:	0a000028 	beq	7764 <.divsi3_skip_div0_test+0xcc>
    76c0:	e311020e 	tst	r1, #-536870912	@ 0xe0000000
    76c4:	01a01181 	lsleq	r1, r1, #3
    76c8:	03a02008 	moveq	r2, #8
    76cc:	13a02001 	movne	r2, #1
    76d0:	e3510201 	cmp	r1, #268435456	@ 0x10000000
    76d4:	31510003 	cmpcc	r1, r3
    76d8:	31a01201 	lslcc	r1, r1, #4
    76dc:	31a02202 	lslcc	r2, r2, #4
    76e0:	3afffffa 	bcc	76d0 <.divsi3_skip_div0_test+0x38>
    76e4:	e3510102 	cmp	r1, #-2147483648	@ 0x80000000
    76e8:	31510003 	cmpcc	r1, r3
    76ec:	31a01081 	lslcc	r1, r1, #1
    76f0:	31a02082 	lslcc	r2, r2, #1
    76f4:	3afffffa 	bcc	76e4 <.divsi3_skip_div0_test+0x4c>
    76f8:	e3a00000 	mov	r0, #0
    76fc:	e1530001 	cmp	r3, r1
    7700:	20433001 	subcs	r3, r3, r1
    7704:	21800002 	orrcs	r0, r0, r2
    7708:	e15300a1 	cmp	r3, r1, lsr #1
    770c:	204330a1 	subcs	r3, r3, r1, lsr #1
    7710:	218000a2 	orrcs	r0, r0, r2, lsr #1
    7714:	e1530121 	cmp	r3, r1, lsr #2
    7718:	20433121 	subcs	r3, r3, r1, lsr #2
    771c:	21800122 	orrcs	r0, r0, r2, lsr #2
    7720:	e15301a1 	cmp	r3, r1, lsr #3
    7724:	204331a1 	subcs	r3, r3, r1, lsr #3
    7728:	218001a2 	orrcs	r0, r0, r2, lsr #3
    772c:	e3530000 	cmp	r3, #0
    7730:	11b02222 	lsrsne	r2, r2, #4
    7734:	11a01221 	lsrne	r1, r1, #4
    7738:	1affffef 	bne	76fc <.divsi3_skip_div0_test+0x64>
    773c:	e35c0000 	cmp	ip, #0
    7740:	42600000 	rsbmi	r0, r0, #0
    7744:	e12fff1e 	bx	lr
    7748:	e13c0000 	teq	ip, r0
    774c:	42600000 	rsbmi	r0, r0, #0
    7750:	e12fff1e 	bx	lr
    7754:	33a00000 	movcc	r0, #0
    7758:	01a00fcc 	asreq	r0, ip, #31
    775c:	03800001 	orreq	r0, r0, #1
    7760:	e12fff1e 	bx	lr
    7764:	e3510801 	cmp	r1, #65536	@ 0x10000
    7768:	21a01821 	lsrcs	r1, r1, #16
    776c:	23a02010 	movcs	r2, #16
    7770:	33a02000 	movcc	r2, #0
    7774:	e3510c01 	cmp	r1, #256	@ 0x100
    7778:	21a01421 	lsrcs	r1, r1, #8
    777c:	22822008 	addcs	r2, r2, #8
    7780:	e3510010 	cmp	r1, #16
    7784:	21a01221 	lsrcs	r1, r1, #4
    7788:	22822004 	addcs	r2, r2, #4
    778c:	e3510004 	cmp	r1, #4
    7790:	82822003 	addhi	r2, r2, #3
    7794:	908220a1 	addls	r2, r2, r1, lsr #1
    7798:	e35c0000 	cmp	ip, #0
    779c:	e1a00233 	lsr	r0, r3, r2
    77a0:	42600000 	rsbmi	r0, r0, #0
    77a4:	e12fff1e 	bx	lr
    77a8:	e3500000 	cmp	r0, #0
    77ac:	c3e00102 	mvngt	r0, #-2147483648	@ 0x80000000
    77b0:	b3a00102 	movlt	r0, #-2147483648	@ 0x80000000
    77b4:	eafffc60 	b	693c <__aeabi_idiv0>

000077b8 <__aeabi_idivmod>:
    77b8:	e3510000 	cmp	r1, #0
    77bc:	0afffff9 	beq	77a8 <.divsi3_skip_div0_test+0x110>
    77c0:	e92d4003 	push	{r0, r1, lr}
    77c4:	ebffffb3 	bl	7698 <.divsi3_skip_div0_test>
    77c8:	e8bd4006 	pop	{r1, r2, lr}
    77cc:	e0030092 	mul	r3, r2, r0
    77d0:	e0411003 	sub	r1, r1, r3
    77d4:	e12fff1e 	bx	lr

000077d8 <memcpy>:
    77d8:	e352000f 	cmp	r2, #15
    77dc:	9a00000c 	bls	7814 <memcpy+0x3c>
    77e0:	e1803001 	orr	r3, r0, r1
    77e4:	e3130003 	tst	r3, #3
    77e8:	11a03000 	movne	r3, r0
    77ec:	12422001 	subne	r2, r2, #1
    77f0:	0a00000c 	beq	7828 <memcpy+0x50>
    77f4:	e2822001 	add	r2, r2, #1
    77f8:	e2433001 	sub	r3, r3, #1
    77fc:	e0812002 	add	r2, r1, r2
    7800:	e4d1c001 	ldrb	ip, [r1], #1
    7804:	e1510002 	cmp	r1, r2
    7808:	e5e3c001 	strb	ip, [r3, #1]!
    780c:	1afffffb 	bne	7800 <memcpy+0x28>
    7810:	e12fff1e 	bx	lr
    7814:	e3520000 	cmp	r2, #0
    7818:	e1a03000 	mov	r3, r0
    781c:	e2422001 	sub	r2, r2, #1
    7820:	1afffff3 	bne	77f4 <memcpy+0x1c>
    7824:	e12fff1e 	bx	lr
    7828:	e1a0c000 	mov	ip, r0
    782c:	e92d41f0 	push	{r4, r5, r6, r7, r8, lr}
    7830:	e2427010 	sub	r7, r2, #16
    7834:	e3c7700f 	bic	r7, r7, #15
    7838:	e2877010 	add	r7, r7, #16
    783c:	e281e010 	add	lr, r1, #16
    7840:	e0803007 	add	r3, r0, r7
    7844:	e51e8010 	ldr	r8, [lr, #-16]
    7848:	e48c8010 	str	r8, [ip], #16
    784c:	e51e600c 	ldr	r6, [lr, #-12]
    7850:	e51e5008 	ldr	r5, [lr, #-8]
    7854:	e51e4004 	ldr	r4, [lr, #-4]
    7858:	e15c0003 	cmp	ip, r3
    785c:	e50c600c 	str	r6, [ip, #-12]
    7860:	e50c5008 	str	r5, [ip, #-8]
    7864:	e50c4004 	str	r4, [ip, #-4]
    7868:	e28ee010 	add	lr, lr, #16
    786c:	1afffff4 	bne	7844 <memcpy+0x6c>
    7870:	e312000c 	tst	r2, #12
    7874:	e202c00f 	and	ip, r2, #15
    7878:	01a0200c 	moveq	r2, ip
    787c:	e0811007 	add	r1, r1, r7
    7880:	0a00000d 	beq	78bc <memcpy+0xe4>
    7884:	e1a04001 	mov	r4, r1
    7888:	e24cc004 	sub	ip, ip, #4
    788c:	e3cc6003 	bic	r6, ip, #3
    7890:	e1a0e12c 	lsr	lr, ip, #2
    7894:	e0836006 	add	r6, r3, r6
    7898:	e243c004 	sub	ip, r3, #4
    789c:	e4945004 	ldr	r5, [r4], #4
    78a0:	e5ac5004 	str	r5, [ip, #4]!
    78a4:	e15c0006 	cmp	ip, r6
    78a8:	1afffffb 	bne	789c <memcpy+0xc4>
    78ac:	e28ec001 	add	ip, lr, #1
    78b0:	e2022003 	and	r2, r2, #3
    78b4:	e083310c 	add	r3, r3, ip, lsl #2
    78b8:	e081110c 	add	r1, r1, ip, lsl #2
    78bc:	e3520000 	cmp	r2, #0
    78c0:	e2422001 	sub	r2, r2, #1
    78c4:	12822001 	addne	r2, r2, #1
    78c8:	12433001 	subne	r3, r3, #1
    78cc:	10812002 	addne	r2, r1, r2
    78d0:	0a000003 	beq	78e4 <memcpy+0x10c>
    78d4:	e4d1c001 	ldrb	ip, [r1], #1
    78d8:	e1510002 	cmp	r1, r2
    78dc:	e5e3c001 	strb	ip, [r3, #1]!
    78e0:	1afffffb 	bne	78d4 <memcpy+0xfc>
    78e4:	e8bd41f0 	pop	{r4, r5, r6, r7, r8, lr}
    78e8:	e12fff1e 	bx	lr

000078ec <build_date>:
    78ec:	69f50996                                ...i

000078f0 <build_name>:
    78f0:	61726f63 65725f6c 53006665 2f4b5241     coral_reef.SARK/
    7900:	4e697053 656b614e 2e340072 00302e30     SpiNNaker.4.0.0.
    7910:	615b0909 645f6970 67756265 5452205d     ..[api_debug] RT
    7920:	636d2052 20202020 63617020 7374656b     R mc     packets
    7930:	6425203a 0909000a 6970615b 6265645f     : %d....[api_deb
    7940:	205d6775 20525452 20647064 7020636d     ug] RTR dpd mc p
    7950:	656b6361 203a7374 000a6425 615b0909     ackets: %d....[a
    7960:	645f6970 67756265 5349205d 68742052     pi_debug] ISR th
    7970:	6e776f72 63617020 7374656b 6425203a     rown packets: %d
    7980:	0909000a 6970615b 6265645f 205d6775     ....[api_debug] 
    7990:	20525349 6f726874 46206e77 61702052     ISR thrown FR pa
    79a0:	74656b63 25203a73 09000a64 70615b09     ckets: %d....[ap
    79b0:	65645f69 5d677562 414d4420 72756220     i_debug] DMA bur
    79c0:	3a737473 64252020 0909000a 6970615b     sts:  %d....[api
    79d0:	7261775f 77205d6e 696e7261 203a676e     _warn] warning: 
    79e0:	6b736174 65757120 66206575 206c6c75     task queue full 
    79f0:	29752528 0909000a 6970615b 7261775f     (%u)....[api_war
    7a00:	77205d6e 696e7261 203a676e 20414d44     n] warning: DMA 
    7a10:	75657571 75662065 28206c6c 0a297525     queue full (%u).
    7a20:	5b090900 5f697061 6e726177 6177205d     ...[api_warn] wa
    7a30:	6e696e72 70203a67 656b6361 75712074     rning: packet qu
    7a40:	20657565 6c6c7566 75252820               eue full (%u)..

00007a4f <hex>:
    7a4f:	33323130 37363534 62613938 66656463     0123456789abcdef
	...

00007a60 <VIC_EVENTS>:
    7a60:	01000000 00001000 00000010 00000000     ................
    7a70:	00000002 01000000 08000000 08000000     ................
