
build/gnu/coral_reef.elf:     file format elf32-littlearm
build/gnu/coral_reef.elf
architecture: armv5te, flags 0x00000112:
EXEC_P, HAS_SYMS, D_PAGED
start address 0x00000000

Program Header:
    LOAD off    0x00001000 vaddr 0x00000000 paddr 0x00000000 align 2**12
         filesz 0x00005640 memsz 0x00005640 flags r-x
    LOAD off    0x00007000 vaddr 0x00400000 paddr 0x00400000 align 2**12
         filesz 0x00000010 memsz 0x00001059 flags rw-
private flags = 0x5000200: [Version5 EABI] [soft-float ABI]

Sections:
Idx Name          Size      VMA       LMA       File off  Algn
  0 RO_DATA       00005640  00000000  00000000  00001000  2**2
                  CONTENTS, ALLOC, LOAD, READONLY, CODE
  1 RW_DATA       00000010  00400000  00400000  00007000  2**2
                  CONTENTS, ALLOC, LOAD, DATA
  2 ZI_DATA       00001049  00400010  00400010  00007010  2**2
                  ALLOC
  3 .debug_info   00018e76  00000000  00000000  00007010  2**0
                  CONTENTS, READONLY, DEBUGGING, OCTETS
  4 .debug_abbrev 00003de5  00000000  00000000  0001fe86  2**0
                  CONTENTS, READONLY, DEBUGGING, OCTETS
  5 .debug_aranges 00000798  00000000  00000000  00023c70  2**3
                  CONTENTS, READONLY, DEBUGGING, OCTETS
  6 .debug_line   00006dbd  00000000  00000000  00024408  2**0
                  CONTENTS, READONLY, DEBUGGING, OCTETS
  7 .debug_str    00003321  00000000  00000000  0002b1c5  2**0
                  CONTENTS, READONLY, DEBUGGING, OCTETS
  8 .comment      00000026  00000000  00000000  0002e4e6  2**0
                  CONTENTS, READONLY
  9 .ARM.attributes 00000029  00000000  00000000  0002e50c  2**0
                  CONTENTS, READONLY
 10 .debug_frame  00001dd4  00000000  00000000  0002e538  2**2
                  CONTENTS, READONLY, DEBUGGING, OCTETS
 11 .debug_rnglists 00000774  00000000  00000000  0003030c  2**0
                  CONTENTS, READONLY, DEBUGGING, OCTETS
 12 .debug_loclists 0000456d  00000000  00000000  00030a80  2**0
                  CONTENTS, READONLY, DEBUGGING, OCTETS
 13 .debug_line_str 0000007e  00000000  00000000  00034fed  2**0
                  CONTENTS, READONLY, DEBUGGING, OCTETS
SYMBOL TABLE:
00000000 l    d  RO_DATA	00000000 RO_DATA
00400000 l    d  RW_DATA	00000000 RW_DATA
00400010 l    d  ZI_DATA	00000000 ZI_DATA
00000000 l    d  .debug_info	00000000 .debug_info
00000000 l    d  .debug_abbrev	00000000 .debug_abbrev
00000000 l    d  .debug_aranges	00000000 .debug_aranges
00000000 l    d  .debug_line	00000000 .debug_line
00000000 l    d  .debug_str	00000000 .debug_str
00000000 l    d  .comment	00000000 .comment
00000000 l    d  .ARM.attributes	00000000 .ARM.attributes
00000000 l    d  .debug_frame	00000000 .debug_frame
00000000 l    d  .debug_rnglists	00000000 .debug_rnglists
00000000 l    d  .debug_loclists	00000000 .debug_loclists
00000000 l    d  .debug_line_str	00000000 .debug_line_str
00000000 l    df *ABS*	00000000 sark_alib.o
00000001 l       *ABS*	00000000 GNU
00000000 l       *ABS*	00000000 NULL
80000000 l       *ABS*	00000000 BIT_31
00000001 l       *ABS*	00000000 BUF_WRITE
00000012 l       *ABS*	00000000 NUM_CPUS
00000006 l       *ABS*	00000000 NUM_LINKS
00000000 l       *ABS*	00000000 ITCM_BASE
00008000 l       *ABS*	00000000 ITCM_SIZE
00008000 l       *ABS*	00000000 ITCM_TOP
00400000 l       *ABS*	00000000 DTCM_BASE
00010000 l       *ABS*	00000000 DTCM_SIZE
00410000 l       *ABS*	00000000 DTCM_TOP
70000000 l       *ABS*	00000000 SDRAM_BASE_UNBUF
60000000 l       *ABS*	00000000 SDRAM_BASE_BUF
60000000 l       *ABS*	00000000 SDRAM_BASE
08000000 l       *ABS*	00000000 SDRAM_SIZE
68000000 l       *ABS*	00000000 SDRAM_TOP
f5000000 l       *ABS*	00000000 SYSRAM_BASE_UNBUF
e5000000 l       *ABS*	00000000 SYSRAM_BASE_BUF
e5000000 l       *ABS*	00000000 SYSRAM_BASE
00008000 l       *ABS*	00000000 SYSRAM_SIZE
e5008000 l       *ABS*	00000000 SYSRAM_TOP
f6000000 l       *ABS*	00000000 ROM_BASE
00008000 l       *ABS*	00000000 ROM_SIZE
f6008000 l       *ABS*	00000000 ROM_TOP
10000000 l       *ABS*	00000000 CC_BASE_UNBUF
20000000 l       *ABS*	00000000 CC_BASE_BUF
20000000 l       *ABS*	00000000 CC_BASE
00000000 l       *ABS*	00000000 CC_TCR
00000004 l       *ABS*	00000000 CC_TXDATA
00000008 l       *ABS*	00000000 CC_TXKEY
0000000c l       *ABS*	00000000 CC_RSR
00000010 l       *ABS*	00000000 CC_RXDATA
00000014 l       *ABS*	00000000 CC_RXKEY
00000018 l       *ABS*	00000000 CC_SAR
0000001c l       *ABS*	00000000 CC_TEST
11000000 l       *ABS*	00000000 TIMER_BASE_UNBUF
21000000 l       *ABS*	00000000 TIMER_BASE_BUF
21000000 l       *ABS*	00000000 TIMER_BASE
00000020 l       *ABS*	00000000 TIMER_OFFSET
21000000 l       *ABS*	00000000 TIMER1_BASE
21000020 l       *ABS*	00000000 TIMER2_BASE
00000000 l       *ABS*	00000000 TC_LOAD
00000004 l       *ABS*	00000000 TC_COUNT
00000008 l       *ABS*	00000000 TC_CONTROL
0000000c l       *ABS*	00000000 TC_INT_CLR
00000010 l       *ABS*	00000000 TC_RAW_INT
00000014 l       *ABS*	00000000 TC_MASK_INT
00000018 l       *ABS*	00000000 TC_BG_LOAD
00000000 l       *ABS*	00000000 T1_LOAD
00000004 l       *ABS*	00000000 T1_COUNT
00000008 l       *ABS*	00000000 T1_CONTROL
0000000c l       *ABS*	00000000 T1_INT_CLR
00000010 l       *ABS*	00000000 T1_RAW_INT
00000014 l       *ABS*	00000000 T1_MASK_INT
00000018 l       *ABS*	00000000 T1_BG_LOAD
00000020 l       *ABS*	00000000 T2_LOAD
00000024 l       *ABS*	00000000 T2_COUNT
00000028 l       *ABS*	00000000 T2_CONTROL
0000002c l       *ABS*	00000000 T2_INT_CLR
00000030 l       *ABS*	00000000 T2_RAW_INT
00000034 l       *ABS*	00000000 T2_MASK_INT
00000038 l       *ABS*	00000000 T2_BG_LOAD
1f000000 l       *ABS*	00000000 VIC_BASE_UNBUF
2f000000 l       *ABS*	00000000 VIC_BASE_BUF
2f000000 l       *ABS*	00000000 VIC_BASE
00000000 l       *ABS*	00000000 VIC_IRQST
00000004 l       *ABS*	00000000 VIC_FIQST
00000008 l       *ABS*	00000000 VIC_RAW
0000000c l       *ABS*	00000000 VIC_SELECT
00000010 l       *ABS*	00000000 VIC_ENABLE
00000014 l       *ABS*	00000000 VIC_DISABLE
00000018 l       *ABS*	00000000 VIC_SOFT_SET
0000001c l       *ABS*	00000000 VIC_SOFT_CLR
00000020 l       *ABS*	00000000 VIC_PROTECT
00000030 l       *ABS*	00000000 VIC_VADDR
00000034 l       *ABS*	00000000 VIC_DEFADDR
00000100 l       *ABS*	00000000 VIC_ADDR
00000100 l       *ABS*	00000000 VIC_ADDR0
00000104 l       *ABS*	00000000 VIC_ADDR1
00000108 l       *ABS*	00000000 VIC_ADDR2
0000010c l       *ABS*	00000000 VIC_ADDR3
00000110 l       *ABS*	00000000 VIC_ADDR4
00000114 l       *ABS*	00000000 VIC_ADDR5
00000118 l       *ABS*	00000000 VIC_ADDR6
0000011c l       *ABS*	00000000 VIC_ADDR7
00000120 l       *ABS*	00000000 VIC_ADDR8
00000124 l       *ABS*	00000000 VIC_ADDR9
00000128 l       *ABS*	00000000 VIC_ADDR10
0000012c l       *ABS*	00000000 VIC_ADDR11
00000130 l       *ABS*	00000000 VIC_ADDR12
00000134 l       *ABS*	00000000 VIC_ADDR13
00000138 l       *ABS*	00000000 VIC_ADDR14
0000013c l       *ABS*	00000000 VIC_ADDR15
00000200 l       *ABS*	00000000 VIC_CNTL
00000200 l       *ABS*	00000000 VIC_CNTL0
00000204 l       *ABS*	00000000 VIC_CNTL1
00000208 l       *ABS*	00000000 VIC_CNTL2
0000020c l       *ABS*	00000000 VIC_CNTL3
00000210 l       *ABS*	00000000 VIC_CNTL4
00000214 l       *ABS*	00000000 VIC_CNTL5
00000218 l       *ABS*	00000000 VIC_CNTL6
0000021c l       *ABS*	00000000 VIC_CNTL7
00000220 l       *ABS*	00000000 VIC_CNTL8
00000224 l       *ABS*	00000000 VIC_CNTL9
00000228 l       *ABS*	00000000 VIC_CNTL10
0000022c l       *ABS*	00000000 VIC_CNTL11
00000230 l       *ABS*	00000000 VIC_CNTL12
00000234 l       *ABS*	00000000 VIC_CNTL13
00000238 l       *ABS*	00000000 VIC_CNTL14
0000023c l       *ABS*	00000000 VIC_CNTL15
00000000 l       *ABS*	00000000 WDOG_INT
00000001 l       *ABS*	00000000 SOFTWARE_INT
00000002 l       *ABS*	00000000 COMM_RX_INT
00000003 l       *ABS*	00000000 COMM_TX_INT
00000004 l       *ABS*	00000000 TIMER1_INT
00000005 l       *ABS*	00000000 TIMER2_INT
00000006 l       *ABS*	00000000 CC_RDY_INT
00000007 l       *ABS*	00000000 CC_RPE_INT
00000008 l       *ABS*	00000000 CC_RFE_INT
00000009 l       *ABS*	00000000 CC_TFL_INT
0000000a l       *ABS*	00000000 CC_TOV_INT
0000000b l       *ABS*	00000000 CC_TMT_INT
0000000c l       *ABS*	00000000 DMA_DONE_INT
0000000d l       *ABS*	00000000 DMA_ERR_INT
0000000e l       *ABS*	00000000 DMA_TO_INT
0000000f l       *ABS*	00000000 RTR_DIAG_INT
00000010 l       *ABS*	00000000 RTR_DUMP_INT
00000011 l       *ABS*	00000000 RTR_ERR_INT
00000012 l       *ABS*	00000000 CPU_INT
00000013 l       *ABS*	00000000 ETH_TX_INT
00000014 l       *ABS*	00000000 ETH_RX_INT
00000015 l       *ABS*	00000000 ETH_PHY_INT
00000016 l       *ABS*	00000000 SLOW_CLK_INT
00000017 l       *ABS*	00000000 CC_TNF_INT
00000018 l       *ABS*	00000000 CC_MC_INT
00000019 l       *ABS*	00000000 CC_P2P_INT
0000001a l       *ABS*	00000000 CC_NN_INT
0000001b l       *ABS*	00000000 CC_FR_INT
0000001c l       *ABS*	00000000 INT0_INT
0000001d l       *ABS*	00000000 INT1_INT
0000001e l       *ABS*	00000000 GPIO8_INT
0000001f l       *ABS*	00000000 GPIO9_INT
30000000 l       *ABS*	00000000 DMA_BASE_UNBUF
40000000 l       *ABS*	00000000 DMA_BASE_BUF
40000000 l       *ABS*	00000000 DMA_BASE
00000004 l       *ABS*	00000000 DMA_ADRS
00000008 l       *ABS*	00000000 DMA_ADRT
0000000c l       *ABS*	00000000 DMA_DESC
00000010 l       *ABS*	00000000 DMA_CTRL
00000014 l       *ABS*	00000000 DMA_STAT
00000018 l       *ABS*	00000000 DMA_GCTL
0000001c l       *ABS*	00000000 DMA_CRCC
00000020 l       *ABS*	00000000 DMA_CRCR
00000024 l       *ABS*	00000000 DMA_TMTV
00000028 l       *ABS*	00000000 DMA_SCTL
00000040 l       *ABS*	00000000 DMA_STAT0
00000044 l       *ABS*	00000000 DMA_STAT1
00000048 l       *ABS*	00000000 DMA_STAT2
0000004c l       *ABS*	00000000 DMA_STAT3
00000050 l       *ABS*	00000000 DMA_STAT4
00000054 l       *ABS*	00000000 DMA_STAT5
00000058 l       *ABS*	00000000 DMA_STAT6
0000005c l       *ABS*	00000000 DMA_STAT7
00000104 l       *ABS*	00000000 DMA_AD2S
00000108 l       *ABS*	00000000 DMA_AD2T
0000010c l       *ABS*	00000000 DMA_DES2
00000180 l       *ABS*	00000000 DMA_CRCT
f0000000 l       *ABS*	00000000 PL340_BASE_UNBUF
e0000000 l       *ABS*	00000000 PL340_BASE_BUF
e0000000 l       *ABS*	00000000 PL340_BASE
00000000 l       *ABS*	00000000 MC_STAT
00000004 l       *ABS*	00000000 MC_CMD
00000008 l       *ABS*	00000000 MC_DIRC
0000000c l       *ABS*	00000000 MC_MCFG
00000010 l       *ABS*	00000000 MC_REFP
00000014 l       *ABS*	00000000 MC_CASL
00000018 l       *ABS*	00000000 MC_DQSS
0000001c l       *ABS*	00000000 MC_MRD
00000020 l       *ABS*	00000000 MC_RAS
00000024 l       *ABS*	00000000 MC_RC
00000028 l       *ABS*	00000000 MC_RCD
0000002c l       *ABS*	00000000 MC_RFC
00000030 l       *ABS*	00000000 MC_RP
00000034 l       *ABS*	00000000 MC_RRD
00000038 l       *ABS*	00000000 MC_WR
0000003c l       *ABS*	00000000 MC_WTR
00000040 l       *ABS*	00000000 MC_XP
00000044 l       *ABS*	00000000 MC_XSR
00000048 l       *ABS*	00000000 MC_ESR
0000004c l       *ABS*	00000000 MC_MCFG2
00000050 l       *ABS*	00000000 MC_MCFG3
00000100 l       *ABS*	00000000 MC_QOS0
00000104 l       *ABS*	00000000 MC_QOS1
00000108 l       *ABS*	00000000 MC_QOS2
0000010c l       *ABS*	00000000 MC_QOS3
00000110 l       *ABS*	00000000 MC_QOS4
00000114 l       *ABS*	00000000 MC_QOS5
00000118 l       *ABS*	00000000 MC_QOS6
0000011c l       *ABS*	00000000 MC_QOS7
00000120 l       *ABS*	00000000 MC_QOS8
00000124 l       *ABS*	00000000 MC_QOS9
00000128 l       *ABS*	00000000 MC_QOS10
0000012c l       *ABS*	00000000 MC_QOS11
00000130 l       *ABS*	00000000 MC_QOS12
00000134 l       *ABS*	00000000 MC_QOS13
00000138 l       *ABS*	00000000 MC_QOS14
0000013c l       *ABS*	00000000 MC_QOS15
00000200 l       *ABS*	00000000 MC_CCFG0
00000204 l       *ABS*	00000000 MC_CCFG1
00000208 l       *ABS*	00000000 MC_CCFG2
0000020c l       *ABS*	00000000 MC_CCFG3
00000300 l       *ABS*	00000000 DLL_STATUS
00000304 l       *ABS*	00000000 DLL_CONFIG0
00000308 l       *ABS*	00000000 DLL_CONFIG1
f1000000 l       *ABS*	00000000 RTR_BASE_UNBUF
e1000000 l       *ABS*	00000000 RTR_BASE_BUF
e1000000 l       *ABS*	00000000 RTR_BASE
00000000 l       *ABS*	00000000 RTR_CONTROL
00000004 l       *ABS*	00000000 RTR_STATUS
00000008 l       *ABS*	00000000 RTR_EHDR
0000000c l       *ABS*	00000000 RTR_EKEY
00000010 l       *ABS*	00000000 RTR_EDAT
00000014 l       *ABS*	00000000 RTR_ESTAT
00000018 l       *ABS*	00000000 RTR_DHDR
0000001c l       *ABS*	00000000 RTR_DKEY
00000020 l       *ABS*	00000000 RTR_DDAT
00000024 l       *ABS*	00000000 RTR_DLINK
00000028 l       *ABS*	00000000 RTR_DSTAT
0000002c l       *ABS*	00000000 RTR_DGEN
00000084 l       *ABS*	00000000 RTR_FR
00000200 l       *ABS*	00000000 RTR_DGF0
00000204 l       *ABS*	00000000 RTR_DGF1
00000208 l       *ABS*	00000000 RTR_DGF2
0000020c l       *ABS*	00000000 RTR_DGF3
00000210 l       *ABS*	00000000 RTR_DGF4
00000214 l       *ABS*	00000000 RTR_DGF5
00000218 l       *ABS*	00000000 RTR_DGF6
0000021c l       *ABS*	00000000 RTR_DGF7
00000220 l       *ABS*	00000000 RTR_DGF8
00000224 l       *ABS*	00000000 RTR_DGF9
00000228 l       *ABS*	00000000 RTR_DGF10
0000022c l       *ABS*	00000000 RTR_DGF11
00000230 l       *ABS*	00000000 RTR_DGF12
00000234 l       *ABS*	00000000 RTR_DGF13
00000238 l       *ABS*	00000000 RTR_DGF14
0000023c l       *ABS*	00000000 RTR_DGF15
00000300 l       *ABS*	00000000 RTR_DGC0
00000304 l       *ABS*	00000000 RTR_DGC1
00000308 l       *ABS*	00000000 RTR_DGC2
0000030c l       *ABS*	00000000 RTR_DGC3
00000310 l       *ABS*	00000000 RTR_DGC4
00000314 l       *ABS*	00000000 RTR_DGC5
00000318 l       *ABS*	00000000 RTR_DGC6
0000031c l       *ABS*	00000000 RTR_DGC7
00000320 l       *ABS*	00000000 RTR_DGC8
00000324 l       *ABS*	00000000 RTR_DGC9
00000328 l       *ABS*	00000000 RTR_DGC10
0000032c l       *ABS*	00000000 RTR_DGC11
00000330 l       *ABS*	00000000 RTR_DGC12
00000334 l       *ABS*	00000000 RTR_DGC13
00000338 l       *ABS*	00000000 RTR_DGC14
0000033c l       *ABS*	00000000 RTR_DGC15
00000f00 l       *ABS*	00000000 RTR_TST1
00000f04 l       *ABS*	00000000 RTR_TST2
00002000 l       *ABS*	00000000 P2P_TABLE_SIZE
00000400 l       *ABS*	00000000 MC_TABLE_SIZE
00000018 l       *ABS*	00000000 MC_RAM_WIDTH
00ffffff l       *ABS*	00000000 MC_RAM_MASK
00000008 l       *ABS*	00000000 P2P_EPW
00000003 l       *ABS*	00000000 P2P_LOG_EPW
00000007 l       *ABS*	00000000 P2P_EMASK
00000003 l       *ABS*	00000000 P2P_BPE
00000007 l       *ABS*	00000000 P2P_BMASK
00db6db6 l       *ABS*	00000000 P2P_INIT
e1004000 l       *ABS*	00000000 RTR_MCRAM_BASE
e1005000 l       *ABS*	00000000 RTR_MCRAM_TOP
e1008000 l       *ABS*	00000000 RTR_MCKEY_BASE
e1009000 l       *ABS*	00000000 RTR_MCKEY_TOP
e100c000 l       *ABS*	00000000 RTR_MCMASK_BASE
e100d000 l       *ABS*	00000000 RTR_MCMASK_TOP
e1010000 l       *ABS*	00000000 RTR_P2P_BASE
e1018000 l       *ABS*	00000000 RTR_P2P_TOP
00000020 l       *ABS*	00000000 MC_CAM_WIDTH
f2000000 l       *ABS*	00000000 SYSCTL_BASE_UNBUF
e2000000 l       *ABS*	00000000 SYSCTL_BASE_BUF
e2000000 l       *ABS*	00000000 SYSCTL_BASE
5ec00000 l       *ABS*	00000000 SC_CODE
59111012 l       *ABS*	00000000 CHIP_ID_CODE
00000000 l       *ABS*	00000000 SC_CHIP_ID
00000004 l       *ABS*	00000000 SC_CPU_DIS
00000008 l       *ABS*	00000000 SC_SET_IRQ
0000000c l       *ABS*	00000000 SC_CLR_IRQ
00000010 l       *ABS*	00000000 SC_SET_OK
00000010 l       *ABS*	00000000 SC_CPU_OK
00000014 l       *ABS*	00000000 SC_CLR_OK
00000018 l       *ABS*	00000000 SC_SOFT_RST_L
0000001c l       *ABS*	00000000 SC_HARD_RST_L
00000020 l       *ABS*	00000000 SC_SUBS_RST_L
00000024 l       *ABS*	00000000 SC_SOFT_RST_P
00000028 l       *ABS*	00000000 SC_HARD_RST_P
0000002c l       *ABS*	00000000 SC_SUBS_RST_P
00000030 l       *ABS*	00000000 SC_RST_CODE
00000034 l       *ABS*	00000000 SC_MON_ID
00000038 l       *ABS*	00000000 SC_MISC_CTRL
0000003c l       *ABS*	00000000 GPIO_RES
00000040 l       *ABS*	00000000 GPIO_PORT
00000044 l       *ABS*	00000000 GPIO_DIR
00000048 l       *ABS*	00000000 GPIO_SET
0000004c l       *ABS*	00000000 GPIO_CLR
00000048 l       *ABS*	00000000 GPIO_READ
00000050 l       *ABS*	00000000 SC_PLL1
00000054 l       *ABS*	00000000 SC_PLL2
00000058 l       *ABS*	00000000 SC_FLAG
00000058 l       *ABS*	00000000 SC_SETFLAG
0000005c l       *ABS*	00000000 SC_CLRFLAG
00000060 l       *ABS*	00000000 SC_CLKMUX
00000064 l       *ABS*	00000000 SC_SLEEP
00000068 l       *ABS*	00000000 SC_TS0
0000006c l       *ABS*	00000000 SC_TS1
00000070 l       *ABS*	00000000 SC_TS2
00000080 l       *ABS*	00000000 SC_ARB0
00000100 l       *ABS*	00000000 SC_TAS0
00000180 l       *ABS*	00000000 SC_TAC0
00000200 l       *ABS*	00000000 SC_LINK_DIS
00000000 l       *ABS*	00000000 RST_POR
00000001 l       *ABS*	00000000 RST_WDT
00000002 l       *ABS*	00000000 RST_USER
00000003 l       *ABS*	00000000 RST_SW
00000004 l       *ABS*	00000000 RST_WDI
f3000000 l       *ABS*	00000000 WDOG_BASE_UNBUF
e3000000 l       *ABS*	00000000 WDOG_BASE_BUF
e3000000 l       *ABS*	00000000 WDOG_BASE
00000000 l       *ABS*	00000000 WD_LOAD
00000004 l       *ABS*	00000000 WD_COUNT
00000008 l       *ABS*	00000000 WD_CTRL
0000000c l       *ABS*	00000000 WD_INTCLR
00000010 l       *ABS*	00000000 WD_RAWINT
00000014 l       *ABS*	00000000 WD_MSKINT
00000c00 l       *ABS*	00000000 WD_LOCK
1acce551 l       *ABS*	00000000 WD_CODE
00000001 l       *ABS*	00000000 WD_INT_B
00000002 l       *ABS*	00000000 WD_RST_B
f4000000 l       *ABS*	00000000 ETH_BASE_UNBUF
e4000000 l       *ABS*	00000000 ETH_BASE_BUF
e4000000 l       *ABS*	00000000 ETH_BASE
e4000000 l       *ABS*	00000000 ETH_TX_BASE
00000600 l       *ABS*	00000000 ETH_TX_SIZE
e4000600 l       *ABS*	00000000 ETH_TX_TOP
e4004000 l       *ABS*	00000000 ETH_RX_BASE
00000c00 l       *ABS*	00000000 ETH_RX_SIZE
e4004c00 l       *ABS*	00000000 ETH_RX_TOP
e4008000 l       *ABS*	00000000 ETH_RX_DESC_RAM
e400c000 l       *ABS*	00000000 ETH_REGS
00000000 l       *ABS*	00000000 ETH_CONTROL
00000004 l       *ABS*	00000000 ETH_STATUS
00000008 l       *ABS*	00000000 ETH_TX_LEN
0000000c l       *ABS*	00000000 ETH_TX_CMD
00000010 l       *ABS*	00000000 ETH_RX_CMD
00000014 l       *ABS*	00000000 ETH_MAC_LO
00000018 l       *ABS*	00000000 ETH_MAC_HI
0000001c l       *ABS*	00000000 ETH_PHY_CTRL
00000020 l       *ABS*	00000000 ETH_INT_CLR
00000024 l       *ABS*	00000000 ETH_RX_BUF_RP
0000002c l       *ABS*	00000000 ETH_RX_DESC_RP
00000001 l       *ABS*	00000000 ETH_TX_CLR
00000010 l       *ABS*	00000000 ETH_RX_CLR
00000001 l       *ABS*	00000000 PHY_CTRL_NRST
00000002 l       *ABS*	00000000 PHY_CTRL_DIN
00000004 l       *ABS*	00000000 PHY_CTRL_DOUT
00000008 l       *ABS*	00000000 PHY_CTRL_OE
00000010 l       *ABS*	00000000 PHY_CTRL_CLK
00000000 l       *ABS*	00000000 PKT_MC
00400000 l       *ABS*	00000000 PKT_P2P
00800000 l       *ABS*	00000000 PKT_NN
00a00000 l       *ABS*	00000000 PKT_NND
00c00000 l       *ABS*	00000000 PKT_FR
00020000 l       *ABS*	00000000 PKT_PL
00020000 l       *ABS*	00000000 PKT_MC_PL
00420000 l       *ABS*	00000000 PKT_P2P_PL
00820000 l       *ABS*	00000000 PKT_NN_PL
00c20000 l       *ABS*	00000000 PKT_FR_PL
0000000a l       *ABS*	00000000 CLK_XTAL_MHZ
0007011a l       *ABS*	00000000 PLL_260
0007011e l       *ABS*	00000000 PLL_300
00070121 l       *ABS*	00000000 PLL_330
00070128 l       *ABS*	00000000 PLL_400
00000050 l       *ABS*	00000000 PLL_LOCK_TIME
809488a5 l       *ABS*	00000000 PLL_CLK_SEL
00000020 l       *ABS*	00000000 SERIAL_NCS
00000010 l       *ABS*	00000000 SERIAL_CLK
00000008 l       *ABS*	00000000 SERIAL_SI
00000004 l       *ABS*	00000000 SERIAL_SO
00000038 l       *ABS*	00000000 SERIAL_OE
80000000 l       *ABS*	00000000 TOP_BIT
80000000 l       *ABS*	00000000 SDRAM_TQ
40000000 l       *ABS*	00000000 SDRAM_DPD
20000000 l       *ABS*	00000000 SDRAM_HERE
08000000 l       *ABS*	00000000 JTAG_NTRST
04000000 l       *ABS*	00000000 JTAG_TMS
02000000 l       *ABS*	00000000 JTAG_TDI
01000000 l       *ABS*	00000000 JTAG_TCK
00100000 l       *ABS*	00000000 JTAG_RTCK
00080000 l       *ABS*	00000000 JTAG_TDO
00008000 l       *ABS*	00000000 JTAG_INT
00000001 l       *ABS*	00000000 LED_0
00000010 l       *ABS*	00000000 MODE_USER
00000011 l       *ABS*	00000000 MODE_FIQ
00000012 l       *ABS*	00000000 MODE_IRQ
00000013 l       *ABS*	00000000 MODE_SVC
00000017 l       *ABS*	00000000 MODE_ABT
0000001b l       *ABS*	00000000 MODE_UND
0000001f l       *ABS*	00000000 MODE_SYS
00000020 l       *ABS*	00000000 THUMB_BIT
00000080 l       *ABS*	00000000 IMASK_IRQ
00000040 l       *ABS*	00000000 IMASK_FIQ
000000c0 l       *ABS*	00000000 IMASK_ALL
00000001 l       *ABS*	00000000 SARK_EVENT
00000180 l       *ABS*	00000000 SVC_STACK
00000100 l       *ABS*	00000000 IRQ_STACK
00000100 l       *ABS*	00000000 FIQ_STACK
00000004 l       *ABS*	00000000 NUM_SDP_MSGS
0000000f l       *ABS*	00000000 SARK_SLOT
00000010 l       *ABS*	00000000 INIT_EVENTS
deaddead l       *ABS*	00000000 DEAD_WORD
00000001 l       *ABS*	00000000 APLX_ACOPY
00000002 l       *ABS*	00000000 APLX_RCOPY
00000003 l       *ABS*	00000000 APLX_FILL
00000004 l       *ABS*	00000000 APLX_EXEC
000000ff l       *ABS*	00000000 APLX_END
00000010 l       *ABS*	00000000 APLX_ENTRY_SIZE
00000040 l       *ABS*	00000000 APLX_BUF_SIZE
00007fc0 l       *ABS*	00000000 APLX_BUFFER
000000ff l       *ABS*	00000000 TAG_NONE
00000000 l       *ABS*	00000000 TAG_HOST
00000001 l       *ABS*	00000000 RTR_ALLOC_FIRST
00000400 l       *ABS*	00000000 RTR_ALLOC_LAST
000003ff l       *ABS*	00000000 RTR_ALLOC_MAX
00000001 l       *ABS*	00000000 ALLOC_LOCK
00000002 l       *ABS*	00000000 ALLOC_ID
00000004 l       *ABS*	00000000 ALLOC_TAG_RETRY
00000000 l       *ABS*	00000000 LOCK_MSG
00000001 l       *ABS*	00000000 LOCK_MBOX
00000002 l       *ABS*	00000000 LOCK_ETHER
00000003 l       *ABS*	00000000 LOCK_GPIO
00000004 l       *ABS*	00000000 LOCK_API_ROOT
00000005 l       *ABS*	00000000 LOCK_SEMA
00000006 l       *ABS*	00000000 LOCK_HEAP
00000007 l       *ABS*	00000000 LOCK_RTR
00000005 l       *ABS*	00000000 A_LOCK_SEMA
00000000 l       *ABS*	00000000 APP_FLAG_WAIT
00000000 l       *ABS*	00000000 RTE_NONE
00000001 l       *ABS*	00000000 RTE_RESET
00000002 l       *ABS*	00000000 RTE_UNDEF
00000003 l       *ABS*	00000000 RTE_SVC
00000004 l       *ABS*	00000000 RTE_PABT
00000005 l       *ABS*	00000000 RTE_DABT
00000006 l       *ABS*	00000000 RTE_IRQ
00000007 l       *ABS*	00000000 RTE_FIQ
00000008 l       *ABS*	00000000 RTE_VIC
00000009 l       *ABS*	00000000 RTE_ABORT
0000000a l       *ABS*	00000000 RTE_MALLOC
0000000b l       *ABS*	00000000 RTE_DIV0
0000000c l       *ABS*	00000000 RTE_EVENT
0000000d l       *ABS*	00000000 RTE_SWERR
0000000e l       *ABS*	00000000 RTE_IOBUF
0000000f l       *ABS*	00000000 RTE_ENABLE
00000010 l       *ABS*	00000000 RTE_NULL
00000011 l       *ABS*	00000000 RTE_PKT
00000012 l       *ABS*	00000000 RTE_TIMER
00000013 l       *ABS*	00000000 RTE_API
00000014 l       *ABS*	00000000 RTE_VER
00000001 l       *ABS*	00000000 A_RTE_RESET
00000002 l       *ABS*	00000000 A_RTE_UNDEF
00000003 l       *ABS*	00000000 A_RTE_SVC
00000004 l       *ABS*	00000000 A_RTE_PABT
00000005 l       *ABS*	00000000 A_RTE_DABT
00000006 l       *ABS*	00000000 A_RTE_IRQ
00000007 l       *ABS*	00000000 A_RTE_FIQ
00000008 l       *ABS*	00000000 A_RTE_VIC
00000000 l       *ABS*	00000000 CPU_STATE_DEAD
00000001 l       *ABS*	00000000 CPU_STATE_PWRDN
00000002 l       *ABS*	00000000 CPU_STATE_RTE
00000003 l       *ABS*	00000000 CPU_STATE_WDOG
00000004 l       *ABS*	00000000 CPU_STATE_INIT
00000005 l       *ABS*	00000000 CPU_STATE_WAIT
00000006 l       *ABS*	00000000 CPU_STATE_SARK
00000007 l       *ABS*	00000000 CPU_STATE_RUN
00000008 l       *ABS*	00000000 CPU_STATE_SYNC0
00000009 l       *ABS*	00000000 CPU_STATE_SYNC1
0000000a l       *ABS*	00000000 CPU_STATE_PAUSE
0000000b l       *ABS*	00000000 CPU_STATE_EXIT
0000000c l       *ABS*	00000000 CPU_STATE_12
0000000d l       *ABS*	00000000 CPU_STATE_13
0000000e l       *ABS*	00000000 CPU_STATE_14
0000000f l       *ABS*	00000000 CPU_STATE_IDLE
00000002 l       *ABS*	00000000 A_STATE_RTE
00000000 l       *ABS*	00000000 EVENT_TIMER
00000001 l       *ABS*	00000000 EVENT_RXPKT
00000002 l       *ABS*	00000000 EVENT_SDP
00000003 l       *ABS*	00000000 EVENT_USER
00000004 l       *ABS*	00000000 EVENT_SIG
00000005 l       *ABS*	00000000 EVENT_DMA
00000005 l       *ABS*	00000000 EVENT_MAX
00000006 l       *ABS*	00000000 EVENT_COUNT
00000000 l       *ABS*	00000000 EVENT_RUN
00000001 l       *ABS*	00000000 EVENT_PAUSE
00000002 l       *ABS*	00000000 EVENT_STOP
00000000 l       *ABS*	00000000 SLOT_0
00000001 l       *ABS*	00000000 SLOT_1
00000002 l       *ABS*	00000000 SLOT_2
00000003 l       *ABS*	00000000 SLOT_3
00000004 l       *ABS*	00000000 SLOT_4
00000005 l       *ABS*	00000000 SLOT_5
00000006 l       *ABS*	00000000 SLOT_6
00000007 l       *ABS*	00000000 SLOT_7
00000008 l       *ABS*	00000000 SLOT_8
00000009 l       *ABS*	00000000 SLOT_9
0000000a l       *ABS*	00000000 SLOT_10
0000000b l       *ABS*	00000000 SLOT_11
0000000c l       *ABS*	00000000 SLOT_12
0000000d l       *ABS*	00000000 SLOT_13
0000000e l       *ABS*	00000000 SLOT_14
0000000f l       *ABS*	00000000 SLOT_15
00000010 l       *ABS*	00000000 SLOT_FIQ
0000000f l       *ABS*	00000000 SLOT_MAX
00000000 l       *ABS*	00000000 PRIO_0
00000001 l       *ABS*	00000000 PRIO_1
00000002 l       *ABS*	00000000 PRIO_2
00000003 l       *ABS*	00000000 PRIO_3
00000003 l       *ABS*	00000000 PRIO_MAX
00000000 l       *ABS*	00000000 SW_OPT
00000001 l       *ABS*	00000000 SW_NEVER
00000002 l       *ABS*	00000000 SW_RTE
00000000 l       *ABS*	00000000 SYNC_NOWAIT
00000001 l       *ABS*	00000000 SYNC_WAIT
00000000 l       *ABS*	00000000 SHM_IDLE
00000001 l       *ABS*	00000000 SHM_MSG
00000002 l       *ABS*	00000000 SHM_NOP
00000003 l       *ABS*	00000000 SHM_SIGNAL
00000004 l       *ABS*	00000000 SHM_CMD
00000000 l       *ABS*	00000000 SIG_INIT
00000001 l       *ABS*	00000000 SIG_PWRDN
00000002 l       *ABS*	00000000 SIG_STOP
00000003 l       *ABS*	00000000 SIG_START
00000004 l       *ABS*	00000000 SIG_SYNC0
00000005 l       *ABS*	00000000 SIG_SYNC1
00000006 l       *ABS*	00000000 SIG_PAUSE
00000007 l       *ABS*	00000000 SIG_CONT
00000008 l       *ABS*	00000000 SIG_EXIT
00000009 l       *ABS*	00000000 SIG_TIMER
0000000a l       *ABS*	00000000 SIG_USR0
0000000b l       *ABS*	00000000 SIG_USR1
0000000c l       *ABS*	00000000 SIG_USR2
0000000d l       *ABS*	00000000 SIG_USR3
00000000 l       *ABS*	00000000 CMD_VER
00000001 l       *ABS*	00000000 CMD_RUN
00000002 l       *ABS*	00000000 CMD_READ
00000003 l       *ABS*	00000000 CMD_WRITE
00000004 l       *ABS*	00000000 CMD_APLX
00000005 l       *ABS*	00000000 CMD_FILL
0000000f l       *ABS*	00000000 CMD_COUNT
00000010 l       *ABS*	00000000 CMD_REMAP
00000011 l       *ABS*	00000000 CMD_LINK_READ
00000012 l       *ABS*	00000000 CMD_LINK_WRITE
00000013 l       *ABS*	00000000 CMD_AR
00000014 l       *ABS*	00000000 CMD_NNP
00000015 l       *ABS*	00000000 CMD_APP_COPY_RUN
00000016 l       *ABS*	00000000 CMD_SIG
00000017 l       *ABS*	00000000 CMD_FFD
00000018 l       *ABS*	00000000 CMD_AS
00000019 l       *ABS*	00000000 CMD_LED
0000001a l       *ABS*	00000000 CMD_IPTAG
0000001b l       *ABS*	00000000 CMD_SROM
0000001c l       *ABS*	00000000 CMD_ALLOC
0000001d l       *ABS*	00000000 CMD_RTR
0000001e l       *ABS*	00000000 CMD_RSVD
0000001f l       *ABS*	00000000 CMD_INFO
00000020 l       *ABS*	00000000 CMD_SYNC
00000040 l       *ABS*	00000000 CMD_TUBE
00000080 l       *ABS*	00000000 RC_OK
00000081 l       *ABS*	00000000 RC_LEN
00000082 l       *ABS*	00000000 RC_SUM
00000083 l       *ABS*	00000000 RC_CMD
00000084 l       *ABS*	00000000 RC_ARG
00000085 l       *ABS*	00000000 RC_PORT
00000086 l       *ABS*	00000000 RC_TIMEOUT
00000087 l       *ABS*	00000000 RC_ROUTE
00000088 l       *ABS*	00000000 RC_CPU
00000089 l       *ABS*	00000000 RC_DEAD
0000008a l       *ABS*	00000000 RC_BUF
0000008b l       *ABS*	00000000 RC_P2P_NOREPLY
0000008c l       *ABS*	00000000 RC_P2P_REJECT
0000008d l       *ABS*	00000000 RC_P2P_BUSY
0000008e l       *ABS*	00000000 RC_P2P_TIMEOUT
0000008f l       *ABS*	00000000 RC_PKT_TX
00000000 l       *ABS*	00000000 TYPE_BYTE
00000001 l       *ABS*	00000000 TYPE_HALF
00000002 l       *ABS*	00000000 TYPE_WORD
00000008 l       *ABS*	00000000 NUM_SDP_PORTS
00000005 l       *ABS*	00000000 PORT_SHIFT
000000e0 l       *ABS*	00000000 PORT_MASK
0000001f l       *ABS*	00000000 CPU_MASK
000000ff l       *ABS*	00000000 PORT_ETH
00000100 l       *ABS*	00000000 SDP_BUF_SIZE
00000080 l       *ABS*	00000000 VCPU_SIZE
0000002c l       *ABS*	00000000 VCPU_RT_CODE
0000002e l       *ABS*	00000000 VCPU_CPU_STATE
0000002f l       *ABS*	00000000 VCPU_APP_ID
0000001c l       *ABS*	00000000 SARK_MSG_INT
0000001d l       *ABS*	00000000 SARK_SIG_INT
00000000 l       *ABS*	00000000 SARK_VIRT_CPU
00000008 l       *ABS*	00000000 SARK_RANDOM
00000030 l       *ABS*	00000000 SARK_CPU_CLK
00000020 l       *ABS*	00000000 SV_SSIZE
00000060 l       *ABS*	00000000 SV_USIZE
00000080 l       *ABS*	00000000 SV_ISIZE
00000020 l       *ABS*	00000000 SV_VSIZE
00000040 l       *ABS*	00000000 SV_RSIZE
00001000 l       *ABS*	00000000 SV_SIZE
e5007fe0 l       *ABS*	00000000 SV_SROM
e5007f80 l       *ABS*	00000000 SV_UBASE
e5007f00 l       *ABS*	00000000 SV_IBASE
e5007f00 l       *ABS*	00000000 SV_SV
00000100 l       *ABS*	00000000 SYS_BOOT
e5007000 l       *ABS*	00000000 SYS_USER_TOP
e5000100 l       *ABS*	00000000 SYS_USER_BASE
e5007ee0 l       *ABS*	00000000 SV_VECTORS
e5007ea0 l       *ABS*	00000000 SV_RANDOM
e5007000 l       *ABS*	00000000 SV_VCPU
e5007900 l       *ABS*	00000000 SV_SPARE
000005a0 l       *ABS*	00000000 SPARE_SIZE
e5007fe0 l       *ABS*	00000000 SROM_FLAG_BASE
e5007f80 l       *ABS*	00000000 STATUS_MAP_BASE
e5007ee0 l       *ABS*	00000000 RST_BLOCK_BASE
00008000 l       *ABS*	00000000 SRF_PRESENT
000000f0 l       *ABS*	00000000 SRF_HW_VER
00000008 l       *ABS*	00000000 SRF_PHY_INIT
00000004 l       *ABS*	00000000 SRF_PHY_RST
00000002 l       *ABS*	00000000 SRF_PHY_WAIT
00000001 l       *ABS*	00000000 SRF_ETH
00000000 l       *ABS*	00000000 SRF_NONE
00000020 l       RO_DATA	00000000 reset_vec
00000004 l       RO_DATA	00000000 undef
00000024 l       RO_DATA	00000000 undef_vec
00000028 l       RO_DATA	00000000 svc_vec
0000002c l       RO_DATA	00000000 pabt_vec
00000030 l       RO_DATA	00000000 dabt_vec
0000003c l       RO_DATA	00000000 fiq_vec
00000078 l       RO_DATA	00000000 reset_entry
000000d8 l       RO_DATA	00000000 undef_error
000000e0 l       RO_DATA	00000000 svc_error
000000e8 l       RO_DATA	00000000 pabt_error
000000f0 l       RO_DATA	00000000 dabt_error
00000034 l       RO_DATA	00000000 aplx_proc
00000038 l       RO_DATA	00000000 irq_vec
000000f8 l       RO_DATA	00000000 irq_error
00000100 l       RO_DATA	00000000 fiq_error
00000040 l       RO_DATA	00000000 svc_stack
00000042 l       RO_DATA	00000000 irq_stack
00000044 l       RO_DATA	00000000 fiq_stack
00000046 l       RO_DATA	00000000 stack_size
00000048 l       RO_DATA	00000000 code_top
0000004c l       RO_DATA	00000000 heap_base
00000050 l       RO_DATA	00000000 stack_top
00000054 l       RO_DATA	00000000 stack_fill
00000058 l       RO_DATA	00000000 num_msgs
00000059 l       RO_DATA	00000000 sark_slot
0000005a l       RO_DATA	00000000 num_events
0000005b l       RO_DATA	00000000 api
0000005c l       RO_DATA	00000000 app_id
0000005d l       RO_DATA	00000000 app_flags
0000005e l       RO_DATA	00000000 __PAD
00000060 l       RO_DATA	00000000 event_vec
000000d0 l       RO_DATA	00000000 reset_error
00000114 l       RO_DATA	00000000 exc_error
00000138 l       RO_DATA	00000000 cc_error
000001ec l       RO_DATA	00000000 lg1
0000023c l       RO_DATA	00000000 ws1
0000029c l       RO_DATA	00000000 wc2
00000284 l       RO_DATA	00000000 wc1
0000037c l       RO_DATA	00000000 aplx_buffer
00000380 l       RO_DATA	00000000 aplx_loader
0000036c l       RO_DATA	00000000 aplx_l0
00000398 l       RO_DATA	00000000 aplx_copy
00000394 l       RO_DATA	00000000 aplx_rcopy
000003a6 l       RO_DATA	00000000 aplx_fill
000003b6 l       RO_DATA	00000000 aplx_exec
000003ac l       RO_DATA	00000000 aplx_l1
00000000 l    df *ABS*	00000000 sark_base.c
00000000 l    df *ABS*	00000000 sark_event.c
00000000 l    df *ABS*	00000000 sark_timer.c
00400a08 l     O ZI_DATA	0000001c cancelled
00000000 l    df *ABS*	00000000 sark_hw.c
00000000 l    df *ABS*	00000000 sark_isr.c
00000000 l    df *ABS*	00000000 sark_alloc.c
00000000 l    df *ABS*	00000000 sark_io.c
00004088 l     F RO_DATA	00000040 io_buf_init
00400a2c l     O ZI_DATA	00000004 buf_ptr
00400a24 l     O ZI_DATA	00000004 io_buf
00400a30 l     O ZI_DATA	00000004 sp_ptr
00400a28 l     O ZI_DATA	00000004 io_msg
000041b0 l     F RO_DATA	000000be io_put_fixed
0000560f l     O RO_DATA	00000011 hex
00000000 l    df *ABS*	00000000 sark_pkt.c
00000000 l    df *ABS*	00000000 sark_div0.c
00000000 l    df *ABS*	00000000 main.c
000003bc l     F RO_DATA	00000028 spin1_set_timer_tick
000003e4 l     F RO_DATA	00000054 spin1_send_mc_packet
00000438 l     F RO_DATA	0000008c timer_callback
000004c4 l     F RO_DATA	0000005c mc_packet_callback
00000520 l     F RO_DATA	0000002c sdp_callback
00000000 l    df *ABS*	00000000 neuron_manager.c
00400018 l       ZI_DATA	00000004 g_neuron_list
0040001c l       ZI_DATA	00000004 g_neuron_count
00400020 l       ZI_DATA	00000004 g_app_id
00000000 l    df *ABS*	00000000 synapse_manager.c
00400024 l       ZI_DATA	00000004 g_synapse_count
00400028 l       ZI_DATA	00000004 g_active_trace_count
0040002c l       ZI_DATA	00000004 g_last_delivery_visits
00400030 l       ZI_DATA	00000004 g_last_decay_visits
00400034 l       ZI_DATA	00000004 g_last_modulation_visits
00400038 l       ZI_DATA	00000004 g_post_index
0040003c l       ZI_DATA	00000004 g_pre_index
00400040 l       ZI_DATA	00000004 g_active_trace_head
00000b48 l     F RO_DATA	0000006c _find_post
00000bb4 l     F RO_DATA	0000006c _find_pre
00000c20 l     F RO_DATA	000000a0 _find_or_create_post
00000cc0 l     F RO_DATA	000000a0 _find_or_create_pre
00000d60 l     F RO_DATA	00000050 _clip_weight
00000db0 l     F RO_DATA	00000098 _drop_empty_post_entry
00000e48 l     F RO_DATA	00000098 _drop_empty_pre_entry
00000ee0 l     F RO_DATA	000000b4 _unlink_from_post
00000f94 l     F RO_DATA	000000b4 _unlink_from_pre
00001048 l     F RO_DATA	000000e0 _unlink_from_active
00001128 l     F RO_DATA	00000078 _activate_trace
000011a0 l     F RO_DATA	0000008c _free_synapse
0000122c l     F RO_DATA	00000088 _find_synapse
00000000 l    df *ABS*	00000000 state_manager.c
00400044 l       ZI_DATA	000000a0 g_context_slots
004000e4 l       ZI_DATA	00000800 g_pending_horizons
004008e4 l       ZI_DATA	00000044 g_summary
00001a5c l     F RO_DATA	0000010c _clear_slots
00001b68 l     F RO_DATA	000000f0 _clear_summary
00001c58 l     F RO_DATA	000000a0 _clear_pending
00001cf8 l     F RO_DATA	000000ac _find_slot
00001da4 l     F RO_DATA	00000154 _select_slot_for_write
000023dc l     F RO_DATA	000000e0 _apply_reward_to_feature_prediction
00000000 l    df *ABS*	00000000 host_interface.c
0000275c l     F RO_DATA	00000024 spin1_msg_free
00002780 l     F RO_DATA	00000018 spin1_msg_get
00002798 l     F RO_DATA	00000030 spin1_send_sdp_msg
000027c8 l     F RO_DATA	0000007c _write_u32
00002844 l     F RO_DATA	00000030 _write_s32
00002874 l     F RO_DATA	000000c8 _handle_birth
0000293c l     F RO_DATA	0000008c _handle_death
000029c8 l     F RO_DATA	000000a4 _handle_dopamine
00002a6c l     F RO_DATA	0000008c _handle_read_spikes
00002af8 l     F RO_DATA	0000008c _handle_create_syn
00002b84 l     F RO_DATA	00000078 _handle_remove_syn
00002bfc l     F RO_DATA	00000070 _handle_reset
00002c6c l     F RO_DATA	00000058 _handle_read_state
00000000 l    df *ABS*	00000000 router.c
00400928 l       ZI_DATA	00000004 g_route_list
0040092c l       ZI_DATA	00000004 g_route_count
00400930 l       ZI_DATA	00000004 g_app_id
00003200 l     F RO_DATA	0000006c _find_route
00000000 l    df *ABS*	00000000 spin1_api.c
00004508 l     F RO_DATA	0000008c configure_timer1
00004594 l     F RO_DATA	00000050 resume
0040104c l     O ZI_DATA	00000004 resume_sync
00401050 l     O ZI_DATA	00000004 paused
000045e4 l     F RO_DATA	0000006c clean_up
00401028 l     O ZI_DATA	00000004 old_vector
00401024 l     O ZI_DATA	00000004 old_select
00401020 l     O ZI_DATA	00000004 old_enable
00400ac0 l     O ZI_DATA	00000320 task_queue
0040102c l     O ZI_DATA	00000004 timer_phase
00004678 l     F RO_DATA	000003e0 start
0040101c l     O ZI_DATA	00000004 user_int_select
0040000c l     O RW_DATA	00000004 fiq_event
00401054 l     O ZI_DATA	00000004 run
00401018 l     O ZI_DATA	00000004 highest_priority
00400008 l     O RW_DATA	00000004 mc_pkt_prio
00400004 l     O RW_DATA	00000004 fr_pkt_prio
00005620 l     O RO_DATA	00000020 VIC_EVENTS
00000000 l    df *ABS*	00000000 spin1_isr.c
00000000 l    df *ABS*	00000000 _thumb1_case_sqi.o
00000000 l    df *ABS*	00000000 _thumb1_case_shi.o
00000000 l    df *ABS*	00000000 _divsi3.o
00005258 l       RO_DATA	00000000 .divsi3_skip_div0_test
00000000 l    df *ABS*	00000000 memcpy-stub.c
00000000 l    df *ABS*	00000000 coral_reef_build.c
00401030 g     O ZI_DATA	00000004 time_to_next_drift_update
00002108 g     F RO_DATA	000000e8 cra_state_read_context
00004b28 g     F RO_DATA	0000000a spin1_start
000001d8 g     F RO_DATA	00000000 sark_lock_get
00004ca4 g     F RO_DATA	00000030 sark_pre_main
00001f18 g     F RO_DATA	0000003c cra_state_reset
0000064c g     F RO_DATA	00000044 neuron_mgr_init
00003604 g     F RO_DATA	00000034 sark_shmsg_get
00004d8c g     F RO_DATA	00000074 cc_fr_ready_isr
000001a8 g     F RO_DATA	00000000 spin1_int_enable
00000040 g       *ABS*	00000000 RO_FROM
00000800 g       *ABS*	00000000 STACK_SIZE
00000352 g     F RO_DATA	00000000 sark_bx
00003e84 g     F RO_DATA	000000a4 sark_xfree
000017b0 g     F RO_DATA	00000128 synapse_reset_all
00004a58 g     F RO_DATA	000000bc spin1_callback_on
00002cdc g     F RO_DATA	000000f8 sdp_rx_callback
00000880 g     F RO_DATA	0000006c neuron_find
000018fc g     F RO_DATA	00000024 synapse_active_trace_count
00002214 g     F RO_DATA	00000040 cra_state_set_readout
0000025c g     F RO_DATA	00000000 sark_msg_cpy
00003b6c g     F RO_DATA	0000004c event_alloc
00003594 g     F RO_DATA	0000001e sark_block_init
00004fd4 g     F RO_DATA	00000140 timer1_isr
00003d58 g     F RO_DATA	00000028 sark_fiq_han
00000010 g       *ABS*	00000000 APLX_ENTRY
000035e4 g     F RO_DATA	00000020 sark_msg_free
00005154 g     F RO_DATA	0000006c soft_int_isr
00003fe4 g     F RO_DATA	000000a4 rtr_free
000032b0 g     F RO_DATA	00000154 router_add_neuron
000005c8 g     F RO_DATA	00000084 c_main
00003404 g     F RO_DATA	000000b8 router_remove_neuron
00003964 g     F RO_DATA	0000016c sark_int
00001944 g     F RO_DATA	00000024 synapse_last_decay_visit_count
000002f0 g     F RO_DATA	00000000 sark_int_han
00000abc g     F RO_DATA	00000024 neuron_list_head
00003ad0 g     F RO_DATA	00000058 event_wait
00005398 g     F RO_DATA	00000114 memcpy
0000394e g     F RO_DATA	00000014 sark_wait
000001c8 g     F RO_DATA	00000000 spin1_mode_restore
00003940 g     F RO_DATA	0000000e sark_cmd_fill
00003fd8 g     F RO_DATA	0000000c rtr_alloc
00003bcc g     F RO_DATA	00000050 sark_vic_init
00004f5c g     F RO_DATA	00000078 dma_done_fiqsr
0000016c g     F RO_DATA	00000000 cpu_shutdown
00401040 g     O ZI_DATA	00000004 timer_tick_clocks
00400014 g     O ZI_DATA	00000004 g_dopamine_level
000001c8 g     F RO_DATA	00000000 cpu_int_restore
00400a34 g     O ZI_DATA	0000004c diagnostics
00410000 g       *ABS*	00000000 STACK_TOP
0040105c g       ZI_DATA	00000000 HEAP_BASE
00003d80 g     F RO_DATA	000000ec sark_xalloc
00000ae0 g     F RO_DATA	00000068 neuron_reset_all
00400000 g     O RW_DATA	00000004 g_app_id
0000326c g     F RO_DATA	00000044 router_init
0000093c g     F RO_DATA	0000015c neuron_update_all
00000354 g     F RO_DATA	00000000 __gnu_thumb1_case_uqi
00000570 g     F RO_DATA	00000058 emit_spike
000012b4 g     F RO_DATA	00000138 synapse_create
00400010 g     O ZI_DATA	00000004 g_timestep
00003638 g     F RO_DATA	00000024 sark_shmsg_free
00000324 g     F RO_DATA	00000000 schedule
00004e38 g     F RO_DATA	00000094 cc_tx_empty_isr
0000012c g     F RO_DATA	00000000 rt_error
000025cc g     F RO_DATA	00000120 cra_state_mature_pending_horizons
00003c88 g     F RO_DATA	00000058 rtr_mc_clear
0040103c g     O ZI_DATA	00000004 drift
00004d54 g     F RO_DATA	00000038 cc_rx_ready_fiqsr
00000a98 g     F RO_DATA	00000024 neuron_count
00002710 g     F RO_DATA	0000004c cra_state_get_summary
00003570 g     F RO_DATA	00000010 sark_cpu_state
00003bb8 g     F RO_DATA	00000014 timer_cancel_init
00400de0 g     O ZI_DATA	00000028 user_event_queue
00004cd4 g     F RO_DATA	0000000a sark_post_main
00005670 g       *ABS*	00000000 RW_FROM
00000690 g     F RO_DATA	0000013c neuron_birth
00005250 g     F RO_DATA	00000000 .hidden __aeabi_idiv
00002dd4 g     F RO_DATA	00000258 host_if_pack_state_summary
00000000 g       RO_DATA	00000000 cpu_reset
000002c0 g     F RO_DATA	00000000 sark_div10
000022ec g     F RO_DATA	00000044 cra_state_record_reward
00000108 g       RO_DATA	00000000 vic_error
00400000 g       *ABS*	00000000 DTCM_BASE
0000523c g     F RO_DATA	00000014 .hidden __gnu_thumb1_case_shi
000021f0 g     F RO_DATA	00000024 cra_state_active_slot_count
00003c5c g     F RO_DATA	0000002c v2p_mask
000054b0 g     O RO_DATA	0000000b build_name
00000350  w    F RO_DATA	00000000 sark_config
00005214 g     F RO_DATA	00000014 sark_fiqsr
00003b28 g     F RO_DATA	0000002c event_pause
00003f28 g     F RO_DATA	00000014 sark_free
000054ac g     O RO_DATA	00000004 build_date
000001fc g     F RO_DATA	00000000 sark_lock_free
00003e6c g     F RO_DATA	00000018 sark_alloc
00400000 g       *ABS*	00000000 RW_BASE
00004b34 g     F RO_DATA	000000f4 spin1_send_packet
00000010 g       ZI_DATA	00000000 RW_LENGTH
0000143c g     F RO_DATA	000000d8 synapse_deliver_spike
00003534 g     F RO_DATA	00000024 router_route_count
000051c0 g     F RO_DATA	00000054 soft_int_fiqsr
00000190 g     F RO_DATA	00000000 cpu_init_mode
00001920 g     F RO_DATA	00000024 synapse_last_delivery_visit_count
0000026c g     F RO_DATA	00000000 sark_word_cpy
00000040 g       *ABS*	00000000 APLX_SIZE
000024bc g     F RO_DATA	00000110 cra_state_schedule_pending_horizon
000019f4 g     F RO_DATA	00000068 synapse_get_eligibility_trace
0000017c g     F RO_DATA	00000000 cpu_sleep
00401058 g     O ZI_DATA	00000001 leadAp
000008ec g     F RO_DATA	00000050 neuron_add_input
00002298 g     F RO_DATA	00000054 cra_state_record_decision
00400934 g     O ZI_DATA	0000003c sark
000037a8 g     F RO_DATA	00000090 sark_msg_send
000001d0 g     F RO_DATA	00000000 spin1_wfi
00002cc4 g     F RO_DATA	00000018 host_if_init
00003838 g     F RO_DATA	00000050 sark_cmd_ver
00401034 g     O ZI_DATA	00000004 drift_accum
000001d0 g     F RO_DATA	00000000 cpu_wfi
00003b54 g     F RO_DATA	00000018 event_stop
0000198c g     F RO_DATA	00000068 synapse_get_weight
000001b8 g     F RO_DATA	00000000 cpu_int_disable
00003c1c g     F RO_DATA	00000040 sark_vic_set
00000210 g     F RO_DATA	00000000 sark_mem_cpy
00003f3c g     F RO_DATA	0000001e sark_heap_init
00004e00 g     F RO_DATA	00000038 cc_fr_ready_fiqsr
00400970 g     O ZI_DATA	00000098 event
000054ac g       RO_DATA	00000000 __init_array_end
000038e6 g     F RO_DATA	0000005a sark_cmd_write
00004ce0 g     F RO_DATA	00000074 cc_rx_ready_isr
00005250 g     F RO_DATA	00000128 .hidden __divsi3
00003678  w    F RO_DATA	00000130 sark_init
00001514 g     F RO_DATA	0000010c synapse_decay_traces_all
00003558  w    F RO_DATA	0000000c rte_handler
00000364 g     F RO_DATA	00000000 sark_aplx
00004270 g     F RO_DATA	0000028c io_printf
00400ed0 g     O ZI_DATA	00000148 dma_queue
00000238 g     F RO_DATA	00000000 sark_word_set
000007cc g     F RO_DATA	000000b4 neuron_death
00004ecc g     F RO_DATA	00000090 dma_done_isr
00401048 g     O ZI_DATA	00000004 ticks
00001620 g     F RO_DATA	000000ac synapse_modulate_all
00001968 g     F RO_DATA	00000024 synapse_last_modulation_visit_count
0000302c g     F RO_DATA	000001d4 sdp_send_reply
00000320 g     F RO_DATA	00000000 null_int_han
00004c28 g     F RO_DATA	0000007c schedule_sysmode
00003f5c g     F RO_DATA	0000007c rtr_alloc_id
000016cc g     F RO_DATA	000000e4 synapse_remove_incident
00005114 g     F RO_DATA	00000040 timer1_fiqsr
000034bc g     F RO_DATA	00000078 router_reset_all
000013ec g     F RO_DATA	00000050 synapse_remove
00401038 g     O ZI_DATA	00000004 drift_sign
00000224 g     F RO_DATA	00000000 sark_str_cpy
00004650 g     F RO_DATA	00000028 resume_wait
00003ce0 g     F RO_DATA	00000078 rtr_mc_set
00002330 g     F RO_DATA	000000ac cra_state_apply_reward_to_readout
00400010 g       *ABS*	00000000 ZI_BASE
00000000 g       *ABS*	00000000 RO_BASE
00005228 g     F RO_DATA	00000012 .hidden __gnu_thumb1_case_sqi
000001a8 g     F RO_DATA	00000000 cpu_int_enable
00003580 g     F RO_DATA	00000014 sark_app_lead
00003564 g     F RO_DATA	0000000c sark_core_id
000026ec g     F RO_DATA	00000024 cra_state_active_pending_count
00401044 g     O ZI_DATA	00000004 timer_tick
00000000 g       *ABS*	00000000 ITCM_BASE
000018d8 g     F RO_DATA	00000024 synapse_count
0000054c g     F RO_DATA	00000024 get_app_id
000054ac g       RO_DATA	00000000 __init_array_start
000044fc g     F RO_DATA	0000000c __aeabi_idiv0
00400a80 g     O ZI_DATA	00000040 callback
00004b14 g     F RO_DATA	00000014 spin1_set_timer_tick_and_phase
0000365c g     F RO_DATA	0000001c sark_call_cpp_constructors
00001ef8 g     F RO_DATA	00000020 cra_state_init
000040c8 g     F RO_DATA	000000e8 io_put_char
00002254 g     F RO_DATA	00000044 cra_state_predict_readout
00005378 g     F RO_DATA	00000020 .hidden __aeabi_idivmod
000001b8 g     F RO_DATA	00000000 spin1_int_disable
00001f54 g     F RO_DATA	000001b4 cra_state_write_context
00003888 g     F RO_DATA	0000005e sark_cmd_read
0000104c g       *ABS*	00000000 ZI_LENGTH
00005640 g       RW_DATA	00000000 RO_LENGTH
000035b4 g     F RO_DATA	00000030 sark_msg_get
00400e08 g     O ZI_DATA	000000c8 tx_packet_queue



Disassembly of section RO_DATA:

00000000 <cpu_reset>:
       0:	e59ff018 	ldr	pc, [pc, #24]	@ 20 <reset_vec>

00000004 <undef>:
       4:	e59ff018 	ldr	pc, [pc, #24]	@ 24 <undef_vec>
       8:	e59ff018 	ldr	pc, [pc, #24]	@ 28 <svc_vec>
       c:	e59ff018 	ldr	pc, [pc, #24]	@ 2c <pabt_vec>
      10:	e59ff018 	ldr	pc, [pc, #24]	@ 30 <dabt_vec>
      14:	ebfffffa 	bl	4 <undef>
      18:	e51ffff0 	ldr	pc, [pc, #-4080]	@ fffff030 <ROM_TOP+0x9ff7030>
      1c:	e59ff018 	ldr	pc, [pc, #24]	@ 3c <fiq_vec>

00000020 <reset_vec>:
      20:	00000078 	.word	0x00000078

00000024 <undef_vec>:
      24:	000000d8 	.word	0x000000d8

00000028 <svc_vec>:
      28:	000000e0 	.word	0x000000e0

0000002c <pabt_vec>:
      2c:	000000e8 	.word	0x000000e8

00000030 <dabt_vec>:
      30:	000000f0 	.word	0x000000f0

00000034 <aplx_proc>:
      34:	00000365 	.word	0x00000365

00000038 <irq_vec>:
      38:	000000f8 	.word	0x000000f8

0000003c <fiq_vec>:
      3c:	00000100 	.word	0x00000100

00000040 <svc_stack>:
      40:	0060      	.short	0x0060

00000042 <irq_stack>:
      42:	0040      	.short	0x0040

00000044 <fiq_stack>:
      44:	0040      	.short	0x0040

00000046 <stack_size>:
      46:	0800      	.short	0x0800

00000048 <code_top>:
      48:	00005640 	.word	0x00005640

0000004c <heap_base>:
      4c:	0040105c 	.word	0x0040105c

00000050 <stack_top>:
      50:	00410000 	.word	0x00410000

00000054 <stack_fill>:
      54:	deaddead 	.word	0xdeaddead

00000058 <num_msgs>:
      58:	04          	.byte	0x04

00000059 <sark_slot>:
      59:	0f          	.byte	0x0f

0000005a <num_events>:
      5a:	10          	.byte	0x10

0000005b <api>:
	...

0000005c <app_id>:
	...

0000005d <app_flags>:
	...

0000005e <__PAD>:
	...

00000060 <event_vec>:
	...

00000078 <reset_entry>:
      78:	e24f1060 	sub	r1, pc, #96	@ 0x60
      7c:	e1c103bc 	strh	r0, [r1, #60]	@ 0x3c
      80:	e28f0048 	add	r0, pc, #72	@ 0x48
      84:	e5810000 	str	r0, [r1]
      88:	e59f00f4 	ldr	r0, [pc, #244]	@ 184 <DMA_CRCT+0x4>
      8c:	ee010f10 	mcr	15, 0, r0, cr1, cr0, {0}
      90:	e321f0d3 	msr	CPSR_c, #211	@ 0xd3
      94:	e3a0d902 	mov	sp, #32768	@ 0x8000
      98:	fa0000ac 	blx	350 <sark_config>
      9c:	e51fd054 	ldr	sp, [pc, #-84]	@ 50 <stack_top>
      a0:	e15f26b2 	ldrh	r2, [pc, #-98]	@ 46 <stack_size>
      a4:	e51f1058 	ldr	r1, [pc, #-88]	@ 54 <stack_fill>
      a8:	e04d0002 	sub	r0, sp, r2
      ac:	eb000061 	bl	238 <sark_word_set>
      b0:	e1a0000d 	mov	r0, sp
      b4:	fa000d6f 	blx	3678 <sark_init>
      b8:	e121f000 	msr	CPSR_c, r0
      bc:	fb000e22 	blx	394e <sark_wait>
      c0:	fa0012f7 	blx	4ca4 <sark_pre_main>
      c4:	eb00013f 	bl	5c8 <c_main>
      c8:	fa001301 	blx	4cd4 <sark_post_main>
      cc:	eb00002a 	bl	17c <cpu_sleep>

000000d0 <reset_error>:
      d0:	e3a00001 	mov	r0, #1
      d4:	ea000014 	b	12c <rt_error>

000000d8 <undef_error>:
      d8:	e3a0b002 	mov	fp, #2
      dc:	ea00000c 	b	114 <exc_error>

000000e0 <svc_error>:
      e0:	e3a0b003 	mov	fp, #3
      e4:	ea00000a 	b	114 <exc_error>

000000e8 <pabt_error>:
      e8:	e3a0b004 	mov	fp, #4
      ec:	ea000008 	b	114 <exc_error>

000000f0 <dabt_error>:
      f0:	e3a0b005 	mov	fp, #5
      f4:	ea000006 	b	114 <exc_error>

000000f8 <irq_error>:
      f8:	e3a0b006 	mov	fp, #6
      fc:	ea000004 	b	114 <exc_error>

00000100 <fiq_error>:
     100:	e3a0b007 	mov	fp, #7
     104:	ea000002 	b	114 <exc_error>

00000108 <vic_error>:
     108:	e3a0b008 	mov	fp, #8
     10c:	e3a0042f 	mov	r0, #788529152	@ 0x2f000000
     110:	e5900030 	ldr	r0, [r0, #48]	@ 0x30

00000114 <exc_error>:
     114:	e1a0a00e 	mov	sl, lr
     118:	e14f8000 	mrs	r8, SPSR
     11c:	e38890c0 	orr	r9, r8, #192	@ 0xc0
     120:	e3c99020 	bic	r9, r9, #32
     124:	e12ff009 	msr	CPSR_fsxc, r9
     128:	ea000002 	b	138 <cc_error>

0000012c <rt_error>:
     12c:	e1a0b000 	mov	fp, r0
     130:	e10f8000 	mrs	r8, CPSR
     134:	e1a0a00e 	mov	sl, lr

00000138 <cc_error>:
     138:	e59fc048 	ldr	ip, [pc, #72]	@ 188 <DMA_CRCT+0x8>
     13c:	e59cc000 	ldr	ip, [ip]
     140:	e3a09080 	mov	r9, #128	@ 0x80
     144:	e59fe040 	ldr	lr, [pc, #64]	@ 18c <DMA_CRCT+0xc>
     148:	e02ee99c 	mla	lr, ip, r9, lr
     14c:	e1a0900d 	mov	r9, sp
     150:	e88e07ff 	stm	lr, {r0, r1, r2, r3, r4, r5, r6, r7, r8, r9, sl}
     154:	e5ceb02c 	strb	fp, [lr, #44]	@ 0x2c
     158:	e3a08002 	mov	r8, #2
     15c:	e5ce802e 	strb	r8, [lr, #46]	@ 0x2e
     160:	e1a0000b 	mov	r0, fp
     164:	e321f0d3 	msr	CPSR_c, #211	@ 0xd3
     168:	fa000cfa 	blx	3558 <rte_handler>

0000016c <cpu_shutdown>:
     16c:	e321f0d3 	msr	CPSR_c, #211	@ 0xd3
     170:	e3a0042f 	mov	r0, #788529152	@ 0x2f000000
     174:	e3e01000 	mvn	r1, #0
     178:	e5801014 	str	r1, [r0, #20]

0000017c <cpu_sleep>:
     17c:	ee070f90 	mcr	15, 0, r0, cr7, cr0, {4}
     180:	eafffffd 	b	17c <cpu_sleep>
     184:	00001f7e 	.word	0x00001f7e
     188:	00400934 	.word	0x00400934
     18c:	e5007000 	.word	0xe5007000

00000190 <cpu_init_mode>:
     190:	e10f3000 	mrs	r3, CPSR
     194:	e121f001 	msr	CPSR_c, r1
     198:	e1a0d000 	mov	sp, r0
     19c:	e12ff003 	msr	CPSR_fsxc, r3
     1a0:	e0400102 	sub	r0, r0, r2, lsl #2
     1a4:	e12fff1e 	bx	lr

000001a8 <cpu_int_enable>:
     1a8:	e10f0000 	mrs	r0, CPSR
     1ac:	e3c010c0 	bic	r1, r0, #192	@ 0xc0
     1b0:	e121f001 	msr	CPSR_c, r1
     1b4:	e12fff1e 	bx	lr

000001b8 <cpu_int_disable>:
     1b8:	e10f0000 	mrs	r0, CPSR
     1bc:	e38010c0 	orr	r1, r0, #192	@ 0xc0
     1c0:	e121f001 	msr	CPSR_c, r1
     1c4:	e12fff1e 	bx	lr

000001c8 <cpu_int_restore>:
     1c8:	e12ff000 	msr	CPSR_fsxc, r0
     1cc:	e12fff1e 	bx	lr

000001d0 <cpu_wfi>:
     1d0:	ee070f90 	mcr	15, 0, r0, cr7, cr0, {4}
     1d4:	e12fff1e 	bx	lr

000001d8 <sark_lock_get>:
     1d8:	e3a0c4e2 	mov	ip, #-503316480	@ 0xe2000000
     1dc:	e08cc100 	add	ip, ip, r0, lsl #2
     1e0:	e10f0000 	mrs	r0, CPSR
     1e4:	e38010c0 	orr	r1, r0, #192	@ 0xc0
     1e8:	e121f001 	msr	CPSR_c, r1

000001ec <lg1>:
     1ec:	e59c1100 	ldr	r1, [ip, #256]	@ 0x100
     1f0:	e3110102 	tst	r1, #-2147483648	@ 0x80000000
     1f4:	1afffffc 	bne	1ec <lg1>
     1f8:	e12fff1e 	bx	lr

000001fc <sark_lock_free>:
     1fc:	e3a0c4e2 	mov	ip, #-503316480	@ 0xe2000000
     200:	e08c1101 	add	r1, ip, r1, lsl #2
     204:	e5911180 	ldr	r1, [r1, #384]	@ 0x180
     208:	e121f000 	msr	CPSR_c, r0
     20c:	e12fff1e 	bx	lr

00000210 <sark_mem_cpy>:
     210:	e2522001 	subs	r2, r2, #1
     214:	24d13001 	ldrbcs	r3, [r1], #1
     218:	24c03001 	strbcs	r3, [r0], #1
     21c:	2afffffb 	bcs	210 <sark_mem_cpy>
     220:	e12fff1e 	bx	lr

00000224 <sark_str_cpy>:
     224:	e4d12001 	ldrb	r2, [r1], #1
     228:	e3520000 	cmp	r2, #0
     22c:	e4c02001 	strb	r2, [r0], #1
     230:	1afffffb 	bne	224 <sark_str_cpy>
     234:	e12fff1e 	bx	lr

00000238 <sark_word_set>:
     238:	e1a03001 	mov	r3, r1

0000023c <ws1>:
     23c:	e2522010 	subs	r2, r2, #16
     240:	28a0000a 	stmiacs	r0!, {r1, r3}
     244:	28a0000a 	stmiacs	r0!, {r1, r3}
     248:	2afffffb 	bcs	23c <ws1>
     24c:	e1b02e82 	lsls	r2, r2, #29
     250:	28a0000a 	stmiacs	r0!, {r1, r3}
     254:	48a00002 	stmiami	r0!, {r1}
     258:	e12fff1e 	bx	lr

0000025c <sark_msg_cpy>:
     25c:	e2800004 	add	r0, r0, #4
     260:	e2811004 	add	r1, r1, #4
     264:	e1d120b0 	ldrh	r2, [r1]
     268:	e2822004 	add	r2, r2, #4

0000026c <sark_word_cpy>:
     26c:	e3120003 	tst	r2, #3
     270:	13c22003 	bicne	r2, r2, #3
     274:	12822004 	addne	r2, r2, #4
     278:	e92d4010 	push	{r4, lr}
     27c:	e2522020 	subs	r2, r2, #32
     280:	3a000005 	bcc	29c <wc2>

00000284 <wc1>:
     284:	e8b15018 	ldm	r1!, {r3, r4, ip, lr}
     288:	e8a05018 	stmia	r0!, {r3, r4, ip, lr}
     28c:	e8b15018 	ldm	r1!, {r3, r4, ip, lr}
     290:	e8a05018 	stmia	r0!, {r3, r4, ip, lr}
     294:	e2522020 	subs	r2, r2, #32
     298:	2afffff9 	bcs	284 <wc1>

0000029c <wc2>:
     29c:	e1b0ce02 	lsls	ip, r2, #28
     2a0:	28b15018 	ldmcs	r1!, {r3, r4, ip, lr}
     2a4:	28a05018 	stmiacs	r0!, {r3, r4, ip, lr}
     2a8:	48b10018 	ldmmi	r1!, {r3, r4}
     2ac:	48a00018 	stmiami	r0!, {r3, r4}
     2b0:	e1b0cf02 	lsls	ip, r2, #30
     2b4:	24913004 	ldrcs	r3, [r1], #4
     2b8:	24803004 	strcs	r3, [r0], #4
     2bc:	e8bd8010 	pop	{r4, pc}

000002c0 <sark_div10>:
     2c0:	e241200a 	sub	r2, r1, #10
     2c4:	e0411121 	sub	r1, r1, r1, lsr #2
     2c8:	e0811221 	add	r1, r1, r1, lsr #4
     2cc:	e0811421 	add	r1, r1, r1, lsr #8
     2d0:	e0811821 	add	r1, r1, r1, lsr #16
     2d4:	e1a011a1 	lsr	r1, r1, #3
     2d8:	e0813101 	add	r3, r1, r1, lsl #2
     2dc:	e0522083 	subs	r2, r2, r3, lsl #1
     2e0:	52811001 	addpl	r1, r1, #1
     2e4:	4282200a 	addmi	r2, r2, #10
     2e8:	e8800006 	stm	r0, {r1, r2}
     2ec:	e12fff1e 	bx	lr

000002f0 <sark_int_han>:
     2f0:	e92d500f 	push	{r0, r1, r2, r3, ip, lr}
     2f4:	e24e0004 	sub	r0, lr, #4
     2f8:	e14fc000 	mrs	ip, SPSR
     2fc:	e321f01f 	msr	CPSR_c, #31
     300:	e92d5000 	push	{ip, lr}
     304:	fa000d96 	blx	3964 <sark_int>
     308:	e8bd5000 	pop	{ip, lr}
     30c:	e321f092 	msr	CPSR_c, #146	@ 0x92
     310:	e16ff00c 	msr	SPSR_fsxc, ip
     314:	e3a0042f 	mov	r0, #788529152	@ 0x2f000000
     318:	e5800030 	str	r0, [r0, #48]	@ 0x30
     31c:	e8bd500f 	pop	{r0, r1, r2, r3, ip, lr}

00000320 <null_int_han>:
     320:	e25ef004 	subs	pc, lr, #4

00000324 <schedule>:
     324:	e92d5000 	push	{ip, lr}
     328:	e10fc000 	mrs	ip, CPSR
     32c:	e3cce01f 	bic	lr, ip, #31
     330:	e38ee01f 	orr	lr, lr, #31
     334:	e121f00e 	msr	CPSR_c, lr
     338:	e92d5000 	push	{ip, lr}
     33c:	fa001239 	blx	4c28 <schedule_sysmode>
     340:	e8bd5000 	pop	{ip, lr}
     344:	e121f00c 	msr	CPSR_c, ip
     348:	e8bd5000 	pop	{ip, lr}
     34c:	e12fff1e 	bx	lr

00000350 <sark_config>:
     350:	4770      	bx	lr

00000352 <sark_bx>:
     352:	4700      	bx	r0

00000354 <__gnu_thumb1_case_uqi>:
     354:	468c      	mov	ip, r1
     356:	4671      	mov	r1, lr
     358:	3901      	subs	r1, #1
     35a:	5c09      	ldrb	r1, [r1, r0]
     35c:	0049      	lsls	r1, r1, #1
     35e:	448e      	add	lr, r1
     360:	4661      	mov	r1, ip
     362:	4770      	bx	lr

00000364 <sark_aplx>:
     364:	b5f2      	push	{r1, r4, r5, r6, r7, lr}
     366:	4905      	ldr	r1, [pc, #20]	@ (37c <aplx_buffer>)
     368:	a605      	add	r6, pc, #20	@ (adr r6, 380 <aplx_loader>)
     36a:	2740      	movs	r7, #64	@ 0x40

0000036c <aplx_l0>:
     36c:	ce3c      	ldmia	r6!, {r2, r3, r4, r5}
     36e:	c13c      	stmia	r1!, {r2, r3, r4, r5}
     370:	3f10      	subs	r7, #16
     372:	d1fb      	bne.n	36c <aplx_l0>
     374:	1c04      	adds	r4, r0, #0
     376:	393f      	subs	r1, #63	@ 0x3f
     378:	4708      	bx	r1
	...

0000037c <aplx_buffer>:
     37c:	00007fc0 	.word	0x00007fc0

00000380 <aplx_loader>:
     380:	cc0f      	ldmia	r4!, {r0, r1, r2, r3}
     382:	2801      	cmp	r0, #1
     384:	d008      	beq.n	398 <aplx_copy>
     386:	2802      	cmp	r0, #2
     388:	d004      	beq.n	394 <aplx_rcopy>
     38a:	2803      	cmp	r0, #3
     38c:	d00b      	beq.n	3a6 <aplx_fill>
     38e:	2804      	cmp	r0, #4
     390:	d011      	beq.n	3b6 <aplx_exec>
     392:	bdf2      	pop	{r1, r4, r5, r6, r7, pc}

00000394 <aplx_rcopy>:
     394:	1912      	adds	r2, r2, r4
     396:	3a10      	subs	r2, #16

00000398 <aplx_copy>:
     398:	cae1      	ldmia	r2!, {r0, r5, r6, r7}
     39a:	c1e1      	stmia	r1!, {r0, r5, r6, r7}
     39c:	cae1      	ldmia	r2!, {r0, r5, r6, r7}
     39e:	c1e1      	stmia	r1!, {r0, r5, r6, r7}
     3a0:	3b20      	subs	r3, #32
     3a2:	d8f9      	bhi.n	398 <aplx_copy>
     3a4:	e7ec      	b.n	380 <aplx_loader>

000003a6 <aplx_fill>:
     3a6:	1c1d      	adds	r5, r3, #0
     3a8:	1c1e      	adds	r6, r3, #0
     3aa:	1c1f      	adds	r7, r3, #0

000003ac <aplx_l1>:
     3ac:	c1e8      	stmia	r1!, {r3, r5, r6, r7}
     3ae:	c1e8      	stmia	r1!, {r3, r5, r6, r7}
     3b0:	3a20      	subs	r2, #32
     3b2:	d8fb      	bhi.n	3ac <aplx_l1>
     3b4:	e7e4      	b.n	380 <aplx_loader>

000003b6 <aplx_exec>:
     3b6:	9800      	ldr	r0, [sp, #0]
     3b8:	4788      	blx	r1
     3ba:	e7e1      	b.n	380 <aplx_loader>

000003bc <spin1_set_timer_tick>:
     3bc:	e92d4800 	push	{fp, lr}
     3c0:	e28db004 	add	fp, sp, #4
     3c4:	e24dd008 	sub	sp, sp, #8
     3c8:	e50b0008 	str	r0, [fp, #-8]
     3cc:	e3a01000 	mov	r1, #0
     3d0:	e51b0008 	ldr	r0, [fp, #-8]
     3d4:	fa0011ce 	blx	4b14 <spin1_set_timer_tick_and_phase>
     3d8:	e1a00000 	nop			@ (mov r0, r0)
     3dc:	e24bd004 	sub	sp, fp, #4
     3e0:	e8bd8800 	pop	{fp, pc}

000003e4 <spin1_send_mc_packet>:
     3e4:	e92d4800 	push	{fp, lr}
     3e8:	e28db004 	add	fp, sp, #4
     3ec:	e24dd018 	sub	sp, sp, #24
     3f0:	e50b0010 	str	r0, [fp, #-16]
     3f4:	e50b1014 	str	r1, [fp, #-20]	@ 0xffffffec
     3f8:	e50b2018 	str	r2, [fp, #-24]	@ 0xffffffe8
     3fc:	e51b3018 	ldr	r3, [fp, #-24]	@ 0xffffffe8
     400:	e3530000 	cmp	r3, #0
     404:	0a000001 	beq	410 <MC_TABLE_SIZE+0x10>
     408:	e3a03802 	mov	r3, #131072	@ 0x20000
     40c:	ea000000 	b	414 <MC_TABLE_SIZE+0x14>
     410:	e3a03000 	mov	r3, #0
     414:	e50b3008 	str	r3, [fp, #-8]
     418:	e51b2008 	ldr	r2, [fp, #-8]
     41c:	e51b1014 	ldr	r1, [fp, #-20]	@ 0xffffffec
     420:	e51b0010 	ldr	r0, [fp, #-16]
     424:	fa0011c2 	blx	4b34 <spin1_send_packet>
     428:	e1a03000 	mov	r3, r0
     42c:	e1a00003 	mov	r0, r3
     430:	e24bd004 	sub	sp, fp, #4
     434:	e8bd8800 	pop	{fp, pc}

00000438 <timer_callback>:
     438:	e92d4800 	push	{fp, lr}
     43c:	e28db004 	add	fp, sp, #4
     440:	e24dd008 	sub	sp, sp, #8
     444:	e50b0008 	str	r0, [fp, #-8]
     448:	e50b100c 	str	r1, [fp, #-12]
     44c:	e59f2064 	ldr	r2, [pc, #100]	@ 4b8 <timer_callback+0x80>
     450:	e51b3008 	ldr	r3, [fp, #-8]
     454:	e5823000 	str	r3, [r2]
     458:	e59f3058 	ldr	r3, [pc, #88]	@ 4b8 <timer_callback+0x80>
     45c:	e5933000 	ldr	r3, [r3]
     460:	e1a00003 	mov	r0, r3
     464:	eb000134 	bl	93c <neuron_update_all>
     468:	e59f304c 	ldr	r3, [pc, #76]	@ 4bc <timer_callback+0x84>
     46c:	e5933000 	ldr	r3, [r3]
     470:	e3530000 	cmp	r3, #0
     474:	0a00000a 	beq	4a4 <timer_callback+0x6c>
     478:	e59f303c 	ldr	r3, [pc, #60]	@ 4bc <timer_callback+0x84>
     47c:	e5933000 	ldr	r3, [r3]
     480:	e1a00003 	mov	r0, r3
     484:	eb000465 	bl	1620 <synapse_modulate_all>
     488:	e59f302c 	ldr	r3, [pc, #44]	@ 4bc <timer_callback+0x84>
     48c:	e5933000 	ldr	r3, [r3]
     490:	e1a00003 	mov	r0, r3
     494:	eb000794 	bl	22ec <cra_state_record_reward>
     498:	e59f301c 	ldr	r3, [pc, #28]	@ 4bc <timer_callback+0x84>
     49c:	e3a02000 	mov	r2, #0
     4a0:	e5832000 	str	r2, [r3]
     4a4:	e59f0014 	ldr	r0, [pc, #20]	@ 4c0 <timer_callback+0x88>
     4a8:	eb000419 	bl	1514 <synapse_decay_traces_all>
     4ac:	e1a00000 	nop			@ (mov r0, r0)
     4b0:	e24bd004 	sub	sp, fp, #4
     4b4:	e8bd8800 	pop	{fp, pc}
     4b8:	00400010 	.word	0x00400010
     4bc:	00400014 	.word	0x00400014
     4c0:	00007f5c 	.word	0x00007f5c

000004c4 <mc_packet_callback>:
     4c4:	e92d4800 	push	{fp, lr}
     4c8:	e28db004 	add	fp, sp, #4
     4cc:	e24dd010 	sub	sp, sp, #16
     4d0:	e50b0010 	str	r0, [fp, #-16]
     4d4:	e50b1014 	str	r1, [fp, #-20]	@ 0xffffffec
     4d8:	e51b3010 	ldr	r3, [fp, #-16]
     4dc:	e1a03c23 	lsr	r3, r3, #24
     4e0:	e50b3008 	str	r3, [fp, #-8]
     4e4:	e59f3030 	ldr	r3, [pc, #48]	@ 51c <mc_packet_callback+0x58>
     4e8:	e5933000 	ldr	r3, [r3]
     4ec:	e51b2008 	ldr	r2, [fp, #-8]
     4f0:	e1520003 	cmp	r2, r3
     4f4:	1a000005 	bne	510 <mc_packet_callback+0x4c>
     4f8:	e51b3010 	ldr	r3, [fp, #-16]
     4fc:	e3c334ff 	bic	r3, r3, #-16777216	@ 0xff000000
     500:	e50b300c 	str	r3, [fp, #-12]
     504:	e51b000c 	ldr	r0, [fp, #-12]
     508:	eb0003cb 	bl	143c <synapse_deliver_spike>
     50c:	ea000000 	b	514 <mc_packet_callback+0x50>
     510:	e1a00000 	nop			@ (mov r0, r0)
     514:	e24bd004 	sub	sp, fp, #4
     518:	e8bd8800 	pop	{fp, pc}
     51c:	00400000 	.word	0x00400000

00000520 <sdp_callback>:
     520:	e92d4800 	push	{fp, lr}
     524:	e28db004 	add	fp, sp, #4
     528:	e24dd008 	sub	sp, sp, #8
     52c:	e50b0008 	str	r0, [fp, #-8]
     530:	e50b100c 	str	r1, [fp, #-12]
     534:	e51b100c 	ldr	r1, [fp, #-12]
     538:	e51b0008 	ldr	r0, [fp, #-8]
     53c:	eb0009e6 	bl	2cdc <sdp_rx_callback>
     540:	e1a00000 	nop			@ (mov r0, r0)
     544:	e24bd004 	sub	sp, fp, #4
     548:	e8bd8800 	pop	{fp, pc}

0000054c <get_app_id>:
     54c:	e52db004 	push	{fp}		@ (str fp, [sp, #-4]!)
     550:	e28db000 	add	fp, sp, #0
     554:	e59f3010 	ldr	r3, [pc, #16]	@ 56c <get_app_id+0x20>
     558:	e5933000 	ldr	r3, [r3]
     55c:	e1a00003 	mov	r0, r3
     560:	e28bd000 	add	sp, fp, #0
     564:	e49db004 	pop	{fp}		@ (ldr fp, [sp], #4)
     568:	e12fff1e 	bx	lr
     56c:	00400000 	.word	0x00400000

00000570 <emit_spike>:
     570:	e92d4800 	push	{fp, lr}
     574:	e28db004 	add	fp, sp, #4
     578:	e24dd010 	sub	sp, sp, #16
     57c:	e50b0010 	str	r0, [fp, #-16]
     580:	e59f3038 	ldr	r3, [pc, #56]	@ 5c0 <SPARE_SIZE+0x20>
     584:	e5933000 	ldr	r3, [r3]
     588:	e1a02c03 	lsl	r2, r3, #24
     58c:	e51b3010 	ldr	r3, [fp, #-16]
     590:	e3c334ff 	bic	r3, r3, #-16777216	@ 0xff000000
     594:	e1823003 	orr	r3, r2, r3
     598:	e50b3008 	str	r3, [fp, #-8]
     59c:	e59f3020 	ldr	r3, [pc, #32]	@ 5c4 <SPARE_SIZE+0x24>
     5a0:	e5933000 	ldr	r3, [r3]
     5a4:	e3a02001 	mov	r2, #1
     5a8:	e1a01003 	mov	r1, r3
     5ac:	e51b0008 	ldr	r0, [fp, #-8]
     5b0:	ebffff8b 	bl	3e4 <spin1_send_mc_packet>
     5b4:	e1a00000 	nop			@ (mov r0, r0)
     5b8:	e24bd004 	sub	sp, fp, #4
     5bc:	e8bd8800 	pop	{fp, pc}
     5c0:	00400000 	.word	0x00400000
     5c4:	00400010 	.word	0x00400010

000005c8 <c_main>:
     5c8:	e92d4800 	push	{fp, lr}
     5cc:	e28db004 	add	fp, sp, #4
     5d0:	e3a00007 	mov	r0, #7
     5d4:	fa000be5 	blx	3570 <sark_cpu_state>
     5d8:	eb00001b 	bl	64c <neuron_mgr_init>
     5dc:	eb000645 	bl	1ef8 <cra_state_init>
     5e0:	eb000b21 	bl	326c <router_init>
     5e4:	eb0009b6 	bl	2cc4 <host_if_init>
     5e8:	e3a00ffa 	mov	r0, #1000	@ 0x3e8
     5ec:	ebffff72 	bl	3bc <spin1_set_timer_tick>
     5f0:	e3a02001 	mov	r2, #1
     5f4:	e59f1044 	ldr	r1, [pc, #68]	@ 640 <ETH_TX_SIZE+0x40>
     5f8:	e3a00002 	mov	r0, #2
     5fc:	fa001115 	blx	4a58 <spin1_callback_on>
     600:	e3a02000 	mov	r2, #0
     604:	e59f1038 	ldr	r1, [pc, #56]	@ 644 <ETH_TX_SIZE+0x44>
     608:	e3a00000 	mov	r0, #0
     60c:	fa001111 	blx	4a58 <spin1_callback_on>
     610:	e3a02000 	mov	r2, #0
     614:	e59f1028 	ldr	r1, [pc, #40]	@ 644 <ETH_TX_SIZE+0x44>
     618:	e3a00005 	mov	r0, #5
     61c:	fa00110d 	blx	4a58 <spin1_callback_on>
     620:	e3a02000 	mov	r2, #0
     624:	e59f101c 	ldr	r1, [pc, #28]	@ 648 <ETH_TX_SIZE+0x48>
     628:	e3a00003 	mov	r0, #3
     62c:	fa001109 	blx	4a58 <spin1_callback_on>
     630:	e3a00000 	mov	r0, #0
     634:	fa00113b 	blx	4b28 <spin1_start>
     638:	e1a00000 	nop			@ (mov r0, r0)
     63c:	e8bd8800 	pop	{fp, pc}
     640:	00000438 	.word	0x00000438
     644:	000004c4 	.word	0x000004c4
     648:	00000520 	.word	0x00000520

0000064c <neuron_mgr_init>:
     64c:	e92d4800 	push	{fp, lr}
     650:	e28db004 	add	fp, sp, #4
     654:	e59f3028 	ldr	r3, [pc, #40]	@ 684 <neuron_mgr_init+0x38>
     658:	e3a02000 	mov	r2, #0
     65c:	e5832000 	str	r2, [r3]
     660:	e59f3020 	ldr	r3, [pc, #32]	@ 688 <neuron_mgr_init+0x3c>
     664:	e3a02000 	mov	r2, #0
     668:	e5832000 	str	r2, [r3]
     66c:	ebffffb6 	bl	54c <get_app_id>
     670:	e1a03000 	mov	r3, r0
     674:	e59f2010 	ldr	r2, [pc, #16]	@ 68c <neuron_mgr_init+0x40>
     678:	e5823000 	str	r3, [r2]
     67c:	e1a00000 	nop			@ (mov r0, r0)
     680:	e8bd8800 	pop	{fp, pc}
     684:	00400018 	.word	0x00400018
     688:	0040001c 	.word	0x0040001c
     68c:	00400020 	.word	0x00400020

00000690 <neuron_birth>:
     690:	e92d4800 	push	{fp, lr}
     694:	e28db004 	add	fp, sp, #4
     698:	e24dd010 	sub	sp, sp, #16
     69c:	e50b0010 	str	r0, [fp, #-16]
     6a0:	e59f3110 	ldr	r3, [pc, #272]	@ 7b8 <neuron_birth+0x128>
     6a4:	e5933000 	ldr	r3, [r3]
     6a8:	e3530b01 	cmp	r3, #1024	@ 0x400
     6ac:	3a000001 	bcc	6b8 <neuron_birth+0x28>
     6b0:	e3a03000 	mov	r3, #0
     6b4:	ea00003c 	b	7ac <neuron_birth+0x11c>
     6b8:	e3a01034 	mov	r1, #52	@ 0x34
     6bc:	e3a00001 	mov	r0, #1
     6c0:	fa000de9 	blx	3e6c <sark_alloc>
     6c4:	e1a03000 	mov	r3, r0
     6c8:	e50b3008 	str	r3, [fp, #-8]
     6cc:	e51b3008 	ldr	r3, [fp, #-8]
     6d0:	e3530000 	cmp	r3, #0
     6d4:	1a000001 	bne	6e0 <neuron_birth+0x50>
     6d8:	e3a03000 	mov	r3, #0
     6dc:	ea000032 	b	7ac <neuron_birth+0x11c>
     6e0:	e51b3008 	ldr	r3, [fp, #-8]
     6e4:	e51b2010 	ldr	r2, [fp, #-16]
     6e8:	e5832000 	str	r2, [r3]
     6ec:	e51b3008 	ldr	r3, [fp, #-8]
     6f0:	e59f20c4 	ldr	r2, [pc, #196]	@ 7bc <neuron_birth+0x12c>
     6f4:	e5832004 	str	r2, [r3, #4]
     6f8:	e51b3008 	ldr	r3, [fp, #-8]
     6fc:	e59f20bc 	ldr	r2, [pc, #188]	@ 7c0 <neuron_birth+0x130>
     700:	e5832008 	str	r2, [r3, #8]
     704:	e51b3008 	ldr	r3, [fp, #-8]
     708:	e59f20b4 	ldr	r2, [pc, #180]	@ 7c4 <neuron_birth+0x134>
     70c:	e583200c 	str	r2, [r3, #12]
     710:	e51b3008 	ldr	r3, [fp, #-8]
     714:	e59f20a0 	ldr	r2, [pc, #160]	@ 7bc <neuron_birth+0x12c>
     718:	e5832010 	str	r2, [r3, #16]
     71c:	e51b3008 	ldr	r3, [fp, #-8]
     720:	e3a02000 	mov	r2, #0
     724:	e5832014 	str	r2, [r3, #20]
     728:	e51b3008 	ldr	r3, [fp, #-8]
     72c:	e3a0280a 	mov	r2, #655360	@ 0xa0000
     730:	e5832018 	str	r2, [r3, #24]
     734:	e51b3008 	ldr	r3, [fp, #-8]
     738:	e3a02002 	mov	r2, #2
     73c:	e583201c 	str	r2, [r3, #28]
     740:	e51b3008 	ldr	r3, [fp, #-8]
     744:	e3a02000 	mov	r2, #0
     748:	e5832020 	str	r2, [r3, #32]
     74c:	e51b3008 	ldr	r3, [fp, #-8]
     750:	e3a02000 	mov	r2, #0
     754:	e5832024 	str	r2, [r3, #36]	@ 0x24
     758:	e51b3008 	ldr	r3, [fp, #-8]
     75c:	e3a02000 	mov	r2, #0
     760:	e5832028 	str	r2, [r3, #40]	@ 0x28
     764:	e51b3008 	ldr	r3, [fp, #-8]
     768:	e3a02000 	mov	r2, #0
     76c:	e583202c 	str	r2, [r3, #44]	@ 0x2c
     770:	e59f3050 	ldr	r3, [pc, #80]	@ 7c8 <neuron_birth+0x138>
     774:	e5932000 	ldr	r2, [r3]
     778:	e51b3008 	ldr	r3, [fp, #-8]
     77c:	e5832030 	str	r2, [r3, #48]	@ 0x30
     780:	e59f2040 	ldr	r2, [pc, #64]	@ 7c8 <neuron_birth+0x138>
     784:	e51b3008 	ldr	r3, [fp, #-8]
     788:	e5823000 	str	r3, [r2]
     78c:	e59f3024 	ldr	r3, [pc, #36]	@ 7b8 <neuron_birth+0x128>
     790:	e5933000 	ldr	r3, [r3]
     794:	e2833001 	add	r3, r3, #1
     798:	e59f2018 	ldr	r2, [pc, #24]	@ 7b8 <neuron_birth+0x128>
     79c:	e5823000 	str	r3, [r2]
     7a0:	e51b0010 	ldr	r0, [fp, #-16]
     7a4:	eb000ac1 	bl	32b0 <router_add_neuron>
     7a8:	e51b3008 	ldr	r3, [fp, #-8]
     7ac:	e1a00003 	mov	r0, r3
     7b0:	e24bd004 	sub	sp, fp, #4
     7b4:	e8bd8800 	pop	{fp, pc}
     7b8:	0040001c 	.word	0x0040001c
     7bc:	ffdf8000 	.word	0xffdf8000
     7c0:	ffe48000 	.word	0xffe48000
     7c4:	ffdd0000 	.word	0xffdd0000
     7c8:	00400018 	.word	0x00400018

000007cc <neuron_death>:
     7cc:	e92d4800 	push	{fp, lr}
     7d0:	e28db004 	add	fp, sp, #4
     7d4:	e24dd010 	sub	sp, sp, #16
     7d8:	e50b0010 	str	r0, [fp, #-16]
     7dc:	e59f3094 	ldr	r3, [pc, #148]	@ 878 <STACK_SIZE+0x78>
     7e0:	e50b3008 	str	r3, [fp, #-8]
     7e4:	ea00001b 	b	858 <STACK_SIZE+0x58>
     7e8:	e51b3008 	ldr	r3, [fp, #-8]
     7ec:	e5933000 	ldr	r3, [r3]
     7f0:	e50b300c 	str	r3, [fp, #-12]
     7f4:	e51b300c 	ldr	r3, [fp, #-12]
     7f8:	e5933000 	ldr	r3, [r3]
     7fc:	e51b2010 	ldr	r2, [fp, #-16]
     800:	e1520003 	cmp	r2, r3
     804:	1a000010 	bne	84c <STACK_SIZE+0x4c>
     808:	e51b300c 	ldr	r3, [fp, #-12]
     80c:	e5932030 	ldr	r2, [r3, #48]	@ 0x30
     810:	e51b3008 	ldr	r3, [fp, #-8]
     814:	e5832000 	str	r2, [r3]
     818:	e51b0010 	ldr	r0, [fp, #-16]
     81c:	eb0003aa 	bl	16cc <synapse_remove_incident>
     820:	e51b0010 	ldr	r0, [fp, #-16]
     824:	eb000af6 	bl	3404 <router_remove_neuron>
     828:	e51b000c 	ldr	r0, [fp, #-12]
     82c:	fa000dbd 	blx	3f28 <sark_free>
     830:	e59f3044 	ldr	r3, [pc, #68]	@ 87c <STACK_SIZE+0x7c>
     834:	e5933000 	ldr	r3, [r3]
     838:	e2433001 	sub	r3, r3, #1
     83c:	e59f2038 	ldr	r2, [pc, #56]	@ 87c <STACK_SIZE+0x7c>
     840:	e5823000 	str	r3, [r2]
     844:	e3a03000 	mov	r3, #0
     848:	ea000007 	b	86c <STACK_SIZE+0x6c>
     84c:	e51b300c 	ldr	r3, [fp, #-12]
     850:	e2833030 	add	r3, r3, #48	@ 0x30
     854:	e50b3008 	str	r3, [fp, #-8]
     858:	e51b3008 	ldr	r3, [fp, #-8]
     85c:	e5933000 	ldr	r3, [r3]
     860:	e3530000 	cmp	r3, #0
     864:	1affffdf 	bne	7e8 <neuron_death+0x1c>
     868:	e3e03000 	mvn	r3, #0
     86c:	e1a00003 	mov	r0, r3
     870:	e24bd004 	sub	sp, fp, #4
     874:	e8bd8800 	pop	{fp, pc}
     878:	00400018 	.word	0x00400018
     87c:	0040001c 	.word	0x0040001c

00000880 <neuron_find>:
     880:	e52db004 	push	{fp}		@ (str fp, [sp, #-4]!)
     884:	e28db000 	add	fp, sp, #0
     888:	e24dd014 	sub	sp, sp, #20
     88c:	e50b0010 	str	r0, [fp, #-16]
     890:	e59f3050 	ldr	r3, [pc, #80]	@ 8e8 <neuron_find+0x68>
     894:	e5933000 	ldr	r3, [r3]
     898:	e50b3008 	str	r3, [fp, #-8]
     89c:	ea000009 	b	8c8 <neuron_find+0x48>
     8a0:	e51b3008 	ldr	r3, [fp, #-8]
     8a4:	e5933000 	ldr	r3, [r3]
     8a8:	e51b2010 	ldr	r2, [fp, #-16]
     8ac:	e1520003 	cmp	r2, r3
     8b0:	1a000001 	bne	8bc <neuron_find+0x3c>
     8b4:	e51b3008 	ldr	r3, [fp, #-8]
     8b8:	ea000006 	b	8d8 <neuron_find+0x58>
     8bc:	e51b3008 	ldr	r3, [fp, #-8]
     8c0:	e5933030 	ldr	r3, [r3, #48]	@ 0x30
     8c4:	e50b3008 	str	r3, [fp, #-8]
     8c8:	e51b3008 	ldr	r3, [fp, #-8]
     8cc:	e3530000 	cmp	r3, #0
     8d0:	1afffff2 	bne	8a0 <neuron_find+0x20>
     8d4:	e3a03000 	mov	r3, #0
     8d8:	e1a00003 	mov	r0, r3
     8dc:	e28bd000 	add	sp, fp, #0
     8e0:	e49db004 	pop	{fp}		@ (ldr fp, [sp], #4)
     8e4:	e12fff1e 	bx	lr
     8e8:	00400018 	.word	0x00400018

000008ec <neuron_add_input>:
     8ec:	e92d4800 	push	{fp, lr}
     8f0:	e28db004 	add	fp, sp, #4
     8f4:	e24dd010 	sub	sp, sp, #16
     8f8:	e50b0010 	str	r0, [fp, #-16]
     8fc:	e50b1014 	str	r1, [fp, #-20]	@ 0xffffffec
     900:	e51b0010 	ldr	r0, [fp, #-16]
     904:	ebffffdd 	bl	880 <neuron_find>
     908:	e50b0008 	str	r0, [fp, #-8]
     90c:	e51b3008 	ldr	r3, [fp, #-8]
     910:	e3530000 	cmp	r3, #0
     914:	0a000005 	beq	930 <neuron_add_input+0x44>
     918:	e51b3008 	ldr	r3, [fp, #-8]
     91c:	e5932024 	ldr	r2, [r3, #36]	@ 0x24
     920:	e51b3014 	ldr	r3, [fp, #-20]	@ 0xffffffec
     924:	e0822003 	add	r2, r2, r3
     928:	e51b3008 	ldr	r3, [fp, #-8]
     92c:	e5832024 	str	r2, [r3, #36]	@ 0x24
     930:	e1a00000 	nop			@ (mov r0, r0)
     934:	e24bd004 	sub	sp, fp, #4
     938:	e8bd8800 	pop	{fp, pc}

0000093c <neuron_update_all>:
     93c:	e92d4800 	push	{fp, lr}
     940:	e28db004 	add	fp, sp, #4
     944:	e24dd010 	sub	sp, sp, #16
     948:	e50b0010 	str	r0, [fp, #-16]
     94c:	e59f3140 	ldr	r3, [pc, #320]	@ a94 <neuron_update_all+0x158>
     950:	e5933000 	ldr	r3, [r3]
     954:	e50b3008 	str	r3, [fp, #-8]
     958:	ea000046 	b	a78 <neuron_update_all+0x13c>
     95c:	e51b3008 	ldr	r3, [fp, #-8]
     960:	e5933020 	ldr	r3, [r3, #32]
     964:	e3530000 	cmp	r3, #0
     968:	0a000009 	beq	994 <neuron_update_all+0x58>
     96c:	e51b3008 	ldr	r3, [fp, #-8]
     970:	e5933020 	ldr	r3, [r3, #32]
     974:	e2432001 	sub	r2, r3, #1
     978:	e51b3008 	ldr	r3, [fp, #-8]
     97c:	e5832020 	str	r2, [r3, #32]
     980:	e51b3008 	ldr	r3, [fp, #-8]
     984:	e593200c 	ldr	r2, [r3, #12]
     988:	e51b3008 	ldr	r3, [fp, #-8]
     98c:	e5832004 	str	r2, [r3, #4]
     990:	ea000032 	b	a60 <neuron_update_all+0x124>
     994:	e51b3008 	ldr	r3, [fp, #-8]
     998:	e5932010 	ldr	r2, [r3, #16]
     99c:	e51b3008 	ldr	r3, [fp, #-8]
     9a0:	e5933004 	ldr	r3, [r3, #4]
     9a4:	e0423003 	sub	r3, r2, r3
     9a8:	e1a02783 	lsl	r2, r3, #15
     9ac:	e51b3008 	ldr	r3, [fp, #-8]
     9b0:	e5933018 	ldr	r3, [r3, #24]
     9b4:	e1a01003 	mov	r1, r3
     9b8:	e1a00002 	mov	r0, r2
     9bc:	eb001223 	bl	5250 <__divsi3>
     9c0:	e1a03000 	mov	r3, r0
     9c4:	e50b300c 	str	r3, [fp, #-12]
     9c8:	e51b3008 	ldr	r3, [fp, #-8]
     9cc:	e5932004 	ldr	r2, [r3, #4]
     9d0:	e51b3008 	ldr	r3, [fp, #-8]
     9d4:	e5931014 	ldr	r1, [r3, #20]
     9d8:	e51b300c 	ldr	r3, [fp, #-12]
     9dc:	e0811003 	add	r1, r1, r3
     9e0:	e51b3008 	ldr	r3, [fp, #-8]
     9e4:	e5933024 	ldr	r3, [r3, #36]	@ 0x24
     9e8:	e0813003 	add	r3, r1, r3
     9ec:	e0822003 	add	r2, r2, r3
     9f0:	e51b3008 	ldr	r3, [fp, #-8]
     9f4:	e5832004 	str	r2, [r3, #4]
     9f8:	e51b3008 	ldr	r3, [fp, #-8]
     9fc:	e5932004 	ldr	r2, [r3, #4]
     a00:	e51b3008 	ldr	r3, [fp, #-8]
     a04:	e5933008 	ldr	r3, [r3, #8]
     a08:	e1520003 	cmp	r2, r3
     a0c:	ba000013 	blt	a60 <neuron_update_all+0x124>
     a10:	e51b3008 	ldr	r3, [fp, #-8]
     a14:	e593200c 	ldr	r2, [r3, #12]
     a18:	e51b3008 	ldr	r3, [fp, #-8]
     a1c:	e5832004 	str	r2, [r3, #4]
     a20:	e51b3008 	ldr	r3, [fp, #-8]
     a24:	e593201c 	ldr	r2, [r3, #28]
     a28:	e51b3008 	ldr	r3, [fp, #-8]
     a2c:	e5832020 	str	r2, [r3, #32]
     a30:	e51b3008 	ldr	r3, [fp, #-8]
     a34:	e5933028 	ldr	r3, [r3, #40]	@ 0x28
     a38:	e2832001 	add	r2, r3, #1
     a3c:	e51b3008 	ldr	r3, [fp, #-8]
     a40:	e5832028 	str	r2, [r3, #40]	@ 0x28
     a44:	e51b3008 	ldr	r3, [fp, #-8]
     a48:	e51b2010 	ldr	r2, [fp, #-16]
     a4c:	e583202c 	str	r2, [r3, #44]	@ 0x2c
     a50:	e51b3008 	ldr	r3, [fp, #-8]
     a54:	e5933000 	ldr	r3, [r3]
     a58:	e1a00003 	mov	r0, r3
     a5c:	ebfffec3 	bl	570 <emit_spike>
     a60:	e51b3008 	ldr	r3, [fp, #-8]
     a64:	e3a02000 	mov	r2, #0
     a68:	e5832024 	str	r2, [r3, #36]	@ 0x24
     a6c:	e51b3008 	ldr	r3, [fp, #-8]
     a70:	e5933030 	ldr	r3, [r3, #48]	@ 0x30
     a74:	e50b3008 	str	r3, [fp, #-8]
     a78:	e51b3008 	ldr	r3, [fp, #-8]
     a7c:	e3530000 	cmp	r3, #0
     a80:	1affffb5 	bne	95c <neuron_update_all+0x20>
     a84:	e1a00000 	nop			@ (mov r0, r0)
     a88:	e1a00000 	nop			@ (mov r0, r0)
     a8c:	e24bd004 	sub	sp, fp, #4
     a90:	e8bd8800 	pop	{fp, pc}
     a94:	00400018 	.word	0x00400018

00000a98 <neuron_count>:
     a98:	e52db004 	push	{fp}		@ (str fp, [sp, #-4]!)
     a9c:	e28db000 	add	fp, sp, #0
     aa0:	e59f3010 	ldr	r3, [pc, #16]	@ ab8 <neuron_count+0x20>
     aa4:	e5933000 	ldr	r3, [r3]
     aa8:	e1a00003 	mov	r0, r3
     aac:	e28bd000 	add	sp, fp, #0
     ab0:	e49db004 	pop	{fp}		@ (ldr fp, [sp], #4)
     ab4:	e12fff1e 	bx	lr
     ab8:	0040001c 	.word	0x0040001c

00000abc <neuron_list_head>:
     abc:	e52db004 	push	{fp}		@ (str fp, [sp, #-4]!)
     ac0:	e28db000 	add	fp, sp, #0
     ac4:	e59f3010 	ldr	r3, [pc, #16]	@ adc <neuron_list_head+0x20>
     ac8:	e5933000 	ldr	r3, [r3]
     acc:	e1a00003 	mov	r0, r3
     ad0:	e28bd000 	add	sp, fp, #0
     ad4:	e49db004 	pop	{fp}		@ (ldr fp, [sp], #4)
     ad8:	e12fff1e 	bx	lr
     adc:	00400018 	.word	0x00400018

00000ae0 <neuron_reset_all>:
     ae0:	e92d4800 	push	{fp, lr}
     ae4:	e28db004 	add	fp, sp, #4
     ae8:	e24dd008 	sub	sp, sp, #8
     aec:	eb000a72 	bl	34bc <router_reset_all>
     af0:	ea000008 	b	b18 <neuron_reset_all+0x38>
     af4:	e59f3044 	ldr	r3, [pc, #68]	@ b40 <neuron_reset_all+0x60>
     af8:	e5933000 	ldr	r3, [r3]
     afc:	e50b3008 	str	r3, [fp, #-8]
     b00:	e51b3008 	ldr	r3, [fp, #-8]
     b04:	e5933030 	ldr	r3, [r3, #48]	@ 0x30
     b08:	e59f2030 	ldr	r2, [pc, #48]	@ b40 <neuron_reset_all+0x60>
     b0c:	e5823000 	str	r3, [r2]
     b10:	e51b0008 	ldr	r0, [fp, #-8]
     b14:	fa000d03 	blx	3f28 <sark_free>
     b18:	e59f3020 	ldr	r3, [pc, #32]	@ b40 <neuron_reset_all+0x60>
     b1c:	e5933000 	ldr	r3, [r3]
     b20:	e3530000 	cmp	r3, #0
     b24:	1afffff2 	bne	af4 <neuron_reset_all+0x14>
     b28:	e59f3014 	ldr	r3, [pc, #20]	@ b44 <neuron_reset_all+0x64>
     b2c:	e3a02000 	mov	r2, #0
     b30:	e5832000 	str	r2, [r3]
     b34:	e1a00000 	nop			@ (mov r0, r0)
     b38:	e24bd004 	sub	sp, fp, #4
     b3c:	e8bd8800 	pop	{fp, pc}
     b40:	00400018 	.word	0x00400018
     b44:	0040001c 	.word	0x0040001c

00000b48 <_find_post>:
     b48:	e52db004 	push	{fp}		@ (str fp, [sp, #-4]!)
     b4c:	e28db000 	add	fp, sp, #0
     b50:	e24dd014 	sub	sp, sp, #20
     b54:	e50b0010 	str	r0, [fp, #-16]
     b58:	e59f3050 	ldr	r3, [pc, #80]	@ bb0 <_find_post+0x68>
     b5c:	e5933000 	ldr	r3, [r3]
     b60:	e50b3008 	str	r3, [fp, #-8]
     b64:	ea000009 	b	b90 <_find_post+0x48>
     b68:	e51b3008 	ldr	r3, [fp, #-8]
     b6c:	e5933000 	ldr	r3, [r3]
     b70:	e51b2010 	ldr	r2, [fp, #-16]
     b74:	e1520003 	cmp	r2, r3
     b78:	1a000001 	bne	b84 <_find_post+0x3c>
     b7c:	e51b3008 	ldr	r3, [fp, #-8]
     b80:	ea000006 	b	ba0 <_find_post+0x58>
     b84:	e51b3008 	ldr	r3, [fp, #-8]
     b88:	e5933008 	ldr	r3, [r3, #8]
     b8c:	e50b3008 	str	r3, [fp, #-8]
     b90:	e51b3008 	ldr	r3, [fp, #-8]
     b94:	e3530000 	cmp	r3, #0
     b98:	1afffff2 	bne	b68 <_find_post+0x20>
     b9c:	e3a03000 	mov	r3, #0
     ba0:	e1a00003 	mov	r0, r3
     ba4:	e28bd000 	add	sp, fp, #0
     ba8:	e49db004 	pop	{fp}		@ (ldr fp, [sp], #4)
     bac:	e12fff1e 	bx	lr
     bb0:	00400038 	.word	0x00400038

00000bb4 <_find_pre>:
     bb4:	e52db004 	push	{fp}		@ (str fp, [sp, #-4]!)
     bb8:	e28db000 	add	fp, sp, #0
     bbc:	e24dd014 	sub	sp, sp, #20
     bc0:	e50b0010 	str	r0, [fp, #-16]
     bc4:	e59f3050 	ldr	r3, [pc, #80]	@ c1c <ETH_RX_SIZE+0x1c>
     bc8:	e5933000 	ldr	r3, [r3]
     bcc:	e50b3008 	str	r3, [fp, #-8]
     bd0:	ea000009 	b	bfc <_find_pre+0x48>
     bd4:	e51b3008 	ldr	r3, [fp, #-8]
     bd8:	e5933000 	ldr	r3, [r3]
     bdc:	e51b2010 	ldr	r2, [fp, #-16]
     be0:	e1520003 	cmp	r2, r3
     be4:	1a000001 	bne	bf0 <_find_pre+0x3c>
     be8:	e51b3008 	ldr	r3, [fp, #-8]
     bec:	ea000006 	b	c0c <ETH_RX_SIZE+0xc>
     bf0:	e51b3008 	ldr	r3, [fp, #-8]
     bf4:	e5933008 	ldr	r3, [r3, #8]
     bf8:	e50b3008 	str	r3, [fp, #-8]
     bfc:	e51b3008 	ldr	r3, [fp, #-8]
     c00:	e3530000 	cmp	r3, #0
     c04:	1afffff2 	bne	bd4 <_find_pre+0x20>
     c08:	e3a03000 	mov	r3, #0
     c0c:	e1a00003 	mov	r0, r3
     c10:	e28bd000 	add	sp, fp, #0
     c14:	e49db004 	pop	{fp}		@ (ldr fp, [sp], #4)
     c18:	e12fff1e 	bx	lr
     c1c:	0040003c 	.word	0x0040003c

00000c20 <_find_or_create_post>:
     c20:	e92d4800 	push	{fp, lr}
     c24:	e28db004 	add	fp, sp, #4
     c28:	e24dd010 	sub	sp, sp, #16
     c2c:	e50b0010 	str	r0, [fp, #-16]
     c30:	e51b0010 	ldr	r0, [fp, #-16]
     c34:	ebffffc3 	bl	b48 <_find_post>
     c38:	e50b0008 	str	r0, [fp, #-8]
     c3c:	e51b3008 	ldr	r3, [fp, #-8]
     c40:	e3530000 	cmp	r3, #0
     c44:	0a000001 	beq	c50 <_find_or_create_post+0x30>
     c48:	e51b3008 	ldr	r3, [fp, #-8]
     c4c:	ea000017 	b	cb0 <_find_or_create_post+0x90>
     c50:	e3a0100c 	mov	r1, #12
     c54:	e3a00001 	mov	r0, #1
     c58:	fa000c83 	blx	3e6c <sark_alloc>
     c5c:	e1a03000 	mov	r3, r0
     c60:	e50b3008 	str	r3, [fp, #-8]
     c64:	e51b3008 	ldr	r3, [fp, #-8]
     c68:	e3530000 	cmp	r3, #0
     c6c:	1a000001 	bne	c78 <_find_or_create_post+0x58>
     c70:	e3a03000 	mov	r3, #0
     c74:	ea00000d 	b	cb0 <_find_or_create_post+0x90>
     c78:	e51b3008 	ldr	r3, [fp, #-8]
     c7c:	e51b2010 	ldr	r2, [fp, #-16]
     c80:	e5832000 	str	r2, [r3]
     c84:	e51b3008 	ldr	r3, [fp, #-8]
     c88:	e3a02000 	mov	r2, #0
     c8c:	e5832004 	str	r2, [r3, #4]
     c90:	e59f3024 	ldr	r3, [pc, #36]	@ cbc <_find_or_create_post+0x9c>
     c94:	e5932000 	ldr	r2, [r3]
     c98:	e51b3008 	ldr	r3, [fp, #-8]
     c9c:	e5832008 	str	r2, [r3, #8]
     ca0:	e59f2014 	ldr	r2, [pc, #20]	@ cbc <_find_or_create_post+0x9c>
     ca4:	e51b3008 	ldr	r3, [fp, #-8]
     ca8:	e5823000 	str	r3, [r2]
     cac:	e51b3008 	ldr	r3, [fp, #-8]
     cb0:	e1a00003 	mov	r0, r3
     cb4:	e24bd004 	sub	sp, fp, #4
     cb8:	e8bd8800 	pop	{fp, pc}
     cbc:	00400038 	.word	0x00400038

00000cc0 <_find_or_create_pre>:
     cc0:	e92d4800 	push	{fp, lr}
     cc4:	e28db004 	add	fp, sp, #4
     cc8:	e24dd010 	sub	sp, sp, #16
     ccc:	e50b0010 	str	r0, [fp, #-16]
     cd0:	e51b0010 	ldr	r0, [fp, #-16]
     cd4:	ebffffb6 	bl	bb4 <_find_pre>
     cd8:	e50b0008 	str	r0, [fp, #-8]
     cdc:	e51b3008 	ldr	r3, [fp, #-8]
     ce0:	e3530000 	cmp	r3, #0
     ce4:	0a000001 	beq	cf0 <_find_or_create_pre+0x30>
     ce8:	e51b3008 	ldr	r3, [fp, #-8]
     cec:	ea000017 	b	d50 <_find_or_create_pre+0x90>
     cf0:	e3a0100c 	mov	r1, #12
     cf4:	e3a00001 	mov	r0, #1
     cf8:	fa000c5b 	blx	3e6c <sark_alloc>
     cfc:	e1a03000 	mov	r3, r0
     d00:	e50b3008 	str	r3, [fp, #-8]
     d04:	e51b3008 	ldr	r3, [fp, #-8]
     d08:	e3530000 	cmp	r3, #0
     d0c:	1a000001 	bne	d18 <_find_or_create_pre+0x58>
     d10:	e3a03000 	mov	r3, #0
     d14:	ea00000d 	b	d50 <_find_or_create_pre+0x90>
     d18:	e51b3008 	ldr	r3, [fp, #-8]
     d1c:	e51b2010 	ldr	r2, [fp, #-16]
     d20:	e5832000 	str	r2, [r3]
     d24:	e51b3008 	ldr	r3, [fp, #-8]
     d28:	e3a02000 	mov	r2, #0
     d2c:	e5832004 	str	r2, [r3, #4]
     d30:	e59f3024 	ldr	r3, [pc, #36]	@ d5c <_find_or_create_pre+0x9c>
     d34:	e5932000 	ldr	r2, [r3]
     d38:	e51b3008 	ldr	r3, [fp, #-8]
     d3c:	e5832008 	str	r2, [r3, #8]
     d40:	e59f2014 	ldr	r2, [pc, #20]	@ d5c <_find_or_create_pre+0x9c>
     d44:	e51b3008 	ldr	r3, [fp, #-8]
     d48:	e5823000 	str	r3, [r2]
     d4c:	e51b3008 	ldr	r3, [fp, #-8]
     d50:	e1a00003 	mov	r0, r3
     d54:	e24bd004 	sub	sp, fp, #4
     d58:	e8bd8800 	pop	{fp, pc}
     d5c:	0040003c 	.word	0x0040003c

00000d60 <_clip_weight>:
     d60:	e52db004 	push	{fp}		@ (str fp, [sp, #-4]!)
     d64:	e28db000 	add	fp, sp, #0
     d68:	e24dd00c 	sub	sp, sp, #12
     d6c:	e50b0008 	str	r0, [fp, #-8]
     d70:	e51b3008 	ldr	r3, [fp, #-8]
     d74:	e3530902 	cmp	r3, #32768	@ 0x8000
     d78:	da000001 	ble	d84 <_clip_weight+0x24>
     d7c:	e3a03902 	mov	r3, #32768	@ 0x8000
     d80:	ea000005 	b	d9c <_clip_weight+0x3c>
     d84:	e51b3008 	ldr	r3, [fp, #-8]
     d88:	e3730902 	cmn	r3, #32768	@ 0x8000
     d8c:	aa000001 	bge	d98 <_clip_weight+0x38>
     d90:	e59f3014 	ldr	r3, [pc, #20]	@ dac <_clip_weight+0x4c>
     d94:	ea000000 	b	d9c <_clip_weight+0x3c>
     d98:	e51b3008 	ldr	r3, [fp, #-8]
     d9c:	e1a00003 	mov	r0, r3
     da0:	e28bd000 	add	sp, fp, #0
     da4:	e49db004 	pop	{fp}		@ (ldr fp, [sp], #4)
     da8:	e12fff1e 	bx	lr
     dac:	ffff8000 	.word	0xffff8000

00000db0 <_drop_empty_post_entry>:
     db0:	e92d4800 	push	{fp, lr}
     db4:	e28db004 	add	fp, sp, #4
     db8:	e24dd010 	sub	sp, sp, #16
     dbc:	e50b0010 	str	r0, [fp, #-16]
     dc0:	e59f307c 	ldr	r3, [pc, #124]	@ e44 <_drop_empty_post_entry+0x94>
     dc4:	e50b3008 	str	r3, [fp, #-8]
     dc8:	ea000015 	b	e24 <_drop_empty_post_entry+0x74>
     dcc:	e51b3008 	ldr	r3, [fp, #-8]
     dd0:	e5933000 	ldr	r3, [r3]
     dd4:	e50b300c 	str	r3, [fp, #-12]
     dd8:	e51b300c 	ldr	r3, [fp, #-12]
     ddc:	e5933000 	ldr	r3, [r3]
     de0:	e51b2010 	ldr	r2, [fp, #-16]
     de4:	e1520003 	cmp	r2, r3
     de8:	1a00000a 	bne	e18 <_drop_empty_post_entry+0x68>
     dec:	e51b300c 	ldr	r3, [fp, #-12]
     df0:	e5933004 	ldr	r3, [r3, #4]
     df4:	e3530000 	cmp	r3, #0
     df8:	1a00000e 	bne	e38 <_drop_empty_post_entry+0x88>
     dfc:	e51b300c 	ldr	r3, [fp, #-12]
     e00:	e5932008 	ldr	r2, [r3, #8]
     e04:	e51b3008 	ldr	r3, [fp, #-8]
     e08:	e5832000 	str	r2, [r3]
     e0c:	e51b000c 	ldr	r0, [fp, #-12]
     e10:	fa000c44 	blx	3f28 <sark_free>
     e14:	ea000007 	b	e38 <_drop_empty_post_entry+0x88>
     e18:	e51b300c 	ldr	r3, [fp, #-12]
     e1c:	e2833008 	add	r3, r3, #8
     e20:	e50b3008 	str	r3, [fp, #-8]
     e24:	e51b3008 	ldr	r3, [fp, #-8]
     e28:	e5933000 	ldr	r3, [r3]
     e2c:	e3530000 	cmp	r3, #0
     e30:	1affffe5 	bne	dcc <_drop_empty_post_entry+0x1c>
     e34:	ea000000 	b	e3c <_drop_empty_post_entry+0x8c>
     e38:	e1a00000 	nop			@ (mov r0, r0)
     e3c:	e24bd004 	sub	sp, fp, #4
     e40:	e8bd8800 	pop	{fp, pc}
     e44:	00400038 	.word	0x00400038

00000e48 <_drop_empty_pre_entry>:
     e48:	e92d4800 	push	{fp, lr}
     e4c:	e28db004 	add	fp, sp, #4
     e50:	e24dd010 	sub	sp, sp, #16
     e54:	e50b0010 	str	r0, [fp, #-16]
     e58:	e59f307c 	ldr	r3, [pc, #124]	@ edc <_drop_empty_pre_entry+0x94>
     e5c:	e50b3008 	str	r3, [fp, #-8]
     e60:	ea000015 	b	ebc <_drop_empty_pre_entry+0x74>
     e64:	e51b3008 	ldr	r3, [fp, #-8]
     e68:	e5933000 	ldr	r3, [r3]
     e6c:	e50b300c 	str	r3, [fp, #-12]
     e70:	e51b300c 	ldr	r3, [fp, #-12]
     e74:	e5933000 	ldr	r3, [r3]
     e78:	e51b2010 	ldr	r2, [fp, #-16]
     e7c:	e1520003 	cmp	r2, r3
     e80:	1a00000a 	bne	eb0 <_drop_empty_pre_entry+0x68>
     e84:	e51b300c 	ldr	r3, [fp, #-12]
     e88:	e5933004 	ldr	r3, [r3, #4]
     e8c:	e3530000 	cmp	r3, #0
     e90:	1a00000e 	bne	ed0 <_drop_empty_pre_entry+0x88>
     e94:	e51b300c 	ldr	r3, [fp, #-12]
     e98:	e5932008 	ldr	r2, [r3, #8]
     e9c:	e51b3008 	ldr	r3, [fp, #-8]
     ea0:	e5832000 	str	r2, [r3]
     ea4:	e51b000c 	ldr	r0, [fp, #-12]
     ea8:	fa000c1e 	blx	3f28 <sark_free>
     eac:	ea000007 	b	ed0 <_drop_empty_pre_entry+0x88>
     eb0:	e51b300c 	ldr	r3, [fp, #-12]
     eb4:	e2833008 	add	r3, r3, #8
     eb8:	e50b3008 	str	r3, [fp, #-8]
     ebc:	e51b3008 	ldr	r3, [fp, #-8]
     ec0:	e5933000 	ldr	r3, [r3]
     ec4:	e3530000 	cmp	r3, #0
     ec8:	1affffe5 	bne	e64 <_drop_empty_pre_entry+0x1c>
     ecc:	ea000000 	b	ed4 <_drop_empty_pre_entry+0x8c>
     ed0:	e1a00000 	nop			@ (mov r0, r0)
     ed4:	e24bd004 	sub	sp, fp, #4
     ed8:	e8bd8800 	pop	{fp, pc}
     edc:	0040003c 	.word	0x0040003c

00000ee0 <_unlink_from_post>:
     ee0:	e92d4800 	push	{fp, lr}
     ee4:	e28db004 	add	fp, sp, #4
     ee8:	e24dd010 	sub	sp, sp, #16
     eec:	e50b0010 	str	r0, [fp, #-16]
     ef0:	e51b3010 	ldr	r3, [fp, #-16]
     ef4:	e5933004 	ldr	r3, [r3, #4]
     ef8:	e1a00003 	mov	r0, r3
     efc:	ebffff11 	bl	b48 <_find_post>
     f00:	e50b000c 	str	r0, [fp, #-12]
     f04:	e51b300c 	ldr	r3, [fp, #-12]
     f08:	e3530000 	cmp	r3, #0
     f0c:	0a00001d 	beq	f88 <RTR_TST2+0x84>
     f10:	e51b300c 	ldr	r3, [fp, #-12]
     f14:	e2833004 	add	r3, r3, #4
     f18:	e50b3008 	str	r3, [fp, #-8]
     f1c:	ea000014 	b	f74 <RTR_TST2+0x70>
     f20:	e51b3008 	ldr	r3, [fp, #-8]
     f24:	e5933000 	ldr	r3, [r3]
     f28:	e51b2010 	ldr	r2, [fp, #-16]
     f2c:	e1520003 	cmp	r2, r3
     f30:	1a00000b 	bne	f64 <RTR_TST2+0x60>
     f34:	e51b3010 	ldr	r3, [fp, #-16]
     f38:	e5932018 	ldr	r2, [r3, #24]
     f3c:	e51b3008 	ldr	r3, [fp, #-8]
     f40:	e5832000 	str	r2, [r3]
     f44:	e51b3010 	ldr	r3, [fp, #-16]
     f48:	e3a02000 	mov	r2, #0
     f4c:	e5832018 	str	r2, [r3, #24]
     f50:	e51b3010 	ldr	r3, [fp, #-16]
     f54:	e5933004 	ldr	r3, [r3, #4]
     f58:	e1a00003 	mov	r0, r3
     f5c:	ebffff93 	bl	db0 <_drop_empty_post_entry>
     f60:	ea000009 	b	f8c <RTR_TST2+0x88>
     f64:	e51b3008 	ldr	r3, [fp, #-8]
     f68:	e5933000 	ldr	r3, [r3]
     f6c:	e2833018 	add	r3, r3, #24
     f70:	e50b3008 	str	r3, [fp, #-8]
     f74:	e51b3008 	ldr	r3, [fp, #-8]
     f78:	e5933000 	ldr	r3, [r3]
     f7c:	e3530000 	cmp	r3, #0
     f80:	1affffe6 	bne	f20 <RTR_TST2+0x1c>
     f84:	ea000000 	b	f8c <RTR_TST2+0x88>
     f88:	e1a00000 	nop			@ (mov r0, r0)
     f8c:	e24bd004 	sub	sp, fp, #4
     f90:	e8bd8800 	pop	{fp, pc}

00000f94 <_unlink_from_pre>:
     f94:	e92d4800 	push	{fp, lr}
     f98:	e28db004 	add	fp, sp, #4
     f9c:	e24dd010 	sub	sp, sp, #16
     fa0:	e50b0010 	str	r0, [fp, #-16]
     fa4:	e51b3010 	ldr	r3, [fp, #-16]
     fa8:	e5933000 	ldr	r3, [r3]
     fac:	e1a00003 	mov	r0, r3
     fb0:	ebfffeff 	bl	bb4 <_find_pre>
     fb4:	e50b000c 	str	r0, [fp, #-12]
     fb8:	e51b300c 	ldr	r3, [fp, #-12]
     fbc:	e3530000 	cmp	r3, #0
     fc0:	0a00001d 	beq	103c <SV_SIZE+0x3c>
     fc4:	e51b300c 	ldr	r3, [fp, #-12]
     fc8:	e2833004 	add	r3, r3, #4
     fcc:	e50b3008 	str	r3, [fp, #-8]
     fd0:	ea000014 	b	1028 <SV_SIZE+0x28>
     fd4:	e51b3008 	ldr	r3, [fp, #-8]
     fd8:	e5933000 	ldr	r3, [r3]
     fdc:	e51b2010 	ldr	r2, [fp, #-16]
     fe0:	e1520003 	cmp	r2, r3
     fe4:	1a00000b 	bne	1018 <SV_SIZE+0x18>
     fe8:	e51b3010 	ldr	r3, [fp, #-16]
     fec:	e593201c 	ldr	r2, [r3, #28]
     ff0:	e51b3008 	ldr	r3, [fp, #-8]
     ff4:	e5832000 	str	r2, [r3]
     ff8:	e51b3010 	ldr	r3, [fp, #-16]
     ffc:	e3a02000 	mov	r2, #0
    1000:	e583201c 	str	r2, [r3, #28]
    1004:	e51b3010 	ldr	r3, [fp, #-16]
    1008:	e5933000 	ldr	r3, [r3]
    100c:	e1a00003 	mov	r0, r3
    1010:	ebffff8c 	bl	e48 <_drop_empty_pre_entry>
    1014:	ea000009 	b	1040 <SV_SIZE+0x40>
    1018:	e51b3008 	ldr	r3, [fp, #-8]
    101c:	e5933000 	ldr	r3, [r3]
    1020:	e283301c 	add	r3, r3, #28
    1024:	e50b3008 	str	r3, [fp, #-8]
    1028:	e51b3008 	ldr	r3, [fp, #-8]
    102c:	e5933000 	ldr	r3, [r3]
    1030:	e3530000 	cmp	r3, #0
    1034:	1affffe6 	bne	fd4 <_unlink_from_pre+0x40>
    1038:	ea000000 	b	1040 <SV_SIZE+0x40>
    103c:	e1a00000 	nop			@ (mov r0, r0)
    1040:	e24bd004 	sub	sp, fp, #4
    1044:	e8bd8800 	pop	{fp, pc}

00001048 <_unlink_from_active>:
    1048:	e52db004 	push	{fp}		@ (str fp, [sp, #-4]!)
    104c:	e28db000 	add	fp, sp, #0
    1050:	e24dd014 	sub	sp, sp, #20
    1054:	e50b0010 	str	r0, [fp, #-16]
    1058:	e51b3010 	ldr	r3, [fp, #-16]
    105c:	e5d33014 	ldrb	r3, [r3, #20]
    1060:	e3530000 	cmp	r3, #0
    1064:	0a000027 	beq	1108 <ZI_LENGTH+0xbc>
    1068:	e59f30b0 	ldr	r3, [pc, #176]	@ 1120 <ZI_LENGTH+0xd4>
    106c:	e50b3008 	str	r3, [fp, #-8]
    1070:	ea00001c 	b	10e8 <ZI_LENGTH+0x9c>
    1074:	e51b3008 	ldr	r3, [fp, #-8]
    1078:	e5933000 	ldr	r3, [r3]
    107c:	e51b2010 	ldr	r2, [fp, #-16]
    1080:	e1520003 	cmp	r2, r3
    1084:	1a000013 	bne	10d8 <ZI_LENGTH+0x8c>
    1088:	e51b3010 	ldr	r3, [fp, #-16]
    108c:	e5932020 	ldr	r2, [r3, #32]
    1090:	e51b3008 	ldr	r3, [fp, #-8]
    1094:	e5832000 	str	r2, [r3]
    1098:	e51b3010 	ldr	r3, [fp, #-16]
    109c:	e3a02000 	mov	r2, #0
    10a0:	e5832020 	str	r2, [r3, #32]
    10a4:	e51b3010 	ldr	r3, [fp, #-16]
    10a8:	e3a02000 	mov	r2, #0
    10ac:	e5c32014 	strb	r2, [r3, #20]
    10b0:	e59f306c 	ldr	r3, [pc, #108]	@ 1124 <ZI_LENGTH+0xd8>
    10b4:	e5933000 	ldr	r3, [r3]
    10b8:	e3530000 	cmp	r3, #0
    10bc:	0a000013 	beq	1110 <ZI_LENGTH+0xc4>
    10c0:	e59f305c 	ldr	r3, [pc, #92]	@ 1124 <ZI_LENGTH+0xd8>
    10c4:	e5933000 	ldr	r3, [r3]
    10c8:	e2433001 	sub	r3, r3, #1
    10cc:	e59f2050 	ldr	r2, [pc, #80]	@ 1124 <ZI_LENGTH+0xd8>
    10d0:	e5823000 	str	r3, [r2]
    10d4:	ea00000d 	b	1110 <ZI_LENGTH+0xc4>
    10d8:	e51b3008 	ldr	r3, [fp, #-8]
    10dc:	e5933000 	ldr	r3, [r3]
    10e0:	e2833020 	add	r3, r3, #32
    10e4:	e50b3008 	str	r3, [fp, #-8]
    10e8:	e51b3008 	ldr	r3, [fp, #-8]
    10ec:	e5933000 	ldr	r3, [r3]
    10f0:	e3530000 	cmp	r3, #0
    10f4:	1affffde 	bne	1074 <ZI_LENGTH+0x28>
    10f8:	e51b3010 	ldr	r3, [fp, #-16]
    10fc:	e3a02000 	mov	r2, #0
    1100:	e5c32014 	strb	r2, [r3, #20]
    1104:	ea000002 	b	1114 <ZI_LENGTH+0xc8>
    1108:	e1a00000 	nop			@ (mov r0, r0)
    110c:	ea000000 	b	1114 <ZI_LENGTH+0xc8>
    1110:	e1a00000 	nop			@ (mov r0, r0)
    1114:	e28bd000 	add	sp, fp, #0
    1118:	e49db004 	pop	{fp}		@ (ldr fp, [sp], #4)
    111c:	e12fff1e 	bx	lr
    1120:	00400040 	.word	0x00400040
    1124:	00400028 	.word	0x00400028

00001128 <_activate_trace>:
    1128:	e52db004 	push	{fp}		@ (str fp, [sp, #-4]!)
    112c:	e28db000 	add	fp, sp, #0
    1130:	e24dd00c 	sub	sp, sp, #12
    1134:	e50b0008 	str	r0, [fp, #-8]
    1138:	e51b3008 	ldr	r3, [fp, #-8]
    113c:	e5d33014 	ldrb	r3, [r3, #20]
    1140:	e3530000 	cmp	r3, #0
    1144:	1a00000f 	bne	1188 <_activate_trace+0x60>
    1148:	e59f3048 	ldr	r3, [pc, #72]	@ 1198 <_activate_trace+0x70>
    114c:	e5932000 	ldr	r2, [r3]
    1150:	e51b3008 	ldr	r3, [fp, #-8]
    1154:	e5832020 	str	r2, [r3, #32]
    1158:	e59f2038 	ldr	r2, [pc, #56]	@ 1198 <_activate_trace+0x70>
    115c:	e51b3008 	ldr	r3, [fp, #-8]
    1160:	e5823000 	str	r3, [r2]
    1164:	e51b3008 	ldr	r3, [fp, #-8]
    1168:	e3a02001 	mov	r2, #1
    116c:	e5c32014 	strb	r2, [r3, #20]
    1170:	e59f3024 	ldr	r3, [pc, #36]	@ 119c <_activate_trace+0x74>
    1174:	e5933000 	ldr	r3, [r3]
    1178:	e2833001 	add	r3, r3, #1
    117c:	e59f2018 	ldr	r2, [pc, #24]	@ 119c <_activate_trace+0x74>
    1180:	e5823000 	str	r3, [r2]
    1184:	ea000000 	b	118c <_activate_trace+0x64>
    1188:	e1a00000 	nop			@ (mov r0, r0)
    118c:	e28bd000 	add	sp, fp, #0
    1190:	e49db004 	pop	{fp}		@ (ldr fp, [sp], #4)
    1194:	e12fff1e 	bx	lr
    1198:	00400040 	.word	0x00400040
    119c:	00400028 	.word	0x00400028

000011a0 <_free_synapse>:
    11a0:	e92d4800 	push	{fp, lr}
    11a4:	e28db004 	add	fp, sp, #4
    11a8:	e24dd010 	sub	sp, sp, #16
    11ac:	e50b0010 	str	r0, [fp, #-16]
    11b0:	e51b3010 	ldr	r3, [fp, #-16]
    11b4:	e5933000 	ldr	r3, [r3]
    11b8:	e50b3008 	str	r3, [fp, #-8]
    11bc:	e51b3010 	ldr	r3, [fp, #-16]
    11c0:	e5933004 	ldr	r3, [r3, #4]
    11c4:	e50b300c 	str	r3, [fp, #-12]
    11c8:	e51b0010 	ldr	r0, [fp, #-16]
    11cc:	ebffff9d 	bl	1048 <_unlink_from_active>
    11d0:	e51b0010 	ldr	r0, [fp, #-16]
    11d4:	ebffff41 	bl	ee0 <_unlink_from_post>
    11d8:	e51b0010 	ldr	r0, [fp, #-16]
    11dc:	ebffff6c 	bl	f94 <_unlink_from_pre>
    11e0:	e51b0010 	ldr	r0, [fp, #-16]
    11e4:	fa000b4f 	blx	3f28 <sark_free>
    11e8:	e59f3038 	ldr	r3, [pc, #56]	@ 1228 <_free_synapse+0x88>
    11ec:	e5933000 	ldr	r3, [r3]
    11f0:	e3530000 	cmp	r3, #0
    11f4:	0a000004 	beq	120c <_free_synapse+0x6c>
    11f8:	e59f3028 	ldr	r3, [pc, #40]	@ 1228 <_free_synapse+0x88>
    11fc:	e5933000 	ldr	r3, [r3]
    1200:	e2433001 	sub	r3, r3, #1
    1204:	e59f201c 	ldr	r2, [pc, #28]	@ 1228 <_free_synapse+0x88>
    1208:	e5823000 	str	r3, [r2]
    120c:	e51b000c 	ldr	r0, [fp, #-12]
    1210:	ebfffee6 	bl	db0 <_drop_empty_post_entry>
    1214:	e51b0008 	ldr	r0, [fp, #-8]
    1218:	ebffff0a 	bl	e48 <_drop_empty_pre_entry>
    121c:	e1a00000 	nop			@ (mov r0, r0)
    1220:	e24bd004 	sub	sp, fp, #4
    1224:	e8bd8800 	pop	{fp, pc}
    1228:	00400024 	.word	0x00400024

0000122c <_find_synapse>:
    122c:	e92d4800 	push	{fp, lr}
    1230:	e28db004 	add	fp, sp, #4
    1234:	e24dd010 	sub	sp, sp, #16
    1238:	e50b0010 	str	r0, [fp, #-16]
    123c:	e50b1014 	str	r1, [fp, #-20]	@ 0xffffffec
    1240:	e51b0010 	ldr	r0, [fp, #-16]
    1244:	ebfffe5a 	bl	bb4 <_find_pre>
    1248:	e50b000c 	str	r0, [fp, #-12]
    124c:	e51b300c 	ldr	r3, [fp, #-12]
    1250:	e3530000 	cmp	r3, #0
    1254:	1a000001 	bne	1260 <_find_synapse+0x34>
    1258:	e3a03000 	mov	r3, #0
    125c:	ea000011 	b	12a8 <_find_synapse+0x7c>
    1260:	e51b300c 	ldr	r3, [fp, #-12]
    1264:	e5933004 	ldr	r3, [r3, #4]
    1268:	e50b3008 	str	r3, [fp, #-8]
    126c:	ea000009 	b	1298 <_find_synapse+0x6c>
    1270:	e51b3008 	ldr	r3, [fp, #-8]
    1274:	e5933004 	ldr	r3, [r3, #4]
    1278:	e51b2014 	ldr	r2, [fp, #-20]	@ 0xffffffec
    127c:	e1520003 	cmp	r2, r3
    1280:	1a000001 	bne	128c <_find_synapse+0x60>
    1284:	e51b3008 	ldr	r3, [fp, #-8]
    1288:	ea000006 	b	12a8 <_find_synapse+0x7c>
    128c:	e51b3008 	ldr	r3, [fp, #-8]
    1290:	e593301c 	ldr	r3, [r3, #28]
    1294:	e50b3008 	str	r3, [fp, #-8]
    1298:	e51b3008 	ldr	r3, [fp, #-8]
    129c:	e3530000 	cmp	r3, #0
    12a0:	1afffff2 	bne	1270 <_find_synapse+0x44>
    12a4:	e3a03000 	mov	r3, #0
    12a8:	e1a00003 	mov	r0, r3
    12ac:	e24bd004 	sub	sp, fp, #4
    12b0:	e8bd8800 	pop	{fp, pc}

000012b4 <synapse_create>:
    12b4:	e92d4800 	push	{fp, lr}
    12b8:	e28db004 	add	fp, sp, #4
    12bc:	e24dd020 	sub	sp, sp, #32
    12c0:	e50b0018 	str	r0, [fp, #-24]	@ 0xffffffe8
    12c4:	e50b101c 	str	r1, [fp, #-28]	@ 0xffffffe4
    12c8:	e50b2020 	str	r2, [fp, #-32]	@ 0xffffffe0
    12cc:	e50b3024 	str	r3, [fp, #-36]	@ 0xffffffdc
    12d0:	e51b001c 	ldr	r0, [fp, #-28]	@ 0xffffffe4
    12d4:	ebfffe51 	bl	c20 <_find_or_create_post>
    12d8:	e50b0008 	str	r0, [fp, #-8]
    12dc:	e51b0018 	ldr	r0, [fp, #-24]	@ 0xffffffe8
    12e0:	ebfffe76 	bl	cc0 <_find_or_create_pre>
    12e4:	e50b000c 	str	r0, [fp, #-12]
    12e8:	e51b3008 	ldr	r3, [fp, #-8]
    12ec:	e3530000 	cmp	r3, #0
    12f0:	0a000002 	beq	1300 <synapse_create+0x4c>
    12f4:	e51b300c 	ldr	r3, [fp, #-12]
    12f8:	e3530000 	cmp	r3, #0
    12fc:	1a000001 	bne	1308 <synapse_create+0x54>
    1300:	e3e03000 	mvn	r3, #0
    1304:	ea000034 	b	13dc <synapse_create+0x128>
    1308:	e3a01024 	mov	r1, #36	@ 0x24
    130c:	e3a00001 	mov	r0, #1
    1310:	fa000ad5 	blx	3e6c <sark_alloc>
    1314:	e1a03000 	mov	r3, r0
    1318:	e50b3010 	str	r3, [fp, #-16]
    131c:	e51b3010 	ldr	r3, [fp, #-16]
    1320:	e3530000 	cmp	r3, #0
    1324:	1a000001 	bne	1330 <synapse_create+0x7c>
    1328:	e3e03000 	mvn	r3, #0
    132c:	ea00002a 	b	13dc <synapse_create+0x128>
    1330:	e51b3010 	ldr	r3, [fp, #-16]
    1334:	e51b2018 	ldr	r2, [fp, #-24]	@ 0xffffffe8
    1338:	e5832000 	str	r2, [r3]
    133c:	e51b3010 	ldr	r3, [fp, #-16]
    1340:	e51b201c 	ldr	r2, [fp, #-28]	@ 0xffffffe4
    1344:	e5832004 	str	r2, [r3, #4]
    1348:	e51b0020 	ldr	r0, [fp, #-32]	@ 0xffffffe0
    134c:	ebfffe83 	bl	d60 <_clip_weight>
    1350:	e1a02000 	mov	r2, r0
    1354:	e51b3010 	ldr	r3, [fp, #-16]
    1358:	e5832008 	str	r2, [r3, #8]
    135c:	e51b3010 	ldr	r3, [fp, #-16]
    1360:	e3a02000 	mov	r2, #0
    1364:	e583200c 	str	r2, [r3, #12]
    1368:	e51b3010 	ldr	r3, [fp, #-16]
    136c:	e51b2024 	ldr	r2, [fp, #-36]	@ 0xffffffdc
    1370:	e5832010 	str	r2, [r3, #16]
    1374:	e51b3010 	ldr	r3, [fp, #-16]
    1378:	e3a02000 	mov	r2, #0
    137c:	e5c32014 	strb	r2, [r3, #20]
    1380:	e51b3010 	ldr	r3, [fp, #-16]
    1384:	e3a02000 	mov	r2, #0
    1388:	e5832020 	str	r2, [r3, #32]
    138c:	e51b3008 	ldr	r3, [fp, #-8]
    1390:	e5932004 	ldr	r2, [r3, #4]
    1394:	e51b3010 	ldr	r3, [fp, #-16]
    1398:	e5832018 	str	r2, [r3, #24]
    139c:	e51b3008 	ldr	r3, [fp, #-8]
    13a0:	e51b2010 	ldr	r2, [fp, #-16]
    13a4:	e5832004 	str	r2, [r3, #4]
    13a8:	e51b300c 	ldr	r3, [fp, #-12]
    13ac:	e5932004 	ldr	r2, [r3, #4]
    13b0:	e51b3010 	ldr	r3, [fp, #-16]
    13b4:	e583201c 	str	r2, [r3, #28]
    13b8:	e51b300c 	ldr	r3, [fp, #-12]
    13bc:	e51b2010 	ldr	r2, [fp, #-16]
    13c0:	e5832004 	str	r2, [r3, #4]
    13c4:	e59f301c 	ldr	r3, [pc, #28]	@ 13e8 <synapse_create+0x134>
    13c8:	e5933000 	ldr	r3, [r3]
    13cc:	e2833001 	add	r3, r3, #1
    13d0:	e59f2010 	ldr	r2, [pc, #16]	@ 13e8 <synapse_create+0x134>
    13d4:	e5823000 	str	r3, [r2]
    13d8:	e3a03000 	mov	r3, #0
    13dc:	e1a00003 	mov	r0, r3
    13e0:	e24bd004 	sub	sp, fp, #4
    13e4:	e8bd8800 	pop	{fp, pc}
    13e8:	00400024 	.word	0x00400024

000013ec <synapse_remove>:
    13ec:	e92d4800 	push	{fp, lr}
    13f0:	e28db004 	add	fp, sp, #4
    13f4:	e24dd010 	sub	sp, sp, #16
    13f8:	e50b0010 	str	r0, [fp, #-16]
    13fc:	e50b1014 	str	r1, [fp, #-20]	@ 0xffffffec
    1400:	e51b1014 	ldr	r1, [fp, #-20]	@ 0xffffffec
    1404:	e51b0010 	ldr	r0, [fp, #-16]
    1408:	ebffff87 	bl	122c <_find_synapse>
    140c:	e50b0008 	str	r0, [fp, #-8]
    1410:	e51b3008 	ldr	r3, [fp, #-8]
    1414:	e3530000 	cmp	r3, #0
    1418:	1a000001 	bne	1424 <synapse_remove+0x38>
    141c:	e3e03000 	mvn	r3, #0
    1420:	ea000002 	b	1430 <synapse_remove+0x44>
    1424:	e51b0008 	ldr	r0, [fp, #-8]
    1428:	ebffff5c 	bl	11a0 <_free_synapse>
    142c:	e3a03000 	mov	r3, #0
    1430:	e1a00003 	mov	r0, r3
    1434:	e24bd004 	sub	sp, fp, #4
    1438:	e8bd8800 	pop	{fp, pc}

0000143c <synapse_deliver_spike>:
    143c:	e92d4800 	push	{fp, lr}
    1440:	e28db004 	add	fp, sp, #4
    1444:	e24dd018 	sub	sp, sp, #24
    1448:	e50b0018 	str	r0, [fp, #-24]	@ 0xffffffe8
    144c:	e59f30bc 	ldr	r3, [pc, #188]	@ 1510 <synapse_deliver_spike+0xd4>
    1450:	e3a02000 	mov	r2, #0
    1454:	e5832000 	str	r2, [r3]
    1458:	e51b0018 	ldr	r0, [fp, #-24]	@ 0xffffffe8
    145c:	ebfffdd4 	bl	bb4 <_find_pre>
    1460:	e50b0010 	str	r0, [fp, #-16]
    1464:	e51b3010 	ldr	r3, [fp, #-16]
    1468:	e3530000 	cmp	r3, #0
    146c:	0a000024 	beq	1504 <synapse_deliver_spike+0xc8>
    1470:	e51b3010 	ldr	r3, [fp, #-16]
    1474:	e5933004 	ldr	r3, [r3, #4]
    1478:	e50b3008 	str	r3, [fp, #-8]
    147c:	ea00001c 	b	14f4 <synapse_deliver_spike+0xb8>
    1480:	e59f3088 	ldr	r3, [pc, #136]	@ 1510 <synapse_deliver_spike+0xd4>
    1484:	e5933000 	ldr	r3, [r3]
    1488:	e2833001 	add	r3, r3, #1
    148c:	e59f207c 	ldr	r2, [pc, #124]	@ 1510 <synapse_deliver_spike+0xd4>
    1490:	e5823000 	str	r3, [r2]
    1494:	e51b3008 	ldr	r3, [fp, #-8]
    1498:	e593300c 	ldr	r3, [r3, #12]
    149c:	e2833902 	add	r3, r3, #32768	@ 0x8000
    14a0:	e50b300c 	str	r3, [fp, #-12]
    14a4:	e51b300c 	ldr	r3, [fp, #-12]
    14a8:	e3530902 	cmp	r3, #32768	@ 0x8000
    14ac:	da000001 	ble	14b8 <synapse_deliver_spike+0x7c>
    14b0:	e3a03902 	mov	r3, #32768	@ 0x8000
    14b4:	e50b300c 	str	r3, [fp, #-12]
    14b8:	e51b3008 	ldr	r3, [fp, #-8]
    14bc:	e51b200c 	ldr	r2, [fp, #-12]
    14c0:	e583200c 	str	r2, [r3, #12]
    14c4:	e51b0008 	ldr	r0, [fp, #-8]
    14c8:	ebffff16 	bl	1128 <_activate_trace>
    14cc:	e51b3008 	ldr	r3, [fp, #-8]
    14d0:	e5932004 	ldr	r2, [r3, #4]
    14d4:	e51b3008 	ldr	r3, [fp, #-8]
    14d8:	e5933008 	ldr	r3, [r3, #8]
    14dc:	e1a01003 	mov	r1, r3
    14e0:	e1a00002 	mov	r0, r2
    14e4:	ebfffd00 	bl	8ec <neuron_add_input>
    14e8:	e51b3008 	ldr	r3, [fp, #-8]
    14ec:	e593301c 	ldr	r3, [r3, #28]
    14f0:	e50b3008 	str	r3, [fp, #-8]
    14f4:	e51b3008 	ldr	r3, [fp, #-8]
    14f8:	e3530000 	cmp	r3, #0
    14fc:	1affffdf 	bne	1480 <synapse_deliver_spike+0x44>
    1500:	ea000000 	b	1508 <synapse_deliver_spike+0xcc>
    1504:	e1a00000 	nop			@ (mov r0, r0)
    1508:	e24bd004 	sub	sp, fp, #4
    150c:	e8bd8800 	pop	{fp, pc}
    1510:	0040002c 	.word	0x0040002c

00001514 <synapse_decay_traces_all>:
    1514:	e52db004 	push	{fp}		@ (str fp, [sp, #-4]!)
    1518:	e28db000 	add	fp, sp, #0
    151c:	e24dd014 	sub	sp, sp, #20
    1520:	e50b0010 	str	r0, [fp, #-16]
    1524:	e59f30e8 	ldr	r3, [pc, #232]	@ 1614 <synapse_decay_traces_all+0x100>
    1528:	e3a02000 	mov	r2, #0
    152c:	e5832000 	str	r2, [r3]
    1530:	e59f30e0 	ldr	r3, [pc, #224]	@ 1618 <synapse_decay_traces_all+0x104>
    1534:	e50b3008 	str	r3, [fp, #-8]
    1538:	ea00002c 	b	15f0 <synapse_decay_traces_all+0xdc>
    153c:	e51b3008 	ldr	r3, [fp, #-8]
    1540:	e5933000 	ldr	r3, [r3]
    1544:	e50b300c 	str	r3, [fp, #-12]
    1548:	e59f30c4 	ldr	r3, [pc, #196]	@ 1614 <synapse_decay_traces_all+0x100>
    154c:	e5933000 	ldr	r3, [r3]
    1550:	e2833001 	add	r3, r3, #1
    1554:	e59f20b8 	ldr	r2, [pc, #184]	@ 1614 <synapse_decay_traces_all+0x100>
    1558:	e5823000 	str	r3, [r2]
    155c:	e51b300c 	ldr	r3, [fp, #-12]
    1560:	e593300c 	ldr	r3, [r3, #12]
    1564:	e51b2010 	ldr	r2, [fp, #-16]
    1568:	e0030392 	mul	r3, r2, r3
    156c:	e1a027c3 	asr	r2, r3, #15
    1570:	e51b300c 	ldr	r3, [fp, #-12]
    1574:	e583200c 	str	r2, [r3, #12]
    1578:	e51b300c 	ldr	r3, [fp, #-12]
    157c:	e593300c 	ldr	r3, [r3, #12]
    1580:	e3530001 	cmp	r3, #1
    1584:	ca000016 	bgt	15e4 <synapse_decay_traces_all+0xd0>
    1588:	e51b300c 	ldr	r3, [fp, #-12]
    158c:	e3a02000 	mov	r2, #0
    1590:	e583200c 	str	r2, [r3, #12]
    1594:	e51b300c 	ldr	r3, [fp, #-12]
    1598:	e5932020 	ldr	r2, [r3, #32]
    159c:	e51b3008 	ldr	r3, [fp, #-8]
    15a0:	e5832000 	str	r2, [r3]
    15a4:	e51b300c 	ldr	r3, [fp, #-12]
    15a8:	e3a02000 	mov	r2, #0
    15ac:	e5832020 	str	r2, [r3, #32]
    15b0:	e51b300c 	ldr	r3, [fp, #-12]
    15b4:	e3a02000 	mov	r2, #0
    15b8:	e5c32014 	strb	r2, [r3, #20]
    15bc:	e59f3058 	ldr	r3, [pc, #88]	@ 161c <synapse_decay_traces_all+0x108>
    15c0:	e5933000 	ldr	r3, [r3]
    15c4:	e3530000 	cmp	r3, #0
    15c8:	0a000008 	beq	15f0 <synapse_decay_traces_all+0xdc>
    15cc:	e59f3048 	ldr	r3, [pc, #72]	@ 161c <synapse_decay_traces_all+0x108>
    15d0:	e5933000 	ldr	r3, [r3]
    15d4:	e2433001 	sub	r3, r3, #1
    15d8:	e59f203c 	ldr	r2, [pc, #60]	@ 161c <synapse_decay_traces_all+0x108>
    15dc:	e5823000 	str	r3, [r2]
    15e0:	ea000002 	b	15f0 <synapse_decay_traces_all+0xdc>
    15e4:	e51b300c 	ldr	r3, [fp, #-12]
    15e8:	e2833020 	add	r3, r3, #32
    15ec:	e50b3008 	str	r3, [fp, #-8]
    15f0:	e51b3008 	ldr	r3, [fp, #-8]
    15f4:	e5933000 	ldr	r3, [r3]
    15f8:	e3530000 	cmp	r3, #0
    15fc:	1affffce 	bne	153c <synapse_decay_traces_all+0x28>
    1600:	e1a00000 	nop			@ (mov r0, r0)
    1604:	e1a00000 	nop			@ (mov r0, r0)
    1608:	e28bd000 	add	sp, fp, #0
    160c:	e49db004 	pop	{fp}		@ (ldr fp, [sp], #4)
    1610:	e12fff1e 	bx	lr
    1614:	00400030 	.word	0x00400030
    1618:	00400040 	.word	0x00400040
    161c:	00400028 	.word	0x00400028

00001620 <synapse_modulate_all>:
    1620:	e92d4800 	push	{fp, lr}
    1624:	e28db004 	add	fp, sp, #4
    1628:	e24dd010 	sub	sp, sp, #16
    162c:	e50b0010 	str	r0, [fp, #-16]
    1630:	e59f308c 	ldr	r3, [pc, #140]	@ 16c4 <synapse_modulate_all+0xa4>
    1634:	e3a02000 	mov	r2, #0
    1638:	e5832000 	str	r2, [r3]
    163c:	e59f3084 	ldr	r3, [pc, #132]	@ 16c8 <synapse_modulate_all+0xa8>
    1640:	e5933000 	ldr	r3, [r3]
    1644:	e50b3008 	str	r3, [fp, #-8]
    1648:	ea000016 	b	16a8 <synapse_modulate_all+0x88>
    164c:	e59f3070 	ldr	r3, [pc, #112]	@ 16c4 <synapse_modulate_all+0xa4>
    1650:	e5933000 	ldr	r3, [r3]
    1654:	e2833001 	add	r3, r3, #1
    1658:	e59f2064 	ldr	r2, [pc, #100]	@ 16c4 <synapse_modulate_all+0xa4>
    165c:	e5823000 	str	r3, [r2]
    1660:	e51b3008 	ldr	r3, [fp, #-8]
    1664:	e593300c 	ldr	r3, [r3, #12]
    1668:	e51b2010 	ldr	r2, [fp, #-16]
    166c:	e0030392 	mul	r3, r2, r3
    1670:	e1a037c3 	asr	r3, r3, #15
    1674:	e50b300c 	str	r3, [fp, #-12]
    1678:	e51b3008 	ldr	r3, [fp, #-8]
    167c:	e5932008 	ldr	r2, [r3, #8]
    1680:	e51b300c 	ldr	r3, [fp, #-12]
    1684:	e0823003 	add	r3, r2, r3
    1688:	e1a00003 	mov	r0, r3
    168c:	ebfffdb3 	bl	d60 <_clip_weight>
    1690:	e1a02000 	mov	r2, r0
    1694:	e51b3008 	ldr	r3, [fp, #-8]
    1698:	e5832008 	str	r2, [r3, #8]
    169c:	e51b3008 	ldr	r3, [fp, #-8]
    16a0:	e5933020 	ldr	r3, [r3, #32]
    16a4:	e50b3008 	str	r3, [fp, #-8]
    16a8:	e51b3008 	ldr	r3, [fp, #-8]
    16ac:	e3530000 	cmp	r3, #0
    16b0:	1affffe5 	bne	164c <synapse_modulate_all+0x2c>
    16b4:	e1a00000 	nop			@ (mov r0, r0)
    16b8:	e1a00000 	nop			@ (mov r0, r0)
    16bc:	e24bd004 	sub	sp, fp, #4
    16c0:	e8bd8800 	pop	{fp, pc}
    16c4:	00400034 	.word	0x00400034
    16c8:	00400040 	.word	0x00400040

000016cc <synapse_remove_incident>:
    16cc:	e92d4800 	push	{fp, lr}
    16d0:	e28db004 	add	fp, sp, #4
    16d4:	e24dd018 	sub	sp, sp, #24
    16d8:	e50b0018 	str	r0, [fp, #-24]	@ 0xffffffe8
    16dc:	e3a03000 	mov	r3, #0
    16e0:	e54b3005 	strb	r3, [fp, #-5]
    16e4:	e3a03000 	mov	r3, #0
    16e8:	e54b3005 	strb	r3, [fp, #-5]
    16ec:	e59f30b8 	ldr	r3, [pc, #184]	@ 17ac <synapse_remove_incident+0xe0>
    16f0:	e5933000 	ldr	r3, [r3]
    16f4:	e50b300c 	str	r3, [fp, #-12]
    16f8:	ea00001e 	b	1778 <synapse_remove_incident+0xac>
    16fc:	e51b300c 	ldr	r3, [fp, #-12]
    1700:	e5933004 	ldr	r3, [r3, #4]
    1704:	e50b3010 	str	r3, [fp, #-16]
    1708:	ea000011 	b	1754 <synapse_remove_incident+0x88>
    170c:	e51b3010 	ldr	r3, [fp, #-16]
    1710:	e5933000 	ldr	r3, [r3]
    1714:	e51b2018 	ldr	r2, [fp, #-24]	@ 0xffffffe8
    1718:	e1520003 	cmp	r2, r3
    171c:	0a000004 	beq	1734 <synapse_remove_incident+0x68>
    1720:	e51b3010 	ldr	r3, [fp, #-16]
    1724:	e5933004 	ldr	r3, [r3, #4]
    1728:	e51b2018 	ldr	r2, [fp, #-24]	@ 0xffffffe8
    172c:	e1520003 	cmp	r2, r3
    1730:	1a000004 	bne	1748 <synapse_remove_incident+0x7c>
    1734:	e51b0010 	ldr	r0, [fp, #-16]
    1738:	ebfffe98 	bl	11a0 <_free_synapse>
    173c:	e3a03001 	mov	r3, #1
    1740:	e54b3005 	strb	r3, [fp, #-5]
    1744:	ea000005 	b	1760 <synapse_remove_incident+0x94>
    1748:	e51b3010 	ldr	r3, [fp, #-16]
    174c:	e5933018 	ldr	r3, [r3, #24]
    1750:	e50b3010 	str	r3, [fp, #-16]
    1754:	e51b3010 	ldr	r3, [fp, #-16]
    1758:	e3530000 	cmp	r3, #0
    175c:	1affffea 	bne	170c <synapse_remove_incident+0x40>
    1760:	e55b3005 	ldrb	r3, [fp, #-5]
    1764:	e3530000 	cmp	r3, #0
    1768:	1a000002 	bne	1778 <synapse_remove_incident+0xac>
    176c:	e51b300c 	ldr	r3, [fp, #-12]
    1770:	e5933008 	ldr	r3, [r3, #8]
    1774:	e50b300c 	str	r3, [fp, #-12]
    1778:	e51b300c 	ldr	r3, [fp, #-12]
    177c:	e3530000 	cmp	r3, #0
    1780:	0a000002 	beq	1790 <synapse_remove_incident+0xc4>
    1784:	e55b3005 	ldrb	r3, [fp, #-5]
    1788:	e3530000 	cmp	r3, #0
    178c:	0affffda 	beq	16fc <synapse_remove_incident+0x30>
    1790:	e55b3005 	ldrb	r3, [fp, #-5]
    1794:	e3530000 	cmp	r3, #0
    1798:	1affffd1 	bne	16e4 <synapse_remove_incident+0x18>
    179c:	e1a00000 	nop			@ (mov r0, r0)
    17a0:	e1a00000 	nop			@ (mov r0, r0)
    17a4:	e24bd004 	sub	sp, fp, #4
    17a8:	e8bd8800 	pop	{fp, pc}
    17ac:	00400038 	.word	0x00400038

000017b0 <synapse_reset_all>:
    17b0:	e92d4800 	push	{fp, lr}
    17b4:	e28db004 	add	fp, sp, #4
    17b8:	e24dd010 	sub	sp, sp, #16
    17bc:	ea000016 	b	181c <synapse_reset_all+0x6c>
    17c0:	e59f30f0 	ldr	r3, [pc, #240]	@ 18b8 <synapse_reset_all+0x108>
    17c4:	e5933000 	ldr	r3, [r3]
    17c8:	e50b3010 	str	r3, [fp, #-16]
    17cc:	e51b3010 	ldr	r3, [fp, #-16]
    17d0:	e5933004 	ldr	r3, [r3, #4]
    17d4:	e50b3008 	str	r3, [fp, #-8]
    17d8:	ea000006 	b	17f8 <synapse_reset_all+0x48>
    17dc:	e51b3008 	ldr	r3, [fp, #-8]
    17e0:	e5933018 	ldr	r3, [r3, #24]
    17e4:	e50b3014 	str	r3, [fp, #-20]	@ 0xffffffec
    17e8:	e51b0008 	ldr	r0, [fp, #-8]
    17ec:	fa0009cd 	blx	3f28 <sark_free>
    17f0:	e51b3014 	ldr	r3, [fp, #-20]	@ 0xffffffec
    17f4:	e50b3008 	str	r3, [fp, #-8]
    17f8:	e51b3008 	ldr	r3, [fp, #-8]
    17fc:	e3530000 	cmp	r3, #0
    1800:	1afffff5 	bne	17dc <synapse_reset_all+0x2c>
    1804:	e51b3010 	ldr	r3, [fp, #-16]
    1808:	e5933008 	ldr	r3, [r3, #8]
    180c:	e59f20a4 	ldr	r2, [pc, #164]	@ 18b8 <synapse_reset_all+0x108>
    1810:	e5823000 	str	r3, [r2]
    1814:	e51b0010 	ldr	r0, [fp, #-16]
    1818:	fa0009c2 	blx	3f28 <sark_free>
    181c:	e59f3094 	ldr	r3, [pc, #148]	@ 18b8 <synapse_reset_all+0x108>
    1820:	e5933000 	ldr	r3, [r3]
    1824:	e3530000 	cmp	r3, #0
    1828:	1affffe4 	bne	17c0 <synapse_reset_all+0x10>
    182c:	ea000008 	b	1854 <synapse_reset_all+0xa4>
    1830:	e59f3084 	ldr	r3, [pc, #132]	@ 18bc <synapse_reset_all+0x10c>
    1834:	e5933000 	ldr	r3, [r3]
    1838:	e50b300c 	str	r3, [fp, #-12]
    183c:	e51b300c 	ldr	r3, [fp, #-12]
    1840:	e5933008 	ldr	r3, [r3, #8]
    1844:	e59f2070 	ldr	r2, [pc, #112]	@ 18bc <synapse_reset_all+0x10c>
    1848:	e5823000 	str	r3, [r2]
    184c:	e51b000c 	ldr	r0, [fp, #-12]
    1850:	fa0009b4 	blx	3f28 <sark_free>
    1854:	e59f3060 	ldr	r3, [pc, #96]	@ 18bc <synapse_reset_all+0x10c>
    1858:	e5933000 	ldr	r3, [r3]
    185c:	e3530000 	cmp	r3, #0
    1860:	1afffff2 	bne	1830 <synapse_reset_all+0x80>
    1864:	e59f3054 	ldr	r3, [pc, #84]	@ 18c0 <synapse_reset_all+0x110>
    1868:	e3a02000 	mov	r2, #0
    186c:	e5832000 	str	r2, [r3]
    1870:	e59f304c 	ldr	r3, [pc, #76]	@ 18c4 <synapse_reset_all+0x114>
    1874:	e3a02000 	mov	r2, #0
    1878:	e5832000 	str	r2, [r3]
    187c:	e59f3044 	ldr	r3, [pc, #68]	@ 18c8 <synapse_reset_all+0x118>
    1880:	e3a02000 	mov	r2, #0
    1884:	e5832000 	str	r2, [r3]
    1888:	e59f303c 	ldr	r3, [pc, #60]	@ 18cc <synapse_reset_all+0x11c>
    188c:	e3a02000 	mov	r2, #0
    1890:	e5832000 	str	r2, [r3]
    1894:	e59f3034 	ldr	r3, [pc, #52]	@ 18d0 <synapse_reset_all+0x120>
    1898:	e3a02000 	mov	r2, #0
    189c:	e5832000 	str	r2, [r3]
    18a0:	e59f302c 	ldr	r3, [pc, #44]	@ 18d4 <synapse_reset_all+0x124>
    18a4:	e3a02000 	mov	r2, #0
    18a8:	e5832000 	str	r2, [r3]
    18ac:	e1a00000 	nop			@ (mov r0, r0)
    18b0:	e24bd004 	sub	sp, fp, #4
    18b4:	e8bd8800 	pop	{fp, pc}
    18b8:	00400038 	.word	0x00400038
    18bc:	0040003c 	.word	0x0040003c
    18c0:	00400040 	.word	0x00400040
    18c4:	00400024 	.word	0x00400024
    18c8:	00400028 	.word	0x00400028
    18cc:	0040002c 	.word	0x0040002c
    18d0:	00400030 	.word	0x00400030
    18d4:	00400034 	.word	0x00400034

000018d8 <synapse_count>:
    18d8:	e52db004 	push	{fp}		@ (str fp, [sp, #-4]!)
    18dc:	e28db000 	add	fp, sp, #0
    18e0:	e59f3010 	ldr	r3, [pc, #16]	@ 18f8 <synapse_count+0x20>
    18e4:	e5933000 	ldr	r3, [r3]
    18e8:	e1a00003 	mov	r0, r3
    18ec:	e28bd000 	add	sp, fp, #0
    18f0:	e49db004 	pop	{fp}		@ (ldr fp, [sp], #4)
    18f4:	e12fff1e 	bx	lr
    18f8:	00400024 	.word	0x00400024

000018fc <synapse_active_trace_count>:
    18fc:	e52db004 	push	{fp}		@ (str fp, [sp, #-4]!)
    1900:	e28db000 	add	fp, sp, #0
    1904:	e59f3010 	ldr	r3, [pc, #16]	@ 191c <synapse_active_trace_count+0x20>
    1908:	e5933000 	ldr	r3, [r3]
    190c:	e1a00003 	mov	r0, r3
    1910:	e28bd000 	add	sp, fp, #0
    1914:	e49db004 	pop	{fp}		@ (ldr fp, [sp], #4)
    1918:	e12fff1e 	bx	lr
    191c:	00400028 	.word	0x00400028

00001920 <synapse_last_delivery_visit_count>:
    1920:	e52db004 	push	{fp}		@ (str fp, [sp, #-4]!)
    1924:	e28db000 	add	fp, sp, #0
    1928:	e59f3010 	ldr	r3, [pc, #16]	@ 1940 <synapse_last_delivery_visit_count+0x20>
    192c:	e5933000 	ldr	r3, [r3]
    1930:	e1a00003 	mov	r0, r3
    1934:	e28bd000 	add	sp, fp, #0
    1938:	e49db004 	pop	{fp}		@ (ldr fp, [sp], #4)
    193c:	e12fff1e 	bx	lr
    1940:	0040002c 	.word	0x0040002c

00001944 <synapse_last_decay_visit_count>:
    1944:	e52db004 	push	{fp}		@ (str fp, [sp, #-4]!)
    1948:	e28db000 	add	fp, sp, #0
    194c:	e59f3010 	ldr	r3, [pc, #16]	@ 1964 <synapse_last_decay_visit_count+0x20>
    1950:	e5933000 	ldr	r3, [r3]
    1954:	e1a00003 	mov	r0, r3
    1958:	e28bd000 	add	sp, fp, #0
    195c:	e49db004 	pop	{fp}		@ (ldr fp, [sp], #4)
    1960:	e12fff1e 	bx	lr
    1964:	00400030 	.word	0x00400030

00001968 <synapse_last_modulation_visit_count>:
    1968:	e52db004 	push	{fp}		@ (str fp, [sp, #-4]!)
    196c:	e28db000 	add	fp, sp, #0
    1970:	e59f3010 	ldr	r3, [pc, #16]	@ 1988 <synapse_last_modulation_visit_count+0x20>
    1974:	e5933000 	ldr	r3, [r3]
    1978:	e1a00003 	mov	r0, r3
    197c:	e28bd000 	add	sp, fp, #0
    1980:	e49db004 	pop	{fp}		@ (ldr fp, [sp], #4)
    1984:	e12fff1e 	bx	lr
    1988:	00400034 	.word	0x00400034

0000198c <synapse_get_weight>:
    198c:	e92d4800 	push	{fp, lr}
    1990:	e28db004 	add	fp, sp, #4
    1994:	e24dd018 	sub	sp, sp, #24
    1998:	e50b0010 	str	r0, [fp, #-16]
    199c:	e50b1014 	str	r1, [fp, #-20]	@ 0xffffffec
    19a0:	e50b2018 	str	r2, [fp, #-24]	@ 0xffffffe8
    19a4:	e51b1014 	ldr	r1, [fp, #-20]	@ 0xffffffec
    19a8:	e51b0010 	ldr	r0, [fp, #-16]
    19ac:	ebfffe1e 	bl	122c <_find_synapse>
    19b0:	e50b0008 	str	r0, [fp, #-8]
    19b4:	e51b3008 	ldr	r3, [fp, #-8]
    19b8:	e3530000 	cmp	r3, #0
    19bc:	1a000001 	bne	19c8 <synapse_get_weight+0x3c>
    19c0:	e3e03000 	mvn	r3, #0
    19c4:	ea000007 	b	19e8 <synapse_get_weight+0x5c>
    19c8:	e51b3018 	ldr	r3, [fp, #-24]	@ 0xffffffe8
    19cc:	e3530000 	cmp	r3, #0
    19d0:	0a000003 	beq	19e4 <synapse_get_weight+0x58>
    19d4:	e51b3008 	ldr	r3, [fp, #-8]
    19d8:	e5932008 	ldr	r2, [r3, #8]
    19dc:	e51b3018 	ldr	r3, [fp, #-24]	@ 0xffffffe8
    19e0:	e5832000 	str	r2, [r3]
    19e4:	e3a03000 	mov	r3, #0
    19e8:	e1a00003 	mov	r0, r3
    19ec:	e24bd004 	sub	sp, fp, #4
    19f0:	e8bd8800 	pop	{fp, pc}

000019f4 <synapse_get_eligibility_trace>:
    19f4:	e92d4800 	push	{fp, lr}
    19f8:	e28db004 	add	fp, sp, #4
    19fc:	e24dd018 	sub	sp, sp, #24
    1a00:	e50b0010 	str	r0, [fp, #-16]
    1a04:	e50b1014 	str	r1, [fp, #-20]	@ 0xffffffec
    1a08:	e50b2018 	str	r2, [fp, #-24]	@ 0xffffffe8
    1a0c:	e51b1014 	ldr	r1, [fp, #-20]	@ 0xffffffec
    1a10:	e51b0010 	ldr	r0, [fp, #-16]
    1a14:	ebfffe04 	bl	122c <_find_synapse>
    1a18:	e50b0008 	str	r0, [fp, #-8]
    1a1c:	e51b3008 	ldr	r3, [fp, #-8]
    1a20:	e3530000 	cmp	r3, #0
    1a24:	1a000001 	bne	1a30 <synapse_get_eligibility_trace+0x3c>
    1a28:	e3e03000 	mvn	r3, #0
    1a2c:	ea000007 	b	1a50 <synapse_get_eligibility_trace+0x5c>
    1a30:	e51b3018 	ldr	r3, [fp, #-24]	@ 0xffffffe8
    1a34:	e3530000 	cmp	r3, #0
    1a38:	0a000003 	beq	1a4c <synapse_get_eligibility_trace+0x58>
    1a3c:	e51b3008 	ldr	r3, [fp, #-8]
    1a40:	e593200c 	ldr	r2, [r3, #12]
    1a44:	e51b3018 	ldr	r3, [fp, #-24]	@ 0xffffffe8
    1a48:	e5832000 	str	r2, [r3]
    1a4c:	e3a03000 	mov	r3, #0
    1a50:	e1a00003 	mov	r0, r3
    1a54:	e24bd004 	sub	sp, fp, #4
    1a58:	e8bd8800 	pop	{fp, pc}

00001a5c <_clear_slots>:
    1a5c:	e52db004 	push	{fp}		@ (str fp, [sp, #-4]!)
    1a60:	e28db000 	add	fp, sp, #0
    1a64:	e24dd00c 	sub	sp, sp, #12
    1a68:	e3a03000 	mov	r3, #0
    1a6c:	e50b3008 	str	r3, [fp, #-8]
    1a70:	ea000033 	b	1b44 <_clear_slots+0xe8>
    1a74:	e59f10e8 	ldr	r1, [pc, #232]	@ 1b64 <_clear_slots+0x108>
    1a78:	e51b2008 	ldr	r2, [fp, #-8]
    1a7c:	e1a03002 	mov	r3, r2
    1a80:	e1a03103 	lsl	r3, r3, #2
    1a84:	e0833002 	add	r3, r3, r2
    1a88:	e1a03103 	lsl	r3, r3, #2
    1a8c:	e0813003 	add	r3, r1, r3
    1a90:	e3a02000 	mov	r2, #0
    1a94:	e5832000 	str	r2, [r3]
    1a98:	e59f10c4 	ldr	r1, [pc, #196]	@ 1b64 <_clear_slots+0x108>
    1a9c:	e51b2008 	ldr	r2, [fp, #-8]
    1aa0:	e1a03002 	mov	r3, r2
    1aa4:	e1a03103 	lsl	r3, r3, #2
    1aa8:	e0833002 	add	r3, r3, r2
    1aac:	e1a03103 	lsl	r3, r3, #2
    1ab0:	e0813003 	add	r3, r1, r3
    1ab4:	e2833004 	add	r3, r3, #4
    1ab8:	e3a02000 	mov	r2, #0
    1abc:	e5832000 	str	r2, [r3]
    1ac0:	e59f109c 	ldr	r1, [pc, #156]	@ 1b64 <_clear_slots+0x108>
    1ac4:	e51b2008 	ldr	r2, [fp, #-8]
    1ac8:	e1a03002 	mov	r3, r2
    1acc:	e1a03103 	lsl	r3, r3, #2
    1ad0:	e0833002 	add	r3, r3, r2
    1ad4:	e1a03103 	lsl	r3, r3, #2
    1ad8:	e0813003 	add	r3, r1, r3
    1adc:	e2833008 	add	r3, r3, #8
    1ae0:	e3a02000 	mov	r2, #0
    1ae4:	e5832000 	str	r2, [r3]
    1ae8:	e59f1074 	ldr	r1, [pc, #116]	@ 1b64 <_clear_slots+0x108>
    1aec:	e51b2008 	ldr	r2, [fp, #-8]
    1af0:	e1a03002 	mov	r3, r2
    1af4:	e1a03103 	lsl	r3, r3, #2
    1af8:	e0833002 	add	r3, r3, r2
    1afc:	e1a03103 	lsl	r3, r3, #2
    1b00:	e0813003 	add	r3, r1, r3
    1b04:	e283300c 	add	r3, r3, #12
    1b08:	e3a02000 	mov	r2, #0
    1b0c:	e5832000 	str	r2, [r3]
    1b10:	e59f104c 	ldr	r1, [pc, #76]	@ 1b64 <_clear_slots+0x108>
    1b14:	e51b2008 	ldr	r2, [fp, #-8]
    1b18:	e1a03002 	mov	r3, r2
    1b1c:	e1a03103 	lsl	r3, r3, #2
    1b20:	e0833002 	add	r3, r3, r2
    1b24:	e1a03103 	lsl	r3, r3, #2
    1b28:	e0813003 	add	r3, r1, r3
    1b2c:	e2833010 	add	r3, r3, #16
    1b30:	e3a02000 	mov	r2, #0
    1b34:	e5c32000 	strb	r2, [r3]
    1b38:	e51b3008 	ldr	r3, [fp, #-8]
    1b3c:	e2833001 	add	r3, r3, #1
    1b40:	e50b3008 	str	r3, [fp, #-8]
    1b44:	e51b3008 	ldr	r3, [fp, #-8]
    1b48:	e3530007 	cmp	r3, #7
    1b4c:	9affffc8 	bls	1a74 <_clear_slots+0x18>
    1b50:	e1a00000 	nop			@ (mov r0, r0)
    1b54:	e1a00000 	nop			@ (mov r0, r0)
    1b58:	e28bd000 	add	sp, fp, #0
    1b5c:	e49db004 	pop	{fp}		@ (ldr fp, [sp], #4)
    1b60:	e12fff1e 	bx	lr
    1b64:	00400044 	.word	0x00400044

00001b68 <_clear_summary>:
    1b68:	e52db004 	push	{fp}		@ (str fp, [sp, #-4]!)
    1b6c:	e28db000 	add	fp, sp, #0
    1b70:	e24dd00c 	sub	sp, sp, #12
    1b74:	e50b0008 	str	r0, [fp, #-8]
    1b78:	e59f30d4 	ldr	r3, [pc, #212]	@ 1c54 <_clear_summary+0xec>
    1b7c:	e3a02000 	mov	r2, #0
    1b80:	e5832000 	str	r2, [r3]
    1b84:	e59f30c8 	ldr	r3, [pc, #200]	@ 1c54 <_clear_summary+0xec>
    1b88:	e3a02000 	mov	r2, #0
    1b8c:	e5832004 	str	r2, [r3, #4]
    1b90:	e59f30bc 	ldr	r3, [pc, #188]	@ 1c54 <_clear_summary+0xec>
    1b94:	e3a02000 	mov	r2, #0
    1b98:	e5832008 	str	r2, [r3, #8]
    1b9c:	e59f30b0 	ldr	r3, [pc, #176]	@ 1c54 <_clear_summary+0xec>
    1ba0:	e3a02000 	mov	r2, #0
    1ba4:	e583200c 	str	r2, [r3, #12]
    1ba8:	e59f30a4 	ldr	r3, [pc, #164]	@ 1c54 <_clear_summary+0xec>
    1bac:	e3a02000 	mov	r2, #0
    1bb0:	e5832010 	str	r2, [r3, #16]
    1bb4:	e59f3098 	ldr	r3, [pc, #152]	@ 1c54 <_clear_summary+0xec>
    1bb8:	e3a02000 	mov	r2, #0
    1bbc:	e5832014 	str	r2, [r3, #20]
    1bc0:	e59f308c 	ldr	r3, [pc, #140]	@ 1c54 <_clear_summary+0xec>
    1bc4:	e3a02000 	mov	r2, #0
    1bc8:	e5832018 	str	r2, [r3, #24]
    1bcc:	e59f3080 	ldr	r3, [pc, #128]	@ 1c54 <_clear_summary+0xec>
    1bd0:	e3a02000 	mov	r2, #0
    1bd4:	e583201c 	str	r2, [r3, #28]
    1bd8:	e59f3074 	ldr	r3, [pc, #116]	@ 1c54 <_clear_summary+0xec>
    1bdc:	e3a02000 	mov	r2, #0
    1be0:	e5832020 	str	r2, [r3, #32]
    1be4:	e59f3068 	ldr	r3, [pc, #104]	@ 1c54 <_clear_summary+0xec>
    1be8:	e3a02000 	mov	r2, #0
    1bec:	e5832024 	str	r2, [r3, #36]	@ 0x24
    1bf0:	e59f305c 	ldr	r3, [pc, #92]	@ 1c54 <_clear_summary+0xec>
    1bf4:	e3a02000 	mov	r2, #0
    1bf8:	e5832028 	str	r2, [r3, #40]	@ 0x28
    1bfc:	e59f2050 	ldr	r2, [pc, #80]	@ 1c54 <_clear_summary+0xec>
    1c00:	e51b3008 	ldr	r3, [fp, #-8]
    1c04:	e582302c 	str	r3, [r2, #44]	@ 0x2c
    1c08:	e59f3044 	ldr	r3, [pc, #68]	@ 1c54 <_clear_summary+0xec>
    1c0c:	e3a02000 	mov	r2, #0
    1c10:	e5832030 	str	r2, [r3, #48]	@ 0x30
    1c14:	e59f3038 	ldr	r3, [pc, #56]	@ 1c54 <_clear_summary+0xec>
    1c18:	e3a02000 	mov	r2, #0
    1c1c:	e5832034 	str	r2, [r3, #52]	@ 0x34
    1c20:	e59f302c 	ldr	r3, [pc, #44]	@ 1c54 <_clear_summary+0xec>
    1c24:	e3a02000 	mov	r2, #0
    1c28:	e5832038 	str	r2, [r3, #56]	@ 0x38
    1c2c:	e59f3020 	ldr	r3, [pc, #32]	@ 1c54 <_clear_summary+0xec>
    1c30:	e3a02000 	mov	r2, #0
    1c34:	e583203c 	str	r2, [r3, #60]	@ 0x3c
    1c38:	e59f3014 	ldr	r3, [pc, #20]	@ 1c54 <_clear_summary+0xec>
    1c3c:	e3a02000 	mov	r2, #0
    1c40:	e5832040 	str	r2, [r3, #64]	@ 0x40
    1c44:	e1a00000 	nop			@ (mov r0, r0)
    1c48:	e28bd000 	add	sp, fp, #0
    1c4c:	e49db004 	pop	{fp}		@ (ldr fp, [sp], #4)
    1c50:	e12fff1e 	bx	lr
    1c54:	004008e4 	.word	0x004008e4

00001c58 <_clear_pending>:
    1c58:	e52db004 	push	{fp}		@ (str fp, [sp, #-4]!)
    1c5c:	e28db000 	add	fp, sp, #0
    1c60:	e24dd00c 	sub	sp, sp, #12
    1c64:	e3a03000 	mov	r3, #0
    1c68:	e50b3008 	str	r3, [fp, #-8]
    1c6c:	ea000018 	b	1cd4 <_clear_pending+0x7c>
    1c70:	e59f207c 	ldr	r2, [pc, #124]	@ 1cf4 <_clear_pending+0x9c>
    1c74:	e51b3008 	ldr	r3, [fp, #-8]
    1c78:	e3a01000 	mov	r1, #0
    1c7c:	e7821203 	str	r1, [r2, r3, lsl #4]
    1c80:	e59f206c 	ldr	r2, [pc, #108]	@ 1cf4 <_clear_pending+0x9c>
    1c84:	e51b3008 	ldr	r3, [fp, #-8]
    1c88:	e1a03203 	lsl	r3, r3, #4
    1c8c:	e0823003 	add	r3, r2, r3
    1c90:	e3a02000 	mov	r2, #0
    1c94:	e5832004 	str	r2, [r3, #4]
    1c98:	e59f2054 	ldr	r2, [pc, #84]	@ 1cf4 <_clear_pending+0x9c>
    1c9c:	e51b3008 	ldr	r3, [fp, #-8]
    1ca0:	e1a03203 	lsl	r3, r3, #4
    1ca4:	e0823003 	add	r3, r2, r3
    1ca8:	e3a02000 	mov	r2, #0
    1cac:	e5832008 	str	r2, [r3, #8]
    1cb0:	e59f203c 	ldr	r2, [pc, #60]	@ 1cf4 <_clear_pending+0x9c>
    1cb4:	e51b3008 	ldr	r3, [fp, #-8]
    1cb8:	e1a03203 	lsl	r3, r3, #4
    1cbc:	e0823003 	add	r3, r2, r3
    1cc0:	e3a02000 	mov	r2, #0
    1cc4:	e5c3200c 	strb	r2, [r3, #12]
    1cc8:	e51b3008 	ldr	r3, [fp, #-8]
    1ccc:	e2833001 	add	r3, r3, #1
    1cd0:	e50b3008 	str	r3, [fp, #-8]
    1cd4:	e51b3008 	ldr	r3, [fp, #-8]
    1cd8:	e353007f 	cmp	r3, #127	@ 0x7f
    1cdc:	9affffe3 	bls	1c70 <_clear_pending+0x18>
    1ce0:	e1a00000 	nop			@ (mov r0, r0)
    1ce4:	e1a00000 	nop			@ (mov r0, r0)
    1ce8:	e28bd000 	add	sp, fp, #0
    1cec:	e49db004 	pop	{fp}		@ (ldr fp, [sp], #4)
    1cf0:	e12fff1e 	bx	lr
    1cf4:	004000e4 	.word	0x004000e4

00001cf8 <_find_slot>:
    1cf8:	e52db004 	push	{fp}		@ (str fp, [sp, #-4]!)
    1cfc:	e28db000 	add	fp, sp, #0
    1d00:	e24dd014 	sub	sp, sp, #20
    1d04:	e50b0010 	str	r0, [fp, #-16]
    1d08:	e3a03000 	mov	r3, #0
    1d0c:	e50b3008 	str	r3, [fp, #-8]
    1d10:	ea00001a 	b	1d80 <_find_slot+0x88>
    1d14:	e59f1084 	ldr	r1, [pc, #132]	@ 1da0 <_find_slot+0xa8>
    1d18:	e51b2008 	ldr	r2, [fp, #-8]
    1d1c:	e1a03002 	mov	r3, r2
    1d20:	e1a03103 	lsl	r3, r3, #2
    1d24:	e0833002 	add	r3, r3, r2
    1d28:	e1a03103 	lsl	r3, r3, #2
    1d2c:	e0813003 	add	r3, r1, r3
    1d30:	e2833010 	add	r3, r3, #16
    1d34:	e5d33000 	ldrb	r3, [r3]
    1d38:	e3530000 	cmp	r3, #0
    1d3c:	0a00000c 	beq	1d74 <_find_slot+0x7c>
    1d40:	e59f1058 	ldr	r1, [pc, #88]	@ 1da0 <_find_slot+0xa8>
    1d44:	e51b2008 	ldr	r2, [fp, #-8]
    1d48:	e1a03002 	mov	r3, r2
    1d4c:	e1a03103 	lsl	r3, r3, #2
    1d50:	e0833002 	add	r3, r3, r2
    1d54:	e1a03103 	lsl	r3, r3, #2
    1d58:	e0813003 	add	r3, r1, r3
    1d5c:	e5933000 	ldr	r3, [r3]
    1d60:	e51b2010 	ldr	r2, [fp, #-16]
    1d64:	e1520003 	cmp	r2, r3
    1d68:	1a000001 	bne	1d74 <_find_slot+0x7c>
    1d6c:	e51b3008 	ldr	r3, [fp, #-8]
    1d70:	ea000006 	b	1d90 <_find_slot+0x98>
    1d74:	e51b3008 	ldr	r3, [fp, #-8]
    1d78:	e2833001 	add	r3, r3, #1
    1d7c:	e50b3008 	str	r3, [fp, #-8]
    1d80:	e51b3008 	ldr	r3, [fp, #-8]
    1d84:	e3530007 	cmp	r3, #7
    1d88:	9affffe1 	bls	1d14 <_find_slot+0x1c>
    1d8c:	e3e03000 	mvn	r3, #0
    1d90:	e1a00003 	mov	r0, r3
    1d94:	e28bd000 	add	sp, fp, #0
    1d98:	e49db004 	pop	{fp}		@ (ldr fp, [sp], #4)
    1d9c:	e12fff1e 	bx	lr
    1da0:	00400044 	.word	0x00400044

00001da4 <_select_slot_for_write>:
    1da4:	e52db004 	push	{fp}		@ (str fp, [sp, #-4]!)
    1da8:	e28db000 	add	fp, sp, #0
    1dac:	e24dd024 	sub	sp, sp, #36	@ 0x24
    1db0:	e50b0020 	str	r0, [fp, #-32]	@ 0xffffffe0
    1db4:	e51b3020 	ldr	r3, [fp, #-32]	@ 0xffffffe0
    1db8:	e3a02000 	mov	r2, #0
    1dbc:	e5832000 	str	r2, [r3]
    1dc0:	e3a03000 	mov	r3, #0
    1dc4:	e50b3008 	str	r3, [fp, #-8]
    1dc8:	ea00000f 	b	1e0c <_select_slot_for_write+0x68>
    1dcc:	e59f1120 	ldr	r1, [pc, #288]	@ 1ef4 <_select_slot_for_write+0x150>
    1dd0:	e51b2008 	ldr	r2, [fp, #-8]
    1dd4:	e1a03002 	mov	r3, r2
    1dd8:	e1a03103 	lsl	r3, r3, #2
    1ddc:	e0833002 	add	r3, r3, r2
    1de0:	e1a03103 	lsl	r3, r3, #2
    1de4:	e0813003 	add	r3, r1, r3
    1de8:	e2833010 	add	r3, r3, #16
    1dec:	e5d33000 	ldrb	r3, [r3]
    1df0:	e3530000 	cmp	r3, #0
    1df4:	1a000001 	bne	1e00 <_select_slot_for_write+0x5c>
    1df8:	e51b3008 	ldr	r3, [fp, #-8]
    1dfc:	ea000038 	b	1ee4 <_select_slot_for_write+0x140>
    1e00:	e51b3008 	ldr	r3, [fp, #-8]
    1e04:	e2833001 	add	r3, r3, #1
    1e08:	e50b3008 	str	r3, [fp, #-8]
    1e0c:	e51b3008 	ldr	r3, [fp, #-8]
    1e10:	e3530007 	cmp	r3, #7
    1e14:	9affffec 	bls	1dcc <_select_slot_for_write+0x28>
    1e18:	e3a03000 	mov	r3, #0
    1e1c:	e50b300c 	str	r3, [fp, #-12]
    1e20:	e3a03001 	mov	r3, #1
    1e24:	e50b3010 	str	r3, [fp, #-16]
    1e28:	ea000026 	b	1ec8 <_select_slot_for_write+0x124>
    1e2c:	e51b2010 	ldr	r2, [fp, #-16]
    1e30:	e1a03002 	mov	r3, r2
    1e34:	e1a03103 	lsl	r3, r3, #2
    1e38:	e0833002 	add	r3, r3, r2
    1e3c:	e1a03103 	lsl	r3, r3, #2
    1e40:	e59f20ac 	ldr	r2, [pc, #172]	@ 1ef4 <_select_slot_for_write+0x150>
    1e44:	e0833002 	add	r3, r3, r2
    1e48:	e50b3014 	str	r3, [fp, #-20]	@ 0xffffffec
    1e4c:	e51b200c 	ldr	r2, [fp, #-12]
    1e50:	e1a03002 	mov	r3, r2
    1e54:	e1a03103 	lsl	r3, r3, #2
    1e58:	e0833002 	add	r3, r3, r2
    1e5c:	e1a03103 	lsl	r3, r3, #2
    1e60:	e59f208c 	ldr	r2, [pc, #140]	@ 1ef4 <_select_slot_for_write+0x150>
    1e64:	e0833002 	add	r3, r3, r2
    1e68:	e50b3018 	str	r3, [fp, #-24]	@ 0xffffffe8
    1e6c:	e51b3014 	ldr	r3, [fp, #-20]	@ 0xffffffec
    1e70:	e5932008 	ldr	r2, [r3, #8]
    1e74:	e51b3018 	ldr	r3, [fp, #-24]	@ 0xffffffe8
    1e78:	e5933008 	ldr	r3, [r3, #8]
    1e7c:	e1520003 	cmp	r2, r3
    1e80:	ba00000b 	blt	1eb4 <_select_slot_for_write+0x110>
    1e84:	e51b3014 	ldr	r3, [fp, #-20]	@ 0xffffffec
    1e88:	e5932008 	ldr	r2, [r3, #8]
    1e8c:	e51b3018 	ldr	r3, [fp, #-24]	@ 0xffffffe8
    1e90:	e5933008 	ldr	r3, [r3, #8]
    1e94:	e1520003 	cmp	r2, r3
    1e98:	1a000007 	bne	1ebc <_select_slot_for_write+0x118>
    1e9c:	e51b3014 	ldr	r3, [fp, #-20]	@ 0xffffffec
    1ea0:	e593200c 	ldr	r2, [r3, #12]
    1ea4:	e51b3018 	ldr	r3, [fp, #-24]	@ 0xffffffe8
    1ea8:	e593300c 	ldr	r3, [r3, #12]
    1eac:	e1520003 	cmp	r2, r3
    1eb0:	2a000001 	bcs	1ebc <_select_slot_for_write+0x118>
    1eb4:	e51b3010 	ldr	r3, [fp, #-16]
    1eb8:	e50b300c 	str	r3, [fp, #-12]
    1ebc:	e51b3010 	ldr	r3, [fp, #-16]
    1ec0:	e2833001 	add	r3, r3, #1
    1ec4:	e50b3010 	str	r3, [fp, #-16]
    1ec8:	e51b3010 	ldr	r3, [fp, #-16]
    1ecc:	e3530007 	cmp	r3, #7
    1ed0:	9affffd5 	bls	1e2c <_select_slot_for_write+0x88>
    1ed4:	e51b3020 	ldr	r3, [fp, #-32]	@ 0xffffffe0
    1ed8:	e3a02001 	mov	r2, #1
    1edc:	e5832000 	str	r2, [r3]
    1ee0:	e51b300c 	ldr	r3, [fp, #-12]
    1ee4:	e1a00003 	mov	r0, r3
    1ee8:	e28bd000 	add	sp, fp, #0
    1eec:	e49db004 	pop	{fp}		@ (ldr fp, [sp], #4)
    1ef0:	e12fff1e 	bx	lr
    1ef4:	00400044 	.word	0x00400044

00001ef8 <cra_state_init>:
    1ef8:	e92d4800 	push	{fp, lr}
    1efc:	e28db004 	add	fp, sp, #4
    1f00:	ebfffed5 	bl	1a5c <_clear_slots>
    1f04:	ebffff53 	bl	1c58 <_clear_pending>
    1f08:	e3a00000 	mov	r0, #0
    1f0c:	ebffff15 	bl	1b68 <_clear_summary>
    1f10:	e1a00000 	nop			@ (mov r0, r0)
    1f14:	e8bd8800 	pop	{fp, pc}

00001f18 <cra_state_reset>:
    1f18:	e92d4800 	push	{fp, lr}
    1f1c:	e28db004 	add	fp, sp, #4
    1f20:	e24dd008 	sub	sp, sp, #8
    1f24:	e59f3024 	ldr	r3, [pc, #36]	@ 1f50 <cra_state_reset+0x38>
    1f28:	e593302c 	ldr	r3, [r3, #44]	@ 0x2c
    1f2c:	e2833001 	add	r3, r3, #1
    1f30:	e50b3008 	str	r3, [fp, #-8]
    1f34:	ebfffec8 	bl	1a5c <_clear_slots>
    1f38:	ebffff46 	bl	1c58 <_clear_pending>
    1f3c:	e51b0008 	ldr	r0, [fp, #-8]
    1f40:	ebffff08 	bl	1b68 <_clear_summary>
    1f44:	e1a00000 	nop			@ (mov r0, r0)
    1f48:	e24bd004 	sub	sp, fp, #4
    1f4c:	e8bd8800 	pop	{fp, pc}
    1f50:	004008e4 	.word	0x004008e4

00001f54 <cra_state_write_context>:
    1f54:	e92d4800 	push	{fp, lr}
    1f58:	e28db004 	add	fp, sp, #4
    1f5c:	e24dd018 	sub	sp, sp, #24
    1f60:	e50b0010 	str	r0, [fp, #-16]
    1f64:	e50b1014 	str	r1, [fp, #-20]	@ 0xffffffec
    1f68:	e50b2018 	str	r2, [fp, #-24]	@ 0xffffffe8
    1f6c:	e50b301c 	str	r3, [fp, #-28]	@ 0xffffffe4
    1f70:	e51b0010 	ldr	r0, [fp, #-16]
    1f74:	ebffff5f 	bl	1cf8 <_find_slot>
    1f78:	e50b0008 	str	r0, [fp, #-8]
    1f7c:	e3a03000 	mov	r3, #0
    1f80:	e50b300c 	str	r3, [fp, #-12]
    1f84:	e51b3008 	ldr	r3, [fp, #-8]
    1f88:	e3530000 	cmp	r3, #0
    1f8c:	aa000003 	bge	1fa0 <cra_state_write_context+0x4c>
    1f90:	e24b300c 	sub	r3, fp, #12
    1f94:	e1a00003 	mov	r0, r3
    1f98:	ebffff81 	bl	1da4 <_select_slot_for_write>
    1f9c:	e50b0008 	str	r0, [fp, #-8]
    1fa0:	e51b3008 	ldr	r3, [fp, #-8]
    1fa4:	e3530000 	cmp	r3, #0
    1fa8:	aa000001 	bge	1fb4 <cra_state_write_context+0x60>
    1fac:	e3e03000 	mvn	r3, #0
    1fb0:	ea00004f 	b	20f4 <P2P_TABLE_SIZE+0xf4>
    1fb4:	e59f1144 	ldr	r1, [pc, #324]	@ 2100 <P2P_TABLE_SIZE+0x100>
    1fb8:	e51b2008 	ldr	r2, [fp, #-8]
    1fbc:	e1a03002 	mov	r3, r2
    1fc0:	e1a03103 	lsl	r3, r3, #2
    1fc4:	e0833002 	add	r3, r3, r2
    1fc8:	e1a03103 	lsl	r3, r3, #2
    1fcc:	e0813003 	add	r3, r1, r3
    1fd0:	e2833010 	add	r3, r3, #16
    1fd4:	e5d33000 	ldrb	r3, [r3]
    1fd8:	e3530000 	cmp	r3, #0
    1fdc:	1a000005 	bne	1ff8 <cra_state_write_context+0xa4>
    1fe0:	e59f311c 	ldr	r3, [pc, #284]	@ 2104 <P2P_TABLE_SIZE+0x104>
    1fe4:	e5933000 	ldr	r3, [r3]
    1fe8:	e2833001 	add	r3, r3, #1
    1fec:	e59f2110 	ldr	r2, [pc, #272]	@ 2104 <P2P_TABLE_SIZE+0x104>
    1ff0:	e5823000 	str	r3, [r2]
    1ff4:	ea000007 	b	2018 <P2P_TABLE_SIZE+0x18>
    1ff8:	e51b300c 	ldr	r3, [fp, #-12]
    1ffc:	e3530000 	cmp	r3, #0
    2000:	0a000004 	beq	2018 <P2P_TABLE_SIZE+0x18>
    2004:	e59f30f8 	ldr	r3, [pc, #248]	@ 2104 <P2P_TABLE_SIZE+0x104>
    2008:	e5933010 	ldr	r3, [r3, #16]
    200c:	e2833001 	add	r3, r3, #1
    2010:	e59f20ec 	ldr	r2, [pc, #236]	@ 2104 <P2P_TABLE_SIZE+0x104>
    2014:	e5823010 	str	r3, [r2, #16]
    2018:	e59f10e0 	ldr	r1, [pc, #224]	@ 2100 <P2P_TABLE_SIZE+0x100>
    201c:	e51b2008 	ldr	r2, [fp, #-8]
    2020:	e1a03002 	mov	r3, r2
    2024:	e1a03103 	lsl	r3, r3, #2
    2028:	e0833002 	add	r3, r3, r2
    202c:	e1a03103 	lsl	r3, r3, #2
    2030:	e0813003 	add	r3, r1, r3
    2034:	e51b2010 	ldr	r2, [fp, #-16]
    2038:	e5832000 	str	r2, [r3]
    203c:	e59f10bc 	ldr	r1, [pc, #188]	@ 2100 <P2P_TABLE_SIZE+0x100>
    2040:	e51b2008 	ldr	r2, [fp, #-8]
    2044:	e1a03002 	mov	r3, r2
    2048:	e1a03103 	lsl	r3, r3, #2
    204c:	e0833002 	add	r3, r3, r2
    2050:	e1a03103 	lsl	r3, r3, #2
    2054:	e0813003 	add	r3, r1, r3
    2058:	e2833004 	add	r3, r3, #4
    205c:	e51b2014 	ldr	r2, [fp, #-20]	@ 0xffffffec
    2060:	e5832000 	str	r2, [r3]
    2064:	e59f1094 	ldr	r1, [pc, #148]	@ 2100 <P2P_TABLE_SIZE+0x100>
    2068:	e51b2008 	ldr	r2, [fp, #-8]
    206c:	e1a03002 	mov	r3, r2
    2070:	e1a03103 	lsl	r3, r3, #2
    2074:	e0833002 	add	r3, r3, r2
    2078:	e1a03103 	lsl	r3, r3, #2
    207c:	e0813003 	add	r3, r1, r3
    2080:	e2833008 	add	r3, r3, #8
    2084:	e51b2018 	ldr	r2, [fp, #-24]	@ 0xffffffe8
    2088:	e5832000 	str	r2, [r3]
    208c:	e59f106c 	ldr	r1, [pc, #108]	@ 2100 <P2P_TABLE_SIZE+0x100>
    2090:	e51b2008 	ldr	r2, [fp, #-8]
    2094:	e1a03002 	mov	r3, r2
    2098:	e1a03103 	lsl	r3, r3, #2
    209c:	e0833002 	add	r3, r3, r2
    20a0:	e1a03103 	lsl	r3, r3, #2
    20a4:	e0813003 	add	r3, r1, r3
    20a8:	e283300c 	add	r3, r3, #12
    20ac:	e51b201c 	ldr	r2, [fp, #-28]	@ 0xffffffe4
    20b0:	e5832000 	str	r2, [r3]
    20b4:	e59f1044 	ldr	r1, [pc, #68]	@ 2100 <P2P_TABLE_SIZE+0x100>
    20b8:	e51b2008 	ldr	r2, [fp, #-8]
    20bc:	e1a03002 	mov	r3, r2
    20c0:	e1a03103 	lsl	r3, r3, #2
    20c4:	e0833002 	add	r3, r3, r2
    20c8:	e1a03103 	lsl	r3, r3, #2
    20cc:	e0813003 	add	r3, r1, r3
    20d0:	e2833010 	add	r3, r3, #16
    20d4:	e3a02001 	mov	r2, #1
    20d8:	e5c32000 	strb	r2, [r3]
    20dc:	e59f3020 	ldr	r3, [pc, #32]	@ 2104 <P2P_TABLE_SIZE+0x104>
    20e0:	e5933004 	ldr	r3, [r3, #4]
    20e4:	e2833001 	add	r3, r3, #1
    20e8:	e59f2014 	ldr	r2, [pc, #20]	@ 2104 <P2P_TABLE_SIZE+0x104>
    20ec:	e5823004 	str	r3, [r2, #4]
    20f0:	e3a03000 	mov	r3, #0
    20f4:	e1a00003 	mov	r0, r3
    20f8:	e24bd004 	sub	sp, fp, #4
    20fc:	e8bd8800 	pop	{fp, pc}
    2100:	00400044 	.word	0x00400044
    2104:	004008e4 	.word	0x004008e4

00002108 <cra_state_read_context>:
    2108:	e92d4800 	push	{fp, lr}
    210c:	e28db004 	add	fp, sp, #4
    2110:	e24dd018 	sub	sp, sp, #24
    2114:	e50b0010 	str	r0, [fp, #-16]
    2118:	e50b1014 	str	r1, [fp, #-20]	@ 0xffffffec
    211c:	e50b2018 	str	r2, [fp, #-24]	@ 0xffffffe8
    2120:	e51b0010 	ldr	r0, [fp, #-16]
    2124:	ebfffef3 	bl	1cf8 <_find_slot>
    2128:	e50b0008 	str	r0, [fp, #-8]
    212c:	e51b3008 	ldr	r3, [fp, #-8]
    2130:	e3530000 	cmp	r3, #0
    2134:	aa000006 	bge	2154 <cra_state_read_context+0x4c>
    2138:	e59f30a8 	ldr	r3, [pc, #168]	@ 21e8 <cra_state_read_context+0xe0>
    213c:	e593300c 	ldr	r3, [r3, #12]
    2140:	e2833001 	add	r3, r3, #1
    2144:	e59f209c 	ldr	r2, [pc, #156]	@ 21e8 <cra_state_read_context+0xe0>
    2148:	e582300c 	str	r3, [r2, #12]
    214c:	e3e03000 	mvn	r3, #0
    2150:	ea000021 	b	21dc <cra_state_read_context+0xd4>
    2154:	e51b3014 	ldr	r3, [fp, #-20]	@ 0xffffffec
    2158:	e3530000 	cmp	r3, #0
    215c:	0a00000a 	beq	218c <cra_state_read_context+0x84>
    2160:	e59f1084 	ldr	r1, [pc, #132]	@ 21ec <cra_state_read_context+0xe4>
    2164:	e51b2008 	ldr	r2, [fp, #-8]
    2168:	e1a03002 	mov	r3, r2
    216c:	e1a03103 	lsl	r3, r3, #2
    2170:	e0833002 	add	r3, r3, r2
    2174:	e1a03103 	lsl	r3, r3, #2
    2178:	e0813003 	add	r3, r1, r3
    217c:	e2833004 	add	r3, r3, #4
    2180:	e5932000 	ldr	r2, [r3]
    2184:	e51b3014 	ldr	r3, [fp, #-20]	@ 0xffffffec
    2188:	e5832000 	str	r2, [r3]
    218c:	e51b3018 	ldr	r3, [fp, #-24]	@ 0xffffffe8
    2190:	e3530000 	cmp	r3, #0
    2194:	0a00000a 	beq	21c4 <cra_state_read_context+0xbc>
    2198:	e59f104c 	ldr	r1, [pc, #76]	@ 21ec <cra_state_read_context+0xe4>
    219c:	e51b2008 	ldr	r2, [fp, #-8]
    21a0:	e1a03002 	mov	r3, r2
    21a4:	e1a03103 	lsl	r3, r3, #2
    21a8:	e0833002 	add	r3, r3, r2
    21ac:	e1a03103 	lsl	r3, r3, #2
    21b0:	e0813003 	add	r3, r1, r3
    21b4:	e2833008 	add	r3, r3, #8
    21b8:	e5932000 	ldr	r2, [r3]
    21bc:	e51b3018 	ldr	r3, [fp, #-24]	@ 0xffffffe8
    21c0:	e5832000 	str	r2, [r3]
    21c4:	e59f301c 	ldr	r3, [pc, #28]	@ 21e8 <cra_state_read_context+0xe0>
    21c8:	e5933008 	ldr	r3, [r3, #8]
    21cc:	e2833001 	add	r3, r3, #1
    21d0:	e59f2010 	ldr	r2, [pc, #16]	@ 21e8 <cra_state_read_context+0xe0>
    21d4:	e5823008 	str	r3, [r2, #8]
    21d8:	e3a03000 	mov	r3, #0
    21dc:	e1a00003 	mov	r0, r3
    21e0:	e24bd004 	sub	sp, fp, #4
    21e4:	e8bd8800 	pop	{fp, pc}
    21e8:	004008e4 	.word	0x004008e4
    21ec:	00400044 	.word	0x00400044

000021f0 <cra_state_active_slot_count>:
    21f0:	e52db004 	push	{fp}		@ (str fp, [sp, #-4]!)
    21f4:	e28db000 	add	fp, sp, #0
    21f8:	e59f3010 	ldr	r3, [pc, #16]	@ 2210 <cra_state_active_slot_count+0x20>
    21fc:	e5933000 	ldr	r3, [r3]
    2200:	e1a00003 	mov	r0, r3
    2204:	e28bd000 	add	sp, fp, #0
    2208:	e49db004 	pop	{fp}		@ (ldr fp, [sp], #4)
    220c:	e12fff1e 	bx	lr
    2210:	004008e4 	.word	0x004008e4

00002214 <cra_state_set_readout>:
    2214:	e52db004 	push	{fp}		@ (str fp, [sp, #-4]!)
    2218:	e28db000 	add	fp, sp, #0
    221c:	e24dd00c 	sub	sp, sp, #12
    2220:	e50b0008 	str	r0, [fp, #-8]
    2224:	e50b100c 	str	r1, [fp, #-12]
    2228:	e59f2020 	ldr	r2, [pc, #32]	@ 2250 <cra_state_set_readout+0x3c>
    222c:	e51b3008 	ldr	r3, [fp, #-8]
    2230:	e5823030 	str	r3, [r2, #48]	@ 0x30
    2234:	e59f2014 	ldr	r2, [pc, #20]	@ 2250 <cra_state_set_readout+0x3c>
    2238:	e51b300c 	ldr	r3, [fp, #-12]
    223c:	e5823034 	str	r3, [r2, #52]	@ 0x34
    2240:	e1a00000 	nop			@ (mov r0, r0)
    2244:	e28bd000 	add	sp, fp, #0
    2248:	e49db004 	pop	{fp}		@ (ldr fp, [sp], #4)
    224c:	e12fff1e 	bx	lr
    2250:	004008e4 	.word	0x004008e4

00002254 <cra_state_predict_readout>:
    2254:	e52db004 	push	{fp}		@ (str fp, [sp, #-4]!)
    2258:	e28db000 	add	fp, sp, #0
    225c:	e24dd00c 	sub	sp, sp, #12
    2260:	e50b0008 	str	r0, [fp, #-8]
    2264:	e59f3028 	ldr	r3, [pc, #40]	@ 2294 <cra_state_predict_readout+0x40>
    2268:	e5933030 	ldr	r3, [r3, #48]	@ 0x30
    226c:	e51b2008 	ldr	r2, [fp, #-8]
    2270:	e0030392 	mul	r3, r2, r3
    2274:	e1a027c3 	asr	r2, r3, #15
    2278:	e59f3014 	ldr	r3, [pc, #20]	@ 2294 <cra_state_predict_readout+0x40>
    227c:	e5933034 	ldr	r3, [r3, #52]	@ 0x34
    2280:	e0823003 	add	r3, r2, r3
    2284:	e1a00003 	mov	r0, r3
    2288:	e28bd000 	add	sp, fp, #0
    228c:	e49db004 	pop	{fp}		@ (ldr fp, [sp], #4)
    2290:	e12fff1e 	bx	lr
    2294:	004008e4 	.word	0x004008e4

00002298 <cra_state_record_decision>:
    2298:	e52db004 	push	{fp}		@ (str fp, [sp, #-4]!)
    229c:	e28db000 	add	fp, sp, #0
    22a0:	e24dd00c 	sub	sp, sp, #12
    22a4:	e50b0008 	str	r0, [fp, #-8]
    22a8:	e50b100c 	str	r1, [fp, #-12]
    22ac:	e59f3034 	ldr	r3, [pc, #52]	@ 22e8 <cra_state_record_decision+0x50>
    22b0:	e5933014 	ldr	r3, [r3, #20]
    22b4:	e2833001 	add	r3, r3, #1
    22b8:	e59f2028 	ldr	r2, [pc, #40]	@ 22e8 <cra_state_record_decision+0x50>
    22bc:	e5823014 	str	r3, [r2, #20]
    22c0:	e59f2020 	ldr	r2, [pc, #32]	@ 22e8 <cra_state_record_decision+0x50>
    22c4:	e51b3008 	ldr	r3, [fp, #-8]
    22c8:	e5823038 	str	r3, [r2, #56]	@ 0x38
    22cc:	e59f2014 	ldr	r2, [pc, #20]	@ 22e8 <cra_state_record_decision+0x50>
    22d0:	e51b300c 	ldr	r3, [fp, #-12]
    22d4:	e582303c 	str	r3, [r2, #60]	@ 0x3c
    22d8:	e1a00000 	nop			@ (mov r0, r0)
    22dc:	e28bd000 	add	sp, fp, #0
    22e0:	e49db004 	pop	{fp}		@ (ldr fp, [sp], #4)
    22e4:	e12fff1e 	bx	lr
    22e8:	004008e4 	.word	0x004008e4

000022ec <cra_state_record_reward>:
    22ec:	e52db004 	push	{fp}		@ (str fp, [sp, #-4]!)
    22f0:	e28db000 	add	fp, sp, #0
    22f4:	e24dd00c 	sub	sp, sp, #12
    22f8:	e50b0008 	str	r0, [fp, #-8]
    22fc:	e59f3028 	ldr	r3, [pc, #40]	@ 232c <cra_state_record_reward+0x40>
    2300:	e5933018 	ldr	r3, [r3, #24]
    2304:	e2833001 	add	r3, r3, #1
    2308:	e59f201c 	ldr	r2, [pc, #28]	@ 232c <cra_state_record_reward+0x40>
    230c:	e5823018 	str	r3, [r2, #24]
    2310:	e59f2014 	ldr	r2, [pc, #20]	@ 232c <cra_state_record_reward+0x40>
    2314:	e51b3008 	ldr	r3, [fp, #-8]
    2318:	e5823040 	str	r3, [r2, #64]	@ 0x40
    231c:	e1a00000 	nop			@ (mov r0, r0)
    2320:	e28bd000 	add	sp, fp, #0
    2324:	e49db004 	pop	{fp}		@ (ldr fp, [sp], #4)
    2328:	e12fff1e 	bx	lr
    232c:	004008e4 	.word	0x004008e4

00002330 <cra_state_apply_reward_to_readout>:
    2330:	e92d4800 	push	{fp, lr}
    2334:	e28db004 	add	fp, sp, #4
    2338:	e24dd018 	sub	sp, sp, #24
    233c:	e50b0018 	str	r0, [fp, #-24]	@ 0xffffffe8
    2340:	e50b101c 	str	r1, [fp, #-28]	@ 0xffffffe4
    2344:	e59f308c 	ldr	r3, [pc, #140]	@ 23d8 <cra_state_apply_reward_to_readout+0xa8>
    2348:	e593303c 	ldr	r3, [r3, #60]	@ 0x3c
    234c:	e51b2018 	ldr	r2, [fp, #-24]	@ 0xffffffe8
    2350:	e0423003 	sub	r3, r2, r3
    2354:	e50b3008 	str	r3, [fp, #-8]
    2358:	e59f3078 	ldr	r3, [pc, #120]	@ 23d8 <cra_state_apply_reward_to_readout+0xa8>
    235c:	e5933038 	ldr	r3, [r3, #56]	@ 0x38
    2360:	e51b2008 	ldr	r2, [fp, #-8]
    2364:	e0030392 	mul	r3, r2, r3
    2368:	e1a037c3 	asr	r3, r3, #15
    236c:	e51b201c 	ldr	r2, [fp, #-28]	@ 0xffffffe4
    2370:	e0030392 	mul	r3, r2, r3
    2374:	e1a037c3 	asr	r3, r3, #15
    2378:	e50b300c 	str	r3, [fp, #-12]
    237c:	e51b301c 	ldr	r3, [fp, #-28]	@ 0xffffffe4
    2380:	e51b2008 	ldr	r2, [fp, #-8]
    2384:	e0030392 	mul	r3, r2, r3
    2388:	e1a037c3 	asr	r3, r3, #15
    238c:	e50b3010 	str	r3, [fp, #-16]
    2390:	e59f3040 	ldr	r3, [pc, #64]	@ 23d8 <cra_state_apply_reward_to_readout+0xa8>
    2394:	e5932030 	ldr	r2, [r3, #48]	@ 0x30
    2398:	e51b300c 	ldr	r3, [fp, #-12]
    239c:	e0823003 	add	r3, r2, r3
    23a0:	e59f2030 	ldr	r2, [pc, #48]	@ 23d8 <cra_state_apply_reward_to_readout+0xa8>
    23a4:	e5823030 	str	r3, [r2, #48]	@ 0x30
    23a8:	e59f3028 	ldr	r3, [pc, #40]	@ 23d8 <cra_state_apply_reward_to_readout+0xa8>
    23ac:	e5932034 	ldr	r2, [r3, #52]	@ 0x34
    23b0:	e51b3010 	ldr	r3, [fp, #-16]
    23b4:	e0823003 	add	r3, r2, r3
    23b8:	e59f2018 	ldr	r2, [pc, #24]	@ 23d8 <cra_state_apply_reward_to_readout+0xa8>
    23bc:	e5823034 	str	r3, [r2, #52]	@ 0x34
    23c0:	e51b0018 	ldr	r0, [fp, #-24]	@ 0xffffffe8
    23c4:	ebffffc8 	bl	22ec <cra_state_record_reward>
    23c8:	e51b300c 	ldr	r3, [fp, #-12]
    23cc:	e1a00003 	mov	r0, r3
    23d0:	e24bd004 	sub	sp, fp, #4
    23d4:	e8bd8800 	pop	{fp, pc}
    23d8:	004008e4 	.word	0x004008e4

000023dc <_apply_reward_to_feature_prediction>:
    23dc:	e52db004 	push	{fp}		@ (str fp, [sp, #-4]!)
    23e0:	e28db000 	add	fp, sp, #0
    23e4:	e24dd024 	sub	sp, sp, #36	@ 0x24
    23e8:	e50b0018 	str	r0, [fp, #-24]	@ 0xffffffe8
    23ec:	e50b101c 	str	r1, [fp, #-28]	@ 0xffffffe4
    23f0:	e50b2020 	str	r2, [fp, #-32]	@ 0xffffffe0
    23f4:	e50b3024 	str	r3, [fp, #-36]	@ 0xffffffdc
    23f8:	e51b2020 	ldr	r2, [fp, #-32]	@ 0xffffffe0
    23fc:	e51b301c 	ldr	r3, [fp, #-28]	@ 0xffffffe4
    2400:	e0423003 	sub	r3, r2, r3
    2404:	e50b3008 	str	r3, [fp, #-8]
    2408:	e51b3008 	ldr	r3, [fp, #-8]
    240c:	e51b2018 	ldr	r2, [fp, #-24]	@ 0xffffffe8
    2410:	e0030392 	mul	r3, r2, r3
    2414:	e1a037c3 	asr	r3, r3, #15
    2418:	e51b2024 	ldr	r2, [fp, #-36]	@ 0xffffffdc
    241c:	e0030392 	mul	r3, r2, r3
    2420:	e1a037c3 	asr	r3, r3, #15
    2424:	e50b300c 	str	r3, [fp, #-12]
    2428:	e51b3024 	ldr	r3, [fp, #-36]	@ 0xffffffdc
    242c:	e51b2008 	ldr	r2, [fp, #-8]
    2430:	e0030392 	mul	r3, r2, r3
    2434:	e1a037c3 	asr	r3, r3, #15
    2438:	e50b3010 	str	r3, [fp, #-16]
    243c:	e59f3074 	ldr	r3, [pc, #116]	@ 24b8 <_apply_reward_to_feature_prediction+0xdc>
    2440:	e5932030 	ldr	r2, [r3, #48]	@ 0x30
    2444:	e51b300c 	ldr	r3, [fp, #-12]
    2448:	e0823003 	add	r3, r2, r3
    244c:	e59f2064 	ldr	r2, [pc, #100]	@ 24b8 <_apply_reward_to_feature_prediction+0xdc>
    2450:	e5823030 	str	r3, [r2, #48]	@ 0x30
    2454:	e59f305c 	ldr	r3, [pc, #92]	@ 24b8 <_apply_reward_to_feature_prediction+0xdc>
    2458:	e5932034 	ldr	r2, [r3, #52]	@ 0x34
    245c:	e51b3010 	ldr	r3, [fp, #-16]
    2460:	e0823003 	add	r3, r2, r3
    2464:	e59f204c 	ldr	r2, [pc, #76]	@ 24b8 <_apply_reward_to_feature_prediction+0xdc>
    2468:	e5823034 	str	r3, [r2, #52]	@ 0x34
    246c:	e59f3044 	ldr	r3, [pc, #68]	@ 24b8 <_apply_reward_to_feature_prediction+0xdc>
    2470:	e5933018 	ldr	r3, [r3, #24]
    2474:	e2833001 	add	r3, r3, #1
    2478:	e59f2038 	ldr	r2, [pc, #56]	@ 24b8 <_apply_reward_to_feature_prediction+0xdc>
    247c:	e5823018 	str	r3, [r2, #24]
    2480:	e59f2030 	ldr	r2, [pc, #48]	@ 24b8 <_apply_reward_to_feature_prediction+0xdc>
    2484:	e51b3018 	ldr	r3, [fp, #-24]	@ 0xffffffe8
    2488:	e5823038 	str	r3, [r2, #56]	@ 0x38
    248c:	e59f2024 	ldr	r2, [pc, #36]	@ 24b8 <_apply_reward_to_feature_prediction+0xdc>
    2490:	e51b301c 	ldr	r3, [fp, #-28]	@ 0xffffffe4
    2494:	e582303c 	str	r3, [r2, #60]	@ 0x3c
    2498:	e59f2018 	ldr	r2, [pc, #24]	@ 24b8 <_apply_reward_to_feature_prediction+0xdc>
    249c:	e51b3020 	ldr	r3, [fp, #-32]	@ 0xffffffe0
    24a0:	e5823040 	str	r3, [r2, #64]	@ 0x40
    24a4:	e51b300c 	ldr	r3, [fp, #-12]
    24a8:	e1a00003 	mov	r0, r3
    24ac:	e28bd000 	add	sp, fp, #0
    24b0:	e49db004 	pop	{fp}		@ (ldr fp, [sp], #4)
    24b4:	e12fff1e 	bx	lr
    24b8:	004008e4 	.word	0x004008e4

000024bc <cra_state_schedule_pending_horizon>:
    24bc:	e52db004 	push	{fp}		@ (str fp, [sp, #-4]!)
    24c0:	e28db000 	add	fp, sp, #0
    24c4:	e24dd01c 	sub	sp, sp, #28
    24c8:	e50b0010 	str	r0, [fp, #-16]
    24cc:	e50b1014 	str	r1, [fp, #-20]	@ 0xffffffec
    24d0:	e50b2018 	str	r2, [fp, #-24]	@ 0xffffffe8
    24d4:	e3a03000 	mov	r3, #0
    24d8:	e50b3008 	str	r3, [fp, #-8]
    24dc:	ea00002b 	b	2590 <cra_state_schedule_pending_horizon+0xd4>
    24e0:	e59f20dc 	ldr	r2, [pc, #220]	@ 25c4 <cra_state_schedule_pending_horizon+0x108>
    24e4:	e51b3008 	ldr	r3, [fp, #-8]
    24e8:	e1a03203 	lsl	r3, r3, #4
    24ec:	e0823003 	add	r3, r2, r3
    24f0:	e5d3300c 	ldrb	r3, [r3, #12]
    24f4:	e3530000 	cmp	r3, #0
    24f8:	1a000021 	bne	2584 <cra_state_schedule_pending_horizon+0xc8>
    24fc:	e59f10c0 	ldr	r1, [pc, #192]	@ 25c4 <cra_state_schedule_pending_horizon+0x108>
    2500:	e51b3008 	ldr	r3, [fp, #-8]
    2504:	e51b2018 	ldr	r2, [fp, #-24]	@ 0xffffffe8
    2508:	e7812203 	str	r2, [r1, r3, lsl #4]
    250c:	e59f20b0 	ldr	r2, [pc, #176]	@ 25c4 <cra_state_schedule_pending_horizon+0x108>
    2510:	e51b3008 	ldr	r3, [fp, #-8]
    2514:	e1a03203 	lsl	r3, r3, #4
    2518:	e0823003 	add	r3, r2, r3
    251c:	e51b2010 	ldr	r2, [fp, #-16]
    2520:	e5832004 	str	r2, [r3, #4]
    2524:	e59f2098 	ldr	r2, [pc, #152]	@ 25c4 <cra_state_schedule_pending_horizon+0x108>
    2528:	e51b3008 	ldr	r3, [fp, #-8]
    252c:	e1a03203 	lsl	r3, r3, #4
    2530:	e0823003 	add	r3, r2, r3
    2534:	e51b2014 	ldr	r2, [fp, #-20]	@ 0xffffffec
    2538:	e5832008 	str	r2, [r3, #8]
    253c:	e59f2080 	ldr	r2, [pc, #128]	@ 25c4 <cra_state_schedule_pending_horizon+0x108>
    2540:	e51b3008 	ldr	r3, [fp, #-8]
    2544:	e1a03203 	lsl	r3, r3, #4
    2548:	e0823003 	add	r3, r2, r3
    254c:	e3a02001 	mov	r2, #1
    2550:	e5c3200c 	strb	r2, [r3, #12]
    2554:	e59f306c 	ldr	r3, [pc, #108]	@ 25c8 <cra_state_schedule_pending_horizon+0x10c>
    2558:	e593301c 	ldr	r3, [r3, #28]
    255c:	e2833001 	add	r3, r3, #1
    2560:	e59f2060 	ldr	r2, [pc, #96]	@ 25c8 <cra_state_schedule_pending_horizon+0x10c>
    2564:	e582301c 	str	r3, [r2, #28]
    2568:	e59f3058 	ldr	r3, [pc, #88]	@ 25c8 <cra_state_schedule_pending_horizon+0x10c>
    256c:	e5933028 	ldr	r3, [r3, #40]	@ 0x28
    2570:	e2833001 	add	r3, r3, #1
    2574:	e59f204c 	ldr	r2, [pc, #76]	@ 25c8 <cra_state_schedule_pending_horizon+0x10c>
    2578:	e5823028 	str	r3, [r2, #40]	@ 0x28
    257c:	e3a03000 	mov	r3, #0
    2580:	ea00000b 	b	25b4 <cra_state_schedule_pending_horizon+0xf8>
    2584:	e51b3008 	ldr	r3, [fp, #-8]
    2588:	e2833001 	add	r3, r3, #1
    258c:	e50b3008 	str	r3, [fp, #-8]
    2590:	e51b3008 	ldr	r3, [fp, #-8]
    2594:	e353007f 	cmp	r3, #127	@ 0x7f
    2598:	9affffd0 	bls	24e0 <cra_state_schedule_pending_horizon+0x24>
    259c:	e59f3024 	ldr	r3, [pc, #36]	@ 25c8 <cra_state_schedule_pending_horizon+0x10c>
    25a0:	e5933024 	ldr	r3, [r3, #36]	@ 0x24
    25a4:	e2833001 	add	r3, r3, #1
    25a8:	e59f2018 	ldr	r2, [pc, #24]	@ 25c8 <cra_state_schedule_pending_horizon+0x10c>
    25ac:	e5823024 	str	r3, [r2, #36]	@ 0x24
    25b0:	e3e03000 	mvn	r3, #0
    25b4:	e1a00003 	mov	r0, r3
    25b8:	e28bd000 	add	sp, fp, #0
    25bc:	e49db004 	pop	{fp}		@ (ldr fp, [sp], #4)
    25c0:	e12fff1e 	bx	lr
    25c4:	004000e4 	.word	0x004000e4
    25c8:	004008e4 	.word	0x004008e4

000025cc <cra_state_mature_pending_horizons>:
    25cc:	e92d4800 	push	{fp, lr}
    25d0:	e28db004 	add	fp, sp, #4
    25d4:	e24dd018 	sub	sp, sp, #24
    25d8:	e50b0010 	str	r0, [fp, #-16]
    25dc:	e50b1014 	str	r1, [fp, #-20]	@ 0xffffffec
    25e0:	e50b2018 	str	r2, [fp, #-24]	@ 0xffffffe8
    25e4:	e3a03000 	mov	r3, #0
    25e8:	e50b3008 	str	r3, [fp, #-8]
    25ec:	e3a03000 	mov	r3, #0
    25f0:	e50b300c 	str	r3, [fp, #-12]
    25f4:	ea000033 	b	26c8 <cra_state_mature_pending_horizons+0xfc>
    25f8:	e59f20e4 	ldr	r2, [pc, #228]	@ 26e4 <cra_state_mature_pending_horizons+0x118>
    25fc:	e51b300c 	ldr	r3, [fp, #-12]
    2600:	e1a03203 	lsl	r3, r3, #4
    2604:	e0823003 	add	r3, r2, r3
    2608:	e5d3300c 	ldrb	r3, [r3, #12]
    260c:	e3530000 	cmp	r3, #0
    2610:	0a000029 	beq	26bc <cra_state_mature_pending_horizons+0xf0>
    2614:	e59f20c8 	ldr	r2, [pc, #200]	@ 26e4 <cra_state_mature_pending_horizons+0x118>
    2618:	e51b300c 	ldr	r3, [fp, #-12]
    261c:	e7923203 	ldr	r3, [r2, r3, lsl #4]
    2620:	e51b2010 	ldr	r2, [fp, #-16]
    2624:	e1520003 	cmp	r2, r3
    2628:	3a000023 	bcc	26bc <cra_state_mature_pending_horizons+0xf0>
    262c:	e59f20b0 	ldr	r2, [pc, #176]	@ 26e4 <cra_state_mature_pending_horizons+0x118>
    2630:	e51b300c 	ldr	r3, [fp, #-12]
    2634:	e1a03203 	lsl	r3, r3, #4
    2638:	e0823003 	add	r3, r2, r3
    263c:	e5930004 	ldr	r0, [r3, #4]
    2640:	e59f209c 	ldr	r2, [pc, #156]	@ 26e4 <cra_state_mature_pending_horizons+0x118>
    2644:	e51b300c 	ldr	r3, [fp, #-12]
    2648:	e1a03203 	lsl	r3, r3, #4
    264c:	e0823003 	add	r3, r2, r3
    2650:	e5931008 	ldr	r1, [r3, #8]
    2654:	e51b3018 	ldr	r3, [fp, #-24]	@ 0xffffffe8
    2658:	e51b2014 	ldr	r2, [fp, #-20]	@ 0xffffffec
    265c:	ebffff5e 	bl	23dc <_apply_reward_to_feature_prediction>
    2660:	e59f207c 	ldr	r2, [pc, #124]	@ 26e4 <cra_state_mature_pending_horizons+0x118>
    2664:	e51b300c 	ldr	r3, [fp, #-12]
    2668:	e1a03203 	lsl	r3, r3, #4
    266c:	e0823003 	add	r3, r2, r3
    2670:	e3a02000 	mov	r2, #0
    2674:	e5c3200c 	strb	r2, [r3, #12]
    2678:	e59f3068 	ldr	r3, [pc, #104]	@ 26e8 <cra_state_mature_pending_horizons+0x11c>
    267c:	e5933028 	ldr	r3, [r3, #40]	@ 0x28
    2680:	e3530000 	cmp	r3, #0
    2684:	0a000004 	beq	269c <cra_state_mature_pending_horizons+0xd0>
    2688:	e59f3058 	ldr	r3, [pc, #88]	@ 26e8 <cra_state_mature_pending_horizons+0x11c>
    268c:	e5933028 	ldr	r3, [r3, #40]	@ 0x28
    2690:	e2433001 	sub	r3, r3, #1
    2694:	e59f204c 	ldr	r2, [pc, #76]	@ 26e8 <cra_state_mature_pending_horizons+0x11c>
    2698:	e5823028 	str	r3, [r2, #40]	@ 0x28
    269c:	e59f3044 	ldr	r3, [pc, #68]	@ 26e8 <cra_state_mature_pending_horizons+0x11c>
    26a0:	e5933020 	ldr	r3, [r3, #32]
    26a4:	e2833001 	add	r3, r3, #1
    26a8:	e59f2038 	ldr	r2, [pc, #56]	@ 26e8 <cra_state_mature_pending_horizons+0x11c>
    26ac:	e5823020 	str	r3, [r2, #32]
    26b0:	e51b3008 	ldr	r3, [fp, #-8]
    26b4:	e2833001 	add	r3, r3, #1
    26b8:	e50b3008 	str	r3, [fp, #-8]
    26bc:	e51b300c 	ldr	r3, [fp, #-12]
    26c0:	e2833001 	add	r3, r3, #1
    26c4:	e50b300c 	str	r3, [fp, #-12]
    26c8:	e51b300c 	ldr	r3, [fp, #-12]
    26cc:	e353007f 	cmp	r3, #127	@ 0x7f
    26d0:	9affffc8 	bls	25f8 <cra_state_mature_pending_horizons+0x2c>
    26d4:	e51b3008 	ldr	r3, [fp, #-8]
    26d8:	e1a00003 	mov	r0, r3
    26dc:	e24bd004 	sub	sp, fp, #4
    26e0:	e8bd8800 	pop	{fp, pc}
    26e4:	004000e4 	.word	0x004000e4
    26e8:	004008e4 	.word	0x004008e4

000026ec <cra_state_active_pending_count>:
    26ec:	e52db004 	push	{fp}		@ (str fp, [sp, #-4]!)
    26f0:	e28db000 	add	fp, sp, #0
    26f4:	e59f3010 	ldr	r3, [pc, #16]	@ 270c <cra_state_active_pending_count+0x20>
    26f8:	e5933028 	ldr	r3, [r3, #40]	@ 0x28
    26fc:	e1a00003 	mov	r0, r3
    2700:	e28bd000 	add	sp, fp, #0
    2704:	e49db004 	pop	{fp}		@ (ldr fp, [sp], #4)
    2708:	e12fff1e 	bx	lr
    270c:	004008e4 	.word	0x004008e4

00002710 <cra_state_get_summary>:
    2710:	e92d4800 	push	{fp, lr}
    2714:	e28db004 	add	fp, sp, #4
    2718:	e24dd008 	sub	sp, sp, #8
    271c:	e50b0008 	str	r0, [fp, #-8]
    2720:	e51b3008 	ldr	r3, [fp, #-8]
    2724:	e3530000 	cmp	r3, #0
    2728:	0a000007 	beq	274c <cra_state_get_summary+0x3c>
    272c:	e51b3008 	ldr	r3, [fp, #-8]
    2730:	e59f2020 	ldr	r2, [pc, #32]	@ 2758 <cra_state_get_summary+0x48>
    2734:	e1a00003 	mov	r0, r3
    2738:	e1a01002 	mov	r1, r2
    273c:	e3a03044 	mov	r3, #68	@ 0x44
    2740:	e1a02003 	mov	r2, r3
    2744:	eb000b13 	bl	5398 <memcpy>
    2748:	ea000000 	b	2750 <cra_state_get_summary+0x40>
    274c:	e1a00000 	nop			@ (mov r0, r0)
    2750:	e24bd004 	sub	sp, fp, #4
    2754:	e8bd8800 	pop	{fp, pc}
    2758:	004008e4 	.word	0x004008e4

0000275c <spin1_msg_free>:
    275c:	e92d4800 	push	{fp, lr}
    2760:	e28db004 	add	fp, sp, #4
    2764:	e24dd008 	sub	sp, sp, #8
    2768:	e50b0008 	str	r0, [fp, #-8]
    276c:	e51b0008 	ldr	r0, [fp, #-8]
    2770:	fa00039b 	blx	35e4 <sark_msg_free>
    2774:	e1a00000 	nop			@ (mov r0, r0)
    2778:	e24bd004 	sub	sp, fp, #4
    277c:	e8bd8800 	pop	{fp, pc}

00002780 <spin1_msg_get>:
    2780:	e92d4800 	push	{fp, lr}
    2784:	e28db004 	add	fp, sp, #4
    2788:	fa000389 	blx	35b4 <sark_msg_get>
    278c:	e1a03000 	mov	r3, r0
    2790:	e1a00003 	mov	r0, r3
    2794:	e8bd8800 	pop	{fp, pc}

00002798 <spin1_send_sdp_msg>:
    2798:	e92d4800 	push	{fp, lr}
    279c:	e28db004 	add	fp, sp, #4
    27a0:	e24dd008 	sub	sp, sp, #8
    27a4:	e50b0008 	str	r0, [fp, #-8]
    27a8:	e50b100c 	str	r1, [fp, #-12]
    27ac:	e51b100c 	ldr	r1, [fp, #-12]
    27b0:	e51b0008 	ldr	r0, [fp, #-8]
    27b4:	fa0003fb 	blx	37a8 <sark_msg_send>
    27b8:	e1a03000 	mov	r3, r0
    27bc:	e1a00003 	mov	r0, r3
    27c0:	e24bd004 	sub	sp, fp, #4
    27c4:	e8bd8800 	pop	{fp, pc}

000027c8 <_write_u32>:
    27c8:	e52db004 	push	{fp}		@ (str fp, [sp, #-4]!)
    27cc:	e28db000 	add	fp, sp, #0
    27d0:	e24dd00c 	sub	sp, sp, #12
    27d4:	e50b0008 	str	r0, [fp, #-8]
    27d8:	e50b100c 	str	r1, [fp, #-12]
    27dc:	e51b300c 	ldr	r3, [fp, #-12]
    27e0:	e20320ff 	and	r2, r3, #255	@ 0xff
    27e4:	e51b3008 	ldr	r3, [fp, #-8]
    27e8:	e5c32000 	strb	r2, [r3]
    27ec:	e51b300c 	ldr	r3, [fp, #-12]
    27f0:	e1a02423 	lsr	r2, r3, #8
    27f4:	e51b3008 	ldr	r3, [fp, #-8]
    27f8:	e2833001 	add	r3, r3, #1
    27fc:	e20220ff 	and	r2, r2, #255	@ 0xff
    2800:	e5c32000 	strb	r2, [r3]
    2804:	e51b300c 	ldr	r3, [fp, #-12]
    2808:	e1a02823 	lsr	r2, r3, #16
    280c:	e51b3008 	ldr	r3, [fp, #-8]
    2810:	e2833002 	add	r3, r3, #2
    2814:	e20220ff 	and	r2, r2, #255	@ 0xff
    2818:	e5c32000 	strb	r2, [r3]
    281c:	e51b300c 	ldr	r3, [fp, #-12]
    2820:	e1a02c23 	lsr	r2, r3, #24
    2824:	e51b3008 	ldr	r3, [fp, #-8]
    2828:	e2833003 	add	r3, r3, #3
    282c:	e20220ff 	and	r2, r2, #255	@ 0xff
    2830:	e5c32000 	strb	r2, [r3]
    2834:	e1a00000 	nop			@ (mov r0, r0)
    2838:	e28bd000 	add	sp, fp, #0
    283c:	e49db004 	pop	{fp}		@ (ldr fp, [sp], #4)
    2840:	e12fff1e 	bx	lr

00002844 <_write_s32>:
    2844:	e92d4800 	push	{fp, lr}
    2848:	e28db004 	add	fp, sp, #4
    284c:	e24dd008 	sub	sp, sp, #8
    2850:	e50b0008 	str	r0, [fp, #-8]
    2854:	e50b100c 	str	r1, [fp, #-12]
    2858:	e51b300c 	ldr	r3, [fp, #-12]
    285c:	e1a01003 	mov	r1, r3
    2860:	e51b0008 	ldr	r0, [fp, #-8]
    2864:	ebffffd7 	bl	27c8 <_write_u32>
    2868:	e1a00000 	nop			@ (mov r0, r0)
    286c:	e24bd004 	sub	sp, fp, #4
    2870:	e8bd8800 	pop	{fp, pc}

00002874 <_handle_birth>:
    2874:	e92d4800 	push	{fp, lr}
    2878:	e28db004 	add	fp, sp, #4
    287c:	e24dd018 	sub	sp, sp, #24
    2880:	e50b0018 	str	r0, [fp, #-24]	@ 0xffffffe8
    2884:	e51b3018 	ldr	r3, [fp, #-24]	@ 0xffffffe8
    2888:	e5933014 	ldr	r3, [r3, #20]
    288c:	e50b3008 	str	r3, [fp, #-8]
    2890:	e51b0008 	ldr	r0, [fp, #-8]
    2894:	ebfff77d 	bl	690 <neuron_birth>
    2898:	e50b000c 	str	r0, [fp, #-12]
    289c:	e3a03001 	mov	r3, #1
    28a0:	e54b3014 	strb	r3, [fp, #-20]	@ 0xffffffec
    28a4:	e51b300c 	ldr	r3, [fp, #-12]
    28a8:	e3530000 	cmp	r3, #0
    28ac:	03a03001 	moveq	r3, #1
    28b0:	13a03000 	movne	r3, #0
    28b4:	e20330ff 	and	r3, r3, #255	@ 0xff
    28b8:	e54b3013 	strb	r3, [fp, #-19]	@ 0xffffffed
    28bc:	e51b3008 	ldr	r3, [fp, #-8]
    28c0:	e20330ff 	and	r3, r3, #255	@ 0xff
    28c4:	e54b3012 	strb	r3, [fp, #-18]	@ 0xffffffee
    28c8:	e51b3008 	ldr	r3, [fp, #-8]
    28cc:	e1a03423 	lsr	r3, r3, #8
    28d0:	e20330ff 	and	r3, r3, #255	@ 0xff
    28d4:	e54b3011 	strb	r3, [fp, #-17]	@ 0xffffffef
    28d8:	e51b3008 	ldr	r3, [fp, #-8]
    28dc:	e1a03823 	lsr	r3, r3, #16
    28e0:	e20330ff 	and	r3, r3, #255	@ 0xff
    28e4:	e54b3010 	strb	r3, [fp, #-16]
    28e8:	e51b3008 	ldr	r3, [fp, #-8]
    28ec:	e1a03c23 	lsr	r3, r3, #24
    28f0:	e20330ff 	and	r3, r3, #255	@ 0xff
    28f4:	e54b300f 	strb	r3, [fp, #-15]
    28f8:	ebfff866 	bl	a98 <neuron_count>
    28fc:	e1a03000 	mov	r3, r0
    2900:	e20330ff 	and	r3, r3, #255	@ 0xff
    2904:	e54b300e 	strb	r3, [fp, #-14]
    2908:	ebfff862 	bl	a98 <neuron_count>
    290c:	e1a03000 	mov	r3, r0
    2910:	e1a03423 	lsr	r3, r3, #8
    2914:	e20330ff 	and	r3, r3, #255	@ 0xff
    2918:	e54b300d 	strb	r3, [fp, #-13]
    291c:	e24b3014 	sub	r3, fp, #20
    2920:	e3a02008 	mov	r2, #8
    2924:	e1a01003 	mov	r1, r3
    2928:	e51b0018 	ldr	r0, [fp, #-24]	@ 0xffffffe8
    292c:	eb0001be 	bl	302c <sdp_send_reply>
    2930:	e1a00000 	nop			@ (mov r0, r0)
    2934:	e24bd004 	sub	sp, fp, #4
    2938:	e8bd8800 	pop	{fp, pc}

0000293c <_handle_death>:
    293c:	e92d4800 	push	{fp, lr}
    2940:	e28db004 	add	fp, sp, #4
    2944:	e24dd018 	sub	sp, sp, #24
    2948:	e50b0018 	str	r0, [fp, #-24]	@ 0xffffffe8
    294c:	e51b3018 	ldr	r3, [fp, #-24]	@ 0xffffffe8
    2950:	e5933014 	ldr	r3, [r3, #20]
    2954:	e50b3008 	str	r3, [fp, #-8]
    2958:	e51b0008 	ldr	r0, [fp, #-8]
    295c:	ebfff79a 	bl	7cc <neuron_death>
    2960:	e50b000c 	str	r0, [fp, #-12]
    2964:	e3a03002 	mov	r3, #2
    2968:	e54b3010 	strb	r3, [fp, #-16]
    296c:	e51b300c 	ldr	r3, [fp, #-12]
    2970:	e3530000 	cmp	r3, #0
    2974:	13a03001 	movne	r3, #1
    2978:	03a03000 	moveq	r3, #0
    297c:	e20330ff 	and	r3, r3, #255	@ 0xff
    2980:	e54b300f 	strb	r3, [fp, #-15]
    2984:	ebfff843 	bl	a98 <neuron_count>
    2988:	e1a03000 	mov	r3, r0
    298c:	e20330ff 	and	r3, r3, #255	@ 0xff
    2990:	e54b300e 	strb	r3, [fp, #-14]
    2994:	ebfff83f 	bl	a98 <neuron_count>
    2998:	e1a03000 	mov	r3, r0
    299c:	e1a03423 	lsr	r3, r3, #8
    29a0:	e20330ff 	and	r3, r3, #255	@ 0xff
    29a4:	e54b300d 	strb	r3, [fp, #-13]
    29a8:	e24b3010 	sub	r3, fp, #16
    29ac:	e3a02004 	mov	r2, #4
    29b0:	e1a01003 	mov	r1, r3
    29b4:	e51b0018 	ldr	r0, [fp, #-24]	@ 0xffffffe8
    29b8:	eb00019b 	bl	302c <sdp_send_reply>
    29bc:	e1a00000 	nop			@ (mov r0, r0)
    29c0:	e24bd004 	sub	sp, fp, #4
    29c4:	e8bd8800 	pop	{fp, pc}

000029c8 <_handle_dopamine>:
    29c8:	e92d4800 	push	{fp, lr}
    29cc:	e28db004 	add	fp, sp, #4
    29d0:	e24dd010 	sub	sp, sp, #16
    29d4:	e50b0010 	str	r0, [fp, #-16]
    29d8:	e51b3010 	ldr	r3, [fp, #-16]
    29dc:	e5933014 	ldr	r3, [r3, #20]
    29e0:	e1a02003 	mov	r2, r3
    29e4:	e59f307c 	ldr	r3, [pc, #124]	@ 2a68 <_handle_dopamine+0xa0>
    29e8:	e5832000 	str	r2, [r3]
    29ec:	e3a03003 	mov	r3, #3
    29f0:	e54b300c 	strb	r3, [fp, #-12]
    29f4:	e3a03000 	mov	r3, #0
    29f8:	e54b300b 	strb	r3, [fp, #-11]
    29fc:	e59f3064 	ldr	r3, [pc, #100]	@ 2a68 <_handle_dopamine+0xa0>
    2a00:	e5933000 	ldr	r3, [r3]
    2a04:	e20330ff 	and	r3, r3, #255	@ 0xff
    2a08:	e54b300a 	strb	r3, [fp, #-10]
    2a0c:	e59f3054 	ldr	r3, [pc, #84]	@ 2a68 <_handle_dopamine+0xa0>
    2a10:	e5933000 	ldr	r3, [r3]
    2a14:	e1a03443 	asr	r3, r3, #8
    2a18:	e20330ff 	and	r3, r3, #255	@ 0xff
    2a1c:	e54b3009 	strb	r3, [fp, #-9]
    2a20:	e59f3040 	ldr	r3, [pc, #64]	@ 2a68 <_handle_dopamine+0xa0>
    2a24:	e5933000 	ldr	r3, [r3]
    2a28:	e1a03843 	asr	r3, r3, #16
    2a2c:	e20330ff 	and	r3, r3, #255	@ 0xff
    2a30:	e54b3008 	strb	r3, [fp, #-8]
    2a34:	e59f302c 	ldr	r3, [pc, #44]	@ 2a68 <_handle_dopamine+0xa0>
    2a38:	e5933000 	ldr	r3, [r3]
    2a3c:	e1a03c43 	asr	r3, r3, #24
    2a40:	e20330ff 	and	r3, r3, #255	@ 0xff
    2a44:	e54b3007 	strb	r3, [fp, #-7]
    2a48:	e24b300c 	sub	r3, fp, #12
    2a4c:	e3a02006 	mov	r2, #6
    2a50:	e1a01003 	mov	r1, r3
    2a54:	e51b0010 	ldr	r0, [fp, #-16]
    2a58:	eb000173 	bl	302c <sdp_send_reply>
    2a5c:	e1a00000 	nop			@ (mov r0, r0)
    2a60:	e24bd004 	sub	sp, fp, #4
    2a64:	e8bd8800 	pop	{fp, pc}
    2a68:	00400014 	.word	0x00400014

00002a6c <_handle_read_spikes>:
    2a6c:	e92d4800 	push	{fp, lr}
    2a70:	e28db004 	add	fp, sp, #4
    2a74:	e24dd018 	sub	sp, sp, #24
    2a78:	e50b0018 	str	r0, [fp, #-24]	@ 0xffffffe8
    2a7c:	e3a03004 	mov	r3, #4
    2a80:	e54b3010 	strb	r3, [fp, #-16]
    2a84:	e3a03000 	mov	r3, #0
    2a88:	e54b300f 	strb	r3, [fp, #-15]
    2a8c:	ebfff801 	bl	a98 <neuron_count>
    2a90:	e50b0008 	str	r0, [fp, #-8]
    2a94:	e51b3008 	ldr	r3, [fp, #-8]
    2a98:	e20330ff 	and	r3, r3, #255	@ 0xff
    2a9c:	e54b300e 	strb	r3, [fp, #-14]
    2aa0:	e51b3008 	ldr	r3, [fp, #-8]
    2aa4:	e1a03423 	lsr	r3, r3, #8
    2aa8:	e20330ff 	and	r3, r3, #255	@ 0xff
    2aac:	e54b300d 	strb	r3, [fp, #-13]
    2ab0:	e59f303c 	ldr	r3, [pc, #60]	@ 2af4 <_handle_read_spikes+0x88>
    2ab4:	e5933000 	ldr	r3, [r3]
    2ab8:	e20330ff 	and	r3, r3, #255	@ 0xff
    2abc:	e54b300c 	strb	r3, [fp, #-12]
    2ac0:	e59f302c 	ldr	r3, [pc, #44]	@ 2af4 <_handle_read_spikes+0x88>
    2ac4:	e5933000 	ldr	r3, [r3]
    2ac8:	e1a03423 	lsr	r3, r3, #8
    2acc:	e20330ff 	and	r3, r3, #255	@ 0xff
    2ad0:	e54b300b 	strb	r3, [fp, #-11]
    2ad4:	e24b3010 	sub	r3, fp, #16
    2ad8:	e3a02006 	mov	r2, #6
    2adc:	e1a01003 	mov	r1, r3
    2ae0:	e51b0018 	ldr	r0, [fp, #-24]	@ 0xffffffe8
    2ae4:	eb000150 	bl	302c <sdp_send_reply>
    2ae8:	e1a00000 	nop			@ (mov r0, r0)
    2aec:	e24bd004 	sub	sp, fp, #4
    2af0:	e8bd8800 	pop	{fp, pc}
    2af4:	00400010 	.word	0x00400010

00002af8 <_handle_create_syn>:
    2af8:	e92d4800 	push	{fp, lr}
    2afc:	e28db004 	add	fp, sp, #4
    2b00:	e24dd020 	sub	sp, sp, #32
    2b04:	e50b0020 	str	r0, [fp, #-32]	@ 0xffffffe0
    2b08:	e51b3020 	ldr	r3, [fp, #-32]	@ 0xffffffe0
    2b0c:	e5933014 	ldr	r3, [r3, #20]
    2b10:	e50b3008 	str	r3, [fp, #-8]
    2b14:	e51b3020 	ldr	r3, [fp, #-32]	@ 0xffffffe0
    2b18:	e5933018 	ldr	r3, [r3, #24]
    2b1c:	e50b300c 	str	r3, [fp, #-12]
    2b20:	e51b3020 	ldr	r3, [fp, #-32]	@ 0xffffffe0
    2b24:	e593301c 	ldr	r3, [r3, #28]
    2b28:	e50b3010 	str	r3, [fp, #-16]
    2b2c:	e3a03001 	mov	r3, #1
    2b30:	e51b2010 	ldr	r2, [fp, #-16]
    2b34:	e51b100c 	ldr	r1, [fp, #-12]
    2b38:	e51b0008 	ldr	r0, [fp, #-8]
    2b3c:	ebfff9dc 	bl	12b4 <synapse_create>
    2b40:	e50b0014 	str	r0, [fp, #-20]	@ 0xffffffec
    2b44:	e3a03005 	mov	r3, #5
    2b48:	e54b3018 	strb	r3, [fp, #-24]	@ 0xffffffe8
    2b4c:	e51b3014 	ldr	r3, [fp, #-20]	@ 0xffffffec
    2b50:	e3530000 	cmp	r3, #0
    2b54:	13a03001 	movne	r3, #1
    2b58:	03a03000 	moveq	r3, #0
    2b5c:	e20330ff 	and	r3, r3, #255	@ 0xff
    2b60:	e54b3017 	strb	r3, [fp, #-23]	@ 0xffffffe9
    2b64:	e24b3018 	sub	r3, fp, #24
    2b68:	e3a02002 	mov	r2, #2
    2b6c:	e1a01003 	mov	r1, r3
    2b70:	e51b0020 	ldr	r0, [fp, #-32]	@ 0xffffffe0
    2b74:	eb00012c 	bl	302c <sdp_send_reply>
    2b78:	e1a00000 	nop			@ (mov r0, r0)
    2b7c:	e24bd004 	sub	sp, fp, #4
    2b80:	e8bd8800 	pop	{fp, pc}

00002b84 <_handle_remove_syn>:
    2b84:	e92d4800 	push	{fp, lr}
    2b88:	e28db004 	add	fp, sp, #4
    2b8c:	e24dd018 	sub	sp, sp, #24
    2b90:	e50b0018 	str	r0, [fp, #-24]	@ 0xffffffe8
    2b94:	e51b3018 	ldr	r3, [fp, #-24]	@ 0xffffffe8
    2b98:	e5933014 	ldr	r3, [r3, #20]
    2b9c:	e50b3008 	str	r3, [fp, #-8]
    2ba0:	e51b3018 	ldr	r3, [fp, #-24]	@ 0xffffffe8
    2ba4:	e5933018 	ldr	r3, [r3, #24]
    2ba8:	e50b300c 	str	r3, [fp, #-12]
    2bac:	e51b100c 	ldr	r1, [fp, #-12]
    2bb0:	e51b0008 	ldr	r0, [fp, #-8]
    2bb4:	ebfffa0c 	bl	13ec <synapse_remove>
    2bb8:	e50b0010 	str	r0, [fp, #-16]
    2bbc:	e3a03006 	mov	r3, #6
    2bc0:	e54b3014 	strb	r3, [fp, #-20]	@ 0xffffffec
    2bc4:	e51b3010 	ldr	r3, [fp, #-16]
    2bc8:	e3530000 	cmp	r3, #0
    2bcc:	13a03001 	movne	r3, #1
    2bd0:	03a03000 	moveq	r3, #0
    2bd4:	e20330ff 	and	r3, r3, #255	@ 0xff
    2bd8:	e54b3013 	strb	r3, [fp, #-19]	@ 0xffffffed
    2bdc:	e24b3014 	sub	r3, fp, #20
    2be0:	e3a02002 	mov	r2, #2
    2be4:	e1a01003 	mov	r1, r3
    2be8:	e51b0018 	ldr	r0, [fp, #-24]	@ 0xffffffe8
    2bec:	eb00010e 	bl	302c <sdp_send_reply>
    2bf0:	e1a00000 	nop			@ (mov r0, r0)
    2bf4:	e24bd004 	sub	sp, fp, #4
    2bf8:	e8bd8800 	pop	{fp, pc}

00002bfc <_handle_reset>:
    2bfc:	e92d4800 	push	{fp, lr}
    2c00:	e28db004 	add	fp, sp, #4
    2c04:	e24dd010 	sub	sp, sp, #16
    2c08:	e50b0010 	str	r0, [fp, #-16]
    2c0c:	eb00022a 	bl	34bc <router_reset_all>
    2c10:	ebfff7b2 	bl	ae0 <neuron_reset_all>
    2c14:	ebfffae5 	bl	17b0 <synapse_reset_all>
    2c18:	ebfffcbe 	bl	1f18 <cra_state_reset>
    2c1c:	e59f3040 	ldr	r3, [pc, #64]	@ 2c64 <_handle_reset+0x68>
    2c20:	e3a02000 	mov	r2, #0
    2c24:	e5832000 	str	r2, [r3]
    2c28:	e59f3038 	ldr	r3, [pc, #56]	@ 2c68 <_handle_reset+0x6c>
    2c2c:	e3a02000 	mov	r2, #0
    2c30:	e5832000 	str	r2, [r3]
    2c34:	e3a03007 	mov	r3, #7
    2c38:	e54b3008 	strb	r3, [fp, #-8]
    2c3c:	e3a03000 	mov	r3, #0
    2c40:	e54b3007 	strb	r3, [fp, #-7]
    2c44:	e24b3008 	sub	r3, fp, #8
    2c48:	e3a02002 	mov	r2, #2
    2c4c:	e1a01003 	mov	r1, r3
    2c50:	e51b0010 	ldr	r0, [fp, #-16]
    2c54:	eb0000f4 	bl	302c <sdp_send_reply>
    2c58:	e1a00000 	nop			@ (mov r0, r0)
    2c5c:	e24bd004 	sub	sp, fp, #4
    2c60:	e8bd8800 	pop	{fp, pc}
    2c64:	00400014 	.word	0x00400014
    2c68:	00400010 	.word	0x00400010

00002c6c <_handle_read_state>:
    2c6c:	e92d4800 	push	{fp, lr}
    2c70:	e28db004 	add	fp, sp, #4
    2c74:	e24dd070 	sub	sp, sp, #112	@ 0x70
    2c78:	e50b0070 	str	r0, [fp, #-112]	@ 0xffffff90
    2c7c:	e24b3068 	sub	r3, fp, #104	@ 0x68
    2c80:	e3a01060 	mov	r1, #96	@ 0x60
    2c84:	e1a00003 	mov	r0, r3
    2c88:	eb000051 	bl	2dd4 <host_if_pack_state_summary>
    2c8c:	e1a03000 	mov	r3, r0
    2c90:	e54b3005 	strb	r3, [fp, #-5]
    2c94:	e55b3005 	ldrb	r3, [fp, #-5]
    2c98:	e3530000 	cmp	r3, #0
    2c9c:	0a000005 	beq	2cb8 <_handle_read_state+0x4c>
    2ca0:	e55b2005 	ldrb	r2, [fp, #-5]
    2ca4:	e24b3068 	sub	r3, fp, #104	@ 0x68
    2ca8:	e1a01003 	mov	r1, r3
    2cac:	e51b0070 	ldr	r0, [fp, #-112]	@ 0xffffff90
    2cb0:	eb0000dd 	bl	302c <sdp_send_reply>
    2cb4:	ea000000 	b	2cbc <_handle_read_state+0x50>
    2cb8:	e1a00000 	nop			@ (mov r0, r0)
    2cbc:	e24bd004 	sub	sp, fp, #4
    2cc0:	e8bd8800 	pop	{fp, pc}

00002cc4 <host_if_init>:
    2cc4:	e52db004 	push	{fp}		@ (str fp, [sp, #-4]!)
    2cc8:	e28db000 	add	fp, sp, #0
    2ccc:	e1a00000 	nop			@ (mov r0, r0)
    2cd0:	e28bd000 	add	sp, fp, #0
    2cd4:	e49db004 	pop	{fp}		@ (ldr fp, [sp], #4)
    2cd8:	e12fff1e 	bx	lr

00002cdc <sdp_rx_callback>:
    2cdc:	e92d4800 	push	{fp, lr}
    2ce0:	e28db004 	add	fp, sp, #4
    2ce4:	e24dd010 	sub	sp, sp, #16
    2ce8:	e50b0010 	str	r0, [fp, #-16]
    2cec:	e50b1014 	str	r1, [fp, #-20]	@ 0xffffffec
    2cf0:	e51b3010 	ldr	r3, [fp, #-16]
    2cf4:	e50b3008 	str	r3, [fp, #-8]
    2cf8:	e51b3008 	ldr	r3, [fp, #-8]
    2cfc:	e1d331b0 	ldrh	r3, [r3, #16]
    2d00:	e54b3009 	strb	r3, [fp, #-9]
    2d04:	e55b3009 	ldrb	r3, [fp, #-9]
    2d08:	e2433001 	sub	r3, r3, #1
    2d0c:	e3530007 	cmp	r3, #7
    2d10:	979ff103 	ldrls	pc, [pc, r3, lsl #2]
    2d14:	ea00001f 	b	2d98 <sdp_rx_callback+0xbc>
    2d18:	00002d38 	.word	0x00002d38
    2d1c:	00002d44 	.word	0x00002d44
    2d20:	00002d50 	.word	0x00002d50
    2d24:	00002d5c 	.word	0x00002d5c
    2d28:	00002d68 	.word	0x00002d68
    2d2c:	00002d74 	.word	0x00002d74
    2d30:	00002d80 	.word	0x00002d80
    2d34:	00002d8c 	.word	0x00002d8c
    2d38:	e51b0008 	ldr	r0, [fp, #-8]
    2d3c:	ebfffecc 	bl	2874 <_handle_birth>
    2d40:	ea00001e 	b	2dc0 <sdp_rx_callback+0xe4>
    2d44:	e51b0008 	ldr	r0, [fp, #-8]
    2d48:	ebfffefb 	bl	293c <_handle_death>
    2d4c:	ea00001b 	b	2dc0 <sdp_rx_callback+0xe4>
    2d50:	e51b0008 	ldr	r0, [fp, #-8]
    2d54:	ebffff1b 	bl	29c8 <_handle_dopamine>
    2d58:	ea000018 	b	2dc0 <sdp_rx_callback+0xe4>
    2d5c:	e51b0008 	ldr	r0, [fp, #-8]
    2d60:	ebffff41 	bl	2a6c <_handle_read_spikes>
    2d64:	ea000015 	b	2dc0 <sdp_rx_callback+0xe4>
    2d68:	e51b0008 	ldr	r0, [fp, #-8]
    2d6c:	ebffff61 	bl	2af8 <_handle_create_syn>
    2d70:	ea000012 	b	2dc0 <sdp_rx_callback+0xe4>
    2d74:	e51b0008 	ldr	r0, [fp, #-8]
    2d78:	ebffff81 	bl	2b84 <_handle_remove_syn>
    2d7c:	ea00000f 	b	2dc0 <sdp_rx_callback+0xe4>
    2d80:	e51b0008 	ldr	r0, [fp, #-8]
    2d84:	ebffff9c 	bl	2bfc <_handle_reset>
    2d88:	ea00000c 	b	2dc0 <sdp_rx_callback+0xe4>
    2d8c:	e51b0008 	ldr	r0, [fp, #-8]
    2d90:	ebffffb5 	bl	2c6c <_handle_read_state>
    2d94:	ea000009 	b	2dc0 <sdp_rx_callback+0xe4>
    2d98:	e55b3009 	ldrb	r3, [fp, #-9]
    2d9c:	e54b300c 	strb	r3, [fp, #-12]
    2da0:	e3e03000 	mvn	r3, #0
    2da4:	e54b300b 	strb	r3, [fp, #-11]
    2da8:	e24b300c 	sub	r3, fp, #12
    2dac:	e3a02002 	mov	r2, #2
    2db0:	e1a01003 	mov	r1, r3
    2db4:	e51b0008 	ldr	r0, [fp, #-8]
    2db8:	eb00009b 	bl	302c <sdp_send_reply>
    2dbc:	e1a00000 	nop			@ (mov r0, r0)
    2dc0:	e51b0008 	ldr	r0, [fp, #-8]
    2dc4:	ebfffe64 	bl	275c <spin1_msg_free>
    2dc8:	e1a00000 	nop			@ (mov r0, r0)
    2dcc:	e24bd004 	sub	sp, fp, #4
    2dd0:	e8bd8800 	pop	{fp, pc}

00002dd4 <host_if_pack_state_summary>:
    2dd4:	e92d4810 	push	{r4, fp, lr}
    2dd8:	e28db008 	add	fp, sp, #8
    2ddc:	e24dd054 	sub	sp, sp, #84	@ 0x54
    2de0:	e50b0058 	str	r0, [fp, #-88]	@ 0xffffffa8
    2de4:	e1a03001 	mov	r3, r1
    2de8:	e54b3059 	strb	r3, [fp, #-89]	@ 0xffffffa7
    2dec:	e3a03049 	mov	r3, #73	@ 0x49
    2df0:	e54b300d 	strb	r3, [fp, #-13]
    2df4:	e51b3058 	ldr	r3, [fp, #-88]	@ 0xffffffa8
    2df8:	e3530000 	cmp	r3, #0
    2dfc:	0a000003 	beq	2e10 <host_if_pack_state_summary+0x3c>
    2e00:	e55b2059 	ldrb	r2, [fp, #-89]	@ 0xffffffa7
    2e04:	e55b300d 	ldrb	r3, [fp, #-13]
    2e08:	e1520003 	cmp	r2, r3
    2e0c:	2a000001 	bcs	2e18 <host_if_pack_state_summary+0x44>
    2e10:	e3a03000 	mov	r3, #0
    2e14:	ea000080 	b	301c <host_if_pack_state_summary+0x248>
    2e18:	e24b3054 	sub	r3, fp, #84	@ 0x54
    2e1c:	e1a00003 	mov	r0, r3
    2e20:	ebfffe3a 	bl	2710 <cra_state_get_summary>
    2e24:	e51b3058 	ldr	r3, [fp, #-88]	@ 0xffffffa8
    2e28:	e3a02008 	mov	r2, #8
    2e2c:	e5c32000 	strb	r2, [r3]
    2e30:	e51b3058 	ldr	r3, [fp, #-88]	@ 0xffffffa8
    2e34:	e2833001 	add	r3, r3, #1
    2e38:	e3a02000 	mov	r2, #0
    2e3c:	e5c32000 	strb	r2, [r3]
    2e40:	e51b3058 	ldr	r3, [fp, #-88]	@ 0xffffffa8
    2e44:	e2833002 	add	r3, r3, #2
    2e48:	e3a02001 	mov	r2, #1
    2e4c:	e5c32000 	strb	r2, [r3]
    2e50:	e51b3058 	ldr	r3, [fp, #-88]	@ 0xffffffa8
    2e54:	e2833003 	add	r3, r3, #3
    2e58:	e3a02000 	mov	r2, #0
    2e5c:	e5c32000 	strb	r2, [r3]
    2e60:	e51b3058 	ldr	r3, [fp, #-88]	@ 0xffffffa8
    2e64:	e2833004 	add	r3, r3, #4
    2e68:	e59f21b8 	ldr	r2, [pc, #440]	@ 3028 <host_if_pack_state_summary+0x254>
    2e6c:	e5922000 	ldr	r2, [r2]
    2e70:	e1a01002 	mov	r1, r2
    2e74:	e1a00003 	mov	r0, r3
    2e78:	ebfffe52 	bl	27c8 <_write_u32>
    2e7c:	e51b3058 	ldr	r3, [fp, #-88]	@ 0xffffffa8
    2e80:	e2834008 	add	r4, r3, #8
    2e84:	ebfff703 	bl	a98 <neuron_count>
    2e88:	e1a03000 	mov	r3, r0
    2e8c:	e1a01003 	mov	r1, r3
    2e90:	e1a00004 	mov	r0, r4
    2e94:	ebfffe4b 	bl	27c8 <_write_u32>
    2e98:	e51b3058 	ldr	r3, [fp, #-88]	@ 0xffffffa8
    2e9c:	e283400c 	add	r4, r3, #12
    2ea0:	ebfffa8c 	bl	18d8 <synapse_count>
    2ea4:	e1a03000 	mov	r3, r0
    2ea8:	e1a01003 	mov	r1, r3
    2eac:	e1a00004 	mov	r0, r4
    2eb0:	ebfffe44 	bl	27c8 <_write_u32>
    2eb4:	e51b3058 	ldr	r3, [fp, #-88]	@ 0xffffffa8
    2eb8:	e2834010 	add	r4, r3, #16
    2ebc:	ebfffa8e 	bl	18fc <synapse_active_trace_count>
    2ec0:	e1a03000 	mov	r3, r0
    2ec4:	e1a01003 	mov	r1, r3
    2ec8:	e1a00004 	mov	r0, r4
    2ecc:	ebfffe3d 	bl	27c8 <_write_u32>
    2ed0:	e51b3058 	ldr	r3, [fp, #-88]	@ 0xffffffa8
    2ed4:	e2833014 	add	r3, r3, #20
    2ed8:	e51b2054 	ldr	r2, [fp, #-84]	@ 0xffffffac
    2edc:	e1a01002 	mov	r1, r2
    2ee0:	e1a00003 	mov	r0, r3
    2ee4:	ebfffe37 	bl	27c8 <_write_u32>
    2ee8:	e51b3058 	ldr	r3, [fp, #-88]	@ 0xffffffa8
    2eec:	e2833018 	add	r3, r3, #24
    2ef0:	e51b2050 	ldr	r2, [fp, #-80]	@ 0xffffffb0
    2ef4:	e1a01002 	mov	r1, r2
    2ef8:	e1a00003 	mov	r0, r3
    2efc:	ebfffe31 	bl	27c8 <_write_u32>
    2f00:	e51b3058 	ldr	r3, [fp, #-88]	@ 0xffffffa8
    2f04:	e283301c 	add	r3, r3, #28
    2f08:	e51b204c 	ldr	r2, [fp, #-76]	@ 0xffffffb4
    2f0c:	e1a01002 	mov	r1, r2
    2f10:	e1a00003 	mov	r0, r3
    2f14:	ebfffe2b 	bl	27c8 <_write_u32>
    2f18:	e51b3058 	ldr	r3, [fp, #-88]	@ 0xffffffa8
    2f1c:	e2833020 	add	r3, r3, #32
    2f20:	e51b2048 	ldr	r2, [fp, #-72]	@ 0xffffffb8
    2f24:	e1a01002 	mov	r1, r2
    2f28:	e1a00003 	mov	r0, r3
    2f2c:	ebfffe25 	bl	27c8 <_write_u32>
    2f30:	e51b3058 	ldr	r3, [fp, #-88]	@ 0xffffffa8
    2f34:	e2833024 	add	r3, r3, #36	@ 0x24
    2f38:	e51b2044 	ldr	r2, [fp, #-68]	@ 0xffffffbc
    2f3c:	e1a01002 	mov	r1, r2
    2f40:	e1a00003 	mov	r0, r3
    2f44:	ebfffe1f 	bl	27c8 <_write_u32>
    2f48:	e51b3058 	ldr	r3, [fp, #-88]	@ 0xffffffa8
    2f4c:	e2833028 	add	r3, r3, #40	@ 0x28
    2f50:	e51b2040 	ldr	r2, [fp, #-64]	@ 0xffffffc0
    2f54:	e1a01002 	mov	r1, r2
    2f58:	e1a00003 	mov	r0, r3
    2f5c:	ebfffe19 	bl	27c8 <_write_u32>
    2f60:	e51b3058 	ldr	r3, [fp, #-88]	@ 0xffffffa8
    2f64:	e283302c 	add	r3, r3, #44	@ 0x2c
    2f68:	e51b203c 	ldr	r2, [fp, #-60]	@ 0xffffffc4
    2f6c:	e1a01002 	mov	r1, r2
    2f70:	e1a00003 	mov	r0, r3
    2f74:	ebfffe13 	bl	27c8 <_write_u32>
    2f78:	e51b3058 	ldr	r3, [fp, #-88]	@ 0xffffffa8
    2f7c:	e2833030 	add	r3, r3, #48	@ 0x30
    2f80:	e51b2038 	ldr	r2, [fp, #-56]	@ 0xffffffc8
    2f84:	e1a01002 	mov	r1, r2
    2f88:	e1a00003 	mov	r0, r3
    2f8c:	ebfffe0d 	bl	27c8 <_write_u32>
    2f90:	e51b3058 	ldr	r3, [fp, #-88]	@ 0xffffffa8
    2f94:	e2833034 	add	r3, r3, #52	@ 0x34
    2f98:	e51b2034 	ldr	r2, [fp, #-52]	@ 0xffffffcc
    2f9c:	e1a01002 	mov	r1, r2
    2fa0:	e1a00003 	mov	r0, r3
    2fa4:	ebfffe07 	bl	27c8 <_write_u32>
    2fa8:	e51b3058 	ldr	r3, [fp, #-88]	@ 0xffffffa8
    2fac:	e2833038 	add	r3, r3, #56	@ 0x38
    2fb0:	e51b2030 	ldr	r2, [fp, #-48]	@ 0xffffffd0
    2fb4:	e1a01002 	mov	r1, r2
    2fb8:	e1a00003 	mov	r0, r3
    2fbc:	ebfffe01 	bl	27c8 <_write_u32>
    2fc0:	e51b3058 	ldr	r3, [fp, #-88]	@ 0xffffffa8
    2fc4:	e283303c 	add	r3, r3, #60	@ 0x3c
    2fc8:	e51b202c 	ldr	r2, [fp, #-44]	@ 0xffffffd4
    2fcc:	e1a01002 	mov	r1, r2
    2fd0:	e1a00003 	mov	r0, r3
    2fd4:	ebfffdfb 	bl	27c8 <_write_u32>
    2fd8:	e51b3058 	ldr	r3, [fp, #-88]	@ 0xffffffa8
    2fdc:	e2833040 	add	r3, r3, #64	@ 0x40
    2fe0:	e51b2024 	ldr	r2, [fp, #-36]	@ 0xffffffdc
    2fe4:	e1a01002 	mov	r1, r2
    2fe8:	e1a00003 	mov	r0, r3
    2fec:	ebfffe14 	bl	2844 <_write_s32>
    2ff0:	e51b3058 	ldr	r3, [fp, #-88]	@ 0xffffffa8
    2ff4:	e2833044 	add	r3, r3, #68	@ 0x44
    2ff8:	e51b2020 	ldr	r2, [fp, #-32]	@ 0xffffffe0
    2ffc:	e1a01002 	mov	r1, r2
    3000:	e1a00003 	mov	r0, r3
    3004:	ebfffe0e 	bl	2844 <_write_s32>
    3008:	e51b3058 	ldr	r3, [fp, #-88]	@ 0xffffffa8
    300c:	e2833048 	add	r3, r3, #72	@ 0x48
    3010:	e3a02000 	mov	r2, #0
    3014:	e5c32000 	strb	r2, [r3]
    3018:	e55b300d 	ldrb	r3, [fp, #-13]
    301c:	e1a00003 	mov	r0, r3
    3020:	e24bd008 	sub	sp, fp, #8
    3024:	e8bd8810 	pop	{r4, fp, pc}
    3028:	00400010 	.word	0x00400010

0000302c <sdp_send_reply>:
    302c:	e92d4800 	push	{fp, lr}
    3030:	e28db004 	add	fp, sp, #4
    3034:	e24dd018 	sub	sp, sp, #24
    3038:	e50b0010 	str	r0, [fp, #-16]
    303c:	e50b1014 	str	r1, [fp, #-20]	@ 0xffffffec
    3040:	e1a03002 	mov	r3, r2
    3044:	e54b3015 	strb	r3, [fp, #-21]	@ 0xffffffeb
    3048:	ebfffdcc 	bl	2780 <spin1_msg_get>
    304c:	e50b0008 	str	r0, [fp, #-8]
    3050:	e51b3008 	ldr	r3, [fp, #-8]
    3054:	e3530000 	cmp	r3, #0
    3058:	0a000065 	beq	31f4 <sdp_send_reply+0x1c8>
    305c:	e51b3010 	ldr	r3, [fp, #-16]
    3060:	e5d3200b 	ldrb	r2, [r3, #11]
    3064:	e51b3008 	ldr	r3, [fp, #-8]
    3068:	e5c3200a 	strb	r2, [r3, #10]
    306c:	e51b3010 	ldr	r3, [fp, #-16]
    3070:	e5d3200a 	ldrb	r2, [r3, #10]
    3074:	e51b3008 	ldr	r3, [fp, #-8]
    3078:	e5c3200b 	strb	r2, [r3, #11]
    307c:	e51b3010 	ldr	r3, [fp, #-16]
    3080:	e1d320be 	ldrh	r2, [r3, #14]
    3084:	e51b3008 	ldr	r3, [fp, #-8]
    3088:	e1c320bc 	strh	r2, [r3, #12]
    308c:	e51b3010 	ldr	r3, [fp, #-16]
    3090:	e1d320bc 	ldrh	r2, [r3, #12]
    3094:	e51b3008 	ldr	r3, [fp, #-8]
    3098:	e1c320be 	strh	r2, [r3, #14]
    309c:	e51b3008 	ldr	r3, [fp, #-8]
    30a0:	e3a02007 	mov	r2, #7
    30a4:	e5c32008 	strb	r2, [r3, #8]
    30a8:	e51b3010 	ldr	r3, [fp, #-16]
    30ac:	e5d32009 	ldrb	r2, [r3, #9]
    30b0:	e51b3008 	ldr	r3, [fp, #-8]
    30b4:	e5c32009 	strb	r2, [r3, #9]
    30b8:	e51b3010 	ldr	r3, [fp, #-16]
    30bc:	e1d321b2 	ldrh	r2, [r3, #18]
    30c0:	e51b3008 	ldr	r3, [fp, #-8]
    30c4:	e1c321b2 	strh	r2, [r3, #18]
    30c8:	e51b3008 	ldr	r3, [fp, #-8]
    30cc:	e3a02000 	mov	r2, #0
    30d0:	e5832014 	str	r2, [r3, #20]
    30d4:	e51b3008 	ldr	r3, [fp, #-8]
    30d8:	e3a02000 	mov	r2, #0
    30dc:	e5832018 	str	r2, [r3, #24]
    30e0:	e51b3008 	ldr	r3, [fp, #-8]
    30e4:	e3a02000 	mov	r2, #0
    30e8:	e583201c 	str	r2, [r3, #28]
    30ec:	e55b3015 	ldrb	r3, [fp, #-21]	@ 0xffffffeb
    30f0:	e3530000 	cmp	r3, #0
    30f4:	0a000002 	beq	3104 <sdp_send_reply+0xd8>
    30f8:	e51b3014 	ldr	r3, [fp, #-20]	@ 0xffffffec
    30fc:	e5d33000 	ldrb	r3, [r3]
    3100:	ea000000 	b	3108 <sdp_send_reply+0xdc>
    3104:	e3a03000 	mov	r3, #0
    3108:	e54b3009 	strb	r3, [fp, #-9]
    310c:	e55b3015 	ldrb	r3, [fp, #-21]	@ 0xffffffeb
    3110:	e3530001 	cmp	r3, #1
    3114:	9a000003 	bls	3128 <sdp_send_reply+0xfc>
    3118:	e51b3014 	ldr	r3, [fp, #-20]	@ 0xffffffec
    311c:	e2833001 	add	r3, r3, #1
    3120:	e5d33000 	ldrb	r3, [r3]
    3124:	ea000000 	b	312c <sdp_send_reply+0x100>
    3128:	e3a030ff 	mov	r3, #255	@ 0xff
    312c:	e54b300a 	strb	r3, [fp, #-10]
    3130:	e55b3015 	ldrb	r3, [fp, #-21]	@ 0xffffffeb
    3134:	e3530002 	cmp	r3, #2
    3138:	9a000003 	bls	314c <sdp_send_reply+0x120>
    313c:	e55b3015 	ldrb	r3, [fp, #-21]	@ 0xffffffeb
    3140:	e2433002 	sub	r3, r3, #2
    3144:	e20330ff 	and	r3, r3, #255	@ 0xff
    3148:	ea000000 	b	3150 <sdp_send_reply+0x124>
    314c:	e3a03000 	mov	r3, #0
    3150:	e54b300b 	strb	r3, [fp, #-11]
    3154:	e55b3009 	ldrb	r3, [fp, #-9]
    3158:	e1a03803 	lsl	r3, r3, #16
    315c:	e1a02843 	asr	r2, r3, #16
    3160:	e55b300a 	ldrb	r3, [fp, #-10]
    3164:	e1a03803 	lsl	r3, r3, #16
    3168:	e1a03843 	asr	r3, r3, #16
    316c:	e1a03403 	lsl	r3, r3, #8
    3170:	e1a03803 	lsl	r3, r3, #16
    3174:	e1a03843 	asr	r3, r3, #16
    3178:	e1823003 	orr	r3, r2, r3
    317c:	e1a03803 	lsl	r3, r3, #16
    3180:	e1a03843 	asr	r3, r3, #16
    3184:	e1a03803 	lsl	r3, r3, #16
    3188:	e1a02823 	lsr	r2, r3, #16
    318c:	e51b3008 	ldr	r3, [fp, #-8]
    3190:	e1c321b0 	strh	r2, [r3, #16]
    3194:	e55b300b 	ldrb	r3, [fp, #-11]
    3198:	e1a03803 	lsl	r3, r3, #16
    319c:	e1a03823 	lsr	r3, r3, #16
    31a0:	e2833018 	add	r3, r3, #24
    31a4:	e1a03803 	lsl	r3, r3, #16
    31a8:	e1a02823 	lsr	r2, r3, #16
    31ac:	e51b3008 	ldr	r3, [fp, #-8]
    31b0:	e1c320b4 	strh	r2, [r3, #4]
    31b4:	e55b300b 	ldrb	r3, [fp, #-11]
    31b8:	e3530000 	cmp	r3, #0
    31bc:	0a000006 	beq	31dc <sdp_send_reply+0x1b0>
    31c0:	e51b3008 	ldr	r3, [fp, #-8]
    31c4:	e2830020 	add	r0, r3, #32
    31c8:	e51b3014 	ldr	r3, [fp, #-20]	@ 0xffffffec
    31cc:	e2833002 	add	r3, r3, #2
    31d0:	e55b200b 	ldrb	r2, [fp, #-11]
    31d4:	e1a01003 	mov	r1, r3
    31d8:	ebfff40c 	bl	210 <sark_mem_cpy>
    31dc:	e3a01001 	mov	r1, #1
    31e0:	e51b0008 	ldr	r0, [fp, #-8]
    31e4:	ebfffd6b 	bl	2798 <spin1_send_sdp_msg>
    31e8:	e51b0008 	ldr	r0, [fp, #-8]
    31ec:	ebfffd5a 	bl	275c <spin1_msg_free>
    31f0:	ea000000 	b	31f8 <sdp_send_reply+0x1cc>
    31f4:	e1a00000 	nop			@ (mov r0, r0)
    31f8:	e24bd004 	sub	sp, fp, #4
    31fc:	e8bd8800 	pop	{fp, pc}

00003200 <_find_route>:
    3200:	e52db004 	push	{fp}		@ (str fp, [sp, #-4]!)
    3204:	e28db000 	add	fp, sp, #0
    3208:	e24dd014 	sub	sp, sp, #20
    320c:	e50b0010 	str	r0, [fp, #-16]
    3210:	e59f3050 	ldr	r3, [pc, #80]	@ 3268 <_find_route+0x68>
    3214:	e5933000 	ldr	r3, [r3]
    3218:	e50b3008 	str	r3, [fp, #-8]
    321c:	ea000009 	b	3248 <_find_route+0x48>
    3220:	e51b3008 	ldr	r3, [fp, #-8]
    3224:	e5933000 	ldr	r3, [r3]
    3228:	e51b2010 	ldr	r2, [fp, #-16]
    322c:	e1520003 	cmp	r2, r3
    3230:	1a000001 	bne	323c <_find_route+0x3c>
    3234:	e51b3008 	ldr	r3, [fp, #-8]
    3238:	ea000006 	b	3258 <_find_route+0x58>
    323c:	e51b3008 	ldr	r3, [fp, #-8]
    3240:	e5933008 	ldr	r3, [r3, #8]
    3244:	e50b3008 	str	r3, [fp, #-8]
    3248:	e51b3008 	ldr	r3, [fp, #-8]
    324c:	e3530000 	cmp	r3, #0
    3250:	1afffff2 	bne	3220 <_find_route+0x20>
    3254:	e3a03000 	mov	r3, #0
    3258:	e1a00003 	mov	r0, r3
    325c:	e28bd000 	add	sp, fp, #0
    3260:	e49db004 	pop	{fp}		@ (ldr fp, [sp], #4)
    3264:	e12fff1e 	bx	lr
    3268:	00400928 	.word	0x00400928

0000326c <router_init>:
    326c:	e92d4800 	push	{fp, lr}
    3270:	e28db004 	add	fp, sp, #4
    3274:	e59f3028 	ldr	r3, [pc, #40]	@ 32a4 <router_init+0x38>
    3278:	e3a02000 	mov	r2, #0
    327c:	e5832000 	str	r2, [r3]
    3280:	e59f3020 	ldr	r3, [pc, #32]	@ 32a8 <router_init+0x3c>
    3284:	e3a02000 	mov	r2, #0
    3288:	e5832000 	str	r2, [r3]
    328c:	ebfff4ae 	bl	54c <get_app_id>
    3290:	e1a03000 	mov	r3, r0
    3294:	e59f2010 	ldr	r2, [pc, #16]	@ 32ac <router_init+0x40>
    3298:	e5823000 	str	r3, [r2]
    329c:	e1a00000 	nop			@ (mov r0, r0)
    32a0:	e8bd8800 	pop	{fp, pc}
    32a4:	00400928 	.word	0x00400928
    32a8:	0040092c 	.word	0x0040092c
    32ac:	00400930 	.word	0x00400930

000032b0 <router_add_neuron>:
    32b0:	e92d4800 	push	{fp, lr}
    32b4:	e28db004 	add	fp, sp, #4
    32b8:	e24dd020 	sub	sp, sp, #32
    32bc:	e50b0020 	str	r0, [fp, #-32]	@ 0xffffffe0
    32c0:	e51b0020 	ldr	r0, [fp, #-32]	@ 0xffffffe0
    32c4:	ebffffcd 	bl	3200 <_find_route>
    32c8:	e1a03000 	mov	r3, r0
    32cc:	e3530000 	cmp	r3, #0
    32d0:	0a000001 	beq	32dc <router_add_neuron+0x2c>
    32d4:	e3e03000 	mvn	r3, #0
    32d8:	ea000043 	b	33ec <router_add_neuron+0x13c>
    32dc:	e59f3114 	ldr	r3, [pc, #276]	@ 33f8 <router_add_neuron+0x148>
    32e0:	e5933000 	ldr	r3, [r3]
    32e4:	e1a02c03 	lsl	r2, r3, #24
    32e8:	e51b3020 	ldr	r3, [fp, #-32]	@ 0xffffffe0
    32ec:	e3c334ff 	bic	r3, r3, #-16777216	@ 0xff000000
    32f0:	e1823003 	orr	r3, r2, r3
    32f4:	e50b3008 	str	r3, [fp, #-8]
    32f8:	e3e03000 	mvn	r3, #0
    32fc:	e50b300c 	str	r3, [fp, #-12]
    3300:	fa000097 	blx	3564 <sark_core_id>
    3304:	e1a03000 	mov	r3, r0
    3308:	e2833006 	add	r3, r3, #6
    330c:	e3a02001 	mov	r2, #1
    3310:	e1a03312 	lsl	r3, r2, r3
    3314:	e50b3010 	str	r3, [fp, #-16]
    3318:	e3a00001 	mov	r0, #1
    331c:	fa00032d 	blx	3fd8 <rtr_alloc>
    3320:	e50b0014 	str	r0, [fp, #-20]	@ 0xffffffec
    3324:	e51b3014 	ldr	r3, [fp, #-20]	@ 0xffffffec
    3328:	e3530000 	cmp	r3, #0
    332c:	1a000001 	bne	3338 <router_add_neuron+0x88>
    3330:	e3e03000 	mvn	r3, #0
    3334:	ea00002c 	b	33ec <router_add_neuron+0x13c>
    3338:	e51b3010 	ldr	r3, [fp, #-16]
    333c:	e51b200c 	ldr	r2, [fp, #-12]
    3340:	e51b1008 	ldr	r1, [fp, #-8]
    3344:	e51b0014 	ldr	r0, [fp, #-20]	@ 0xffffffec
    3348:	fa000264 	blx	3ce0 <rtr_mc_set>
    334c:	e1a03000 	mov	r3, r0
    3350:	e3530000 	cmp	r3, #0
    3354:	1a000004 	bne	336c <router_add_neuron+0xbc>
    3358:	e3a01001 	mov	r1, #1
    335c:	e51b0014 	ldr	r0, [fp, #-20]	@ 0xffffffec
    3360:	fa00031f 	blx	3fe4 <rtr_free>
    3364:	e3e03000 	mvn	r3, #0
    3368:	ea00001f 	b	33ec <router_add_neuron+0x13c>
    336c:	e3a0100c 	mov	r1, #12
    3370:	e3a00001 	mov	r0, #1
    3374:	fa0002bc 	blx	3e6c <sark_alloc>
    3378:	e1a03000 	mov	r3, r0
    337c:	e50b3018 	str	r3, [fp, #-24]	@ 0xffffffe8
    3380:	e51b3018 	ldr	r3, [fp, #-24]	@ 0xffffffe8
    3384:	e3530000 	cmp	r3, #0
    3388:	1a000004 	bne	33a0 <router_add_neuron+0xf0>
    338c:	e3a01001 	mov	r1, #1
    3390:	e51b0014 	ldr	r0, [fp, #-20]	@ 0xffffffec
    3394:	fa000312 	blx	3fe4 <rtr_free>
    3398:	e3e03000 	mvn	r3, #0
    339c:	ea000012 	b	33ec <router_add_neuron+0x13c>
    33a0:	e51b3018 	ldr	r3, [fp, #-24]	@ 0xffffffe8
    33a4:	e51b2020 	ldr	r2, [fp, #-32]	@ 0xffffffe0
    33a8:	e5832000 	str	r2, [r3]
    33ac:	e51b3018 	ldr	r3, [fp, #-24]	@ 0xffffffe8
    33b0:	e51b2014 	ldr	r2, [fp, #-20]	@ 0xffffffec
    33b4:	e5832004 	str	r2, [r3, #4]
    33b8:	e59f303c 	ldr	r3, [pc, #60]	@ 33fc <router_add_neuron+0x14c>
    33bc:	e5932000 	ldr	r2, [r3]
    33c0:	e51b3018 	ldr	r3, [fp, #-24]	@ 0xffffffe8
    33c4:	e5832008 	str	r2, [r3, #8]
    33c8:	e59f202c 	ldr	r2, [pc, #44]	@ 33fc <router_add_neuron+0x14c>
    33cc:	e51b3018 	ldr	r3, [fp, #-24]	@ 0xffffffe8
    33d0:	e5823000 	str	r3, [r2]
    33d4:	e59f3024 	ldr	r3, [pc, #36]	@ 3400 <router_add_neuron+0x150>
    33d8:	e5933000 	ldr	r3, [r3]
    33dc:	e2833001 	add	r3, r3, #1
    33e0:	e59f2018 	ldr	r2, [pc, #24]	@ 3400 <router_add_neuron+0x150>
    33e4:	e5823000 	str	r3, [r2]
    33e8:	e3a03000 	mov	r3, #0
    33ec:	e1a00003 	mov	r0, r3
    33f0:	e24bd004 	sub	sp, fp, #4
    33f4:	e8bd8800 	pop	{fp, pc}
    33f8:	00400930 	.word	0x00400930
    33fc:	00400928 	.word	0x00400928
    3400:	0040092c 	.word	0x0040092c

00003404 <router_remove_neuron>:
    3404:	e92d4800 	push	{fp, lr}
    3408:	e28db004 	add	fp, sp, #4
    340c:	e24dd010 	sub	sp, sp, #16
    3410:	e50b0010 	str	r0, [fp, #-16]
    3414:	e59f3098 	ldr	r3, [pc, #152]	@ 34b4 <router_remove_neuron+0xb0>
    3418:	e50b3008 	str	r3, [fp, #-8]
    341c:	ea00001c 	b	3494 <router_remove_neuron+0x90>
    3420:	e51b3008 	ldr	r3, [fp, #-8]
    3424:	e5933000 	ldr	r3, [r3]
    3428:	e50b300c 	str	r3, [fp, #-12]
    342c:	e51b300c 	ldr	r3, [fp, #-12]
    3430:	e5933000 	ldr	r3, [r3]
    3434:	e51b2010 	ldr	r2, [fp, #-16]
    3438:	e1520003 	cmp	r2, r3
    343c:	1a000011 	bne	3488 <router_remove_neuron+0x84>
    3440:	e51b300c 	ldr	r3, [fp, #-12]
    3444:	e5932008 	ldr	r2, [r3, #8]
    3448:	e51b3008 	ldr	r3, [fp, #-8]
    344c:	e5832000 	str	r2, [r3]
    3450:	e51b300c 	ldr	r3, [fp, #-12]
    3454:	e5933004 	ldr	r3, [r3, #4]
    3458:	e3a01001 	mov	r1, #1
    345c:	e1a00003 	mov	r0, r3
    3460:	fa0002df 	blx	3fe4 <rtr_free>
    3464:	e51b000c 	ldr	r0, [fp, #-12]
    3468:	fa0002ae 	blx	3f28 <sark_free>
    346c:	e59f3044 	ldr	r3, [pc, #68]	@ 34b8 <router_remove_neuron+0xb4>
    3470:	e5933000 	ldr	r3, [r3]
    3474:	e2433001 	sub	r3, r3, #1
    3478:	e59f2038 	ldr	r2, [pc, #56]	@ 34b8 <router_remove_neuron+0xb4>
    347c:	e5823000 	str	r3, [r2]
    3480:	e3a03000 	mov	r3, #0
    3484:	ea000007 	b	34a8 <router_remove_neuron+0xa4>
    3488:	e51b300c 	ldr	r3, [fp, #-12]
    348c:	e2833008 	add	r3, r3, #8
    3490:	e50b3008 	str	r3, [fp, #-8]
    3494:	e51b3008 	ldr	r3, [fp, #-8]
    3498:	e5933000 	ldr	r3, [r3]
    349c:	e3530000 	cmp	r3, #0
    34a0:	1affffde 	bne	3420 <router_remove_neuron+0x1c>
    34a4:	e3e03000 	mvn	r3, #0
    34a8:	e1a00003 	mov	r0, r3
    34ac:	e24bd004 	sub	sp, fp, #4
    34b0:	e8bd8800 	pop	{fp, pc}
    34b4:	00400928 	.word	0x00400928
    34b8:	0040092c 	.word	0x0040092c

000034bc <router_reset_all>:
    34bc:	e92d4800 	push	{fp, lr}
    34c0:	e28db004 	add	fp, sp, #4
    34c4:	e24dd008 	sub	sp, sp, #8
    34c8:	ea00000d 	b	3504 <router_reset_all+0x48>
    34cc:	e59f3058 	ldr	r3, [pc, #88]	@ 352c <router_reset_all+0x70>
    34d0:	e5933000 	ldr	r3, [r3]
    34d4:	e50b3008 	str	r3, [fp, #-8]
    34d8:	e51b3008 	ldr	r3, [fp, #-8]
    34dc:	e5933008 	ldr	r3, [r3, #8]
    34e0:	e59f2044 	ldr	r2, [pc, #68]	@ 352c <router_reset_all+0x70>
    34e4:	e5823000 	str	r3, [r2]
    34e8:	e51b3008 	ldr	r3, [fp, #-8]
    34ec:	e5933004 	ldr	r3, [r3, #4]
    34f0:	e3a01001 	mov	r1, #1
    34f4:	e1a00003 	mov	r0, r3
    34f8:	fa0002b9 	blx	3fe4 <rtr_free>
    34fc:	e51b0008 	ldr	r0, [fp, #-8]
    3500:	fa000288 	blx	3f28 <sark_free>
    3504:	e59f3020 	ldr	r3, [pc, #32]	@ 352c <router_reset_all+0x70>
    3508:	e5933000 	ldr	r3, [r3]
    350c:	e3530000 	cmp	r3, #0
    3510:	1affffed 	bne	34cc <router_reset_all+0x10>
    3514:	e59f3014 	ldr	r3, [pc, #20]	@ 3530 <router_reset_all+0x74>
    3518:	e3a02000 	mov	r2, #0
    351c:	e5832000 	str	r2, [r3]
    3520:	e1a00000 	nop			@ (mov r0, r0)
    3524:	e24bd004 	sub	sp, fp, #4
    3528:	e8bd8800 	pop	{fp, pc}
    352c:	00400928 	.word	0x00400928
    3530:	0040092c 	.word	0x0040092c

00003534 <router_route_count>:
    3534:	e52db004 	push	{fp}		@ (str fp, [sp, #-4]!)
    3538:	e28db000 	add	fp, sp, #0
    353c:	e59f3010 	ldr	r3, [pc, #16]	@ 3554 <router_route_count+0x20>
    3540:	e5933000 	ldr	r3, [r3]
    3544:	e1a00003 	mov	r0, r3
    3548:	e28bd000 	add	sp, fp, #0
    354c:	e49db004 	pop	{fp}		@ (ldr fp, [sp], #4)
    3550:	e12fff1e 	bx	lr
    3554:	0040092c 	.word	0x0040092c

00003558 <rte_handler>:
    3558:	4b01      	ldr	r3, [pc, #4]	@ (3560 <rte_handler+0x8>)
    355a:	2208      	movs	r2, #8
    355c:	701a      	strb	r2, [r3, #0]
    355e:	4770      	bx	lr
    3560:	e5007f2b 	.word	0xe5007f2b

00003564 <sark_core_id>:
    3564:	4b01      	ldr	r3, [pc, #4]	@ (356c <sark_core_id+0x8>)
    3566:	6818      	ldr	r0, [r3, #0]
    3568:	4770      	bx	lr
    356a:	46c0      	nop			@ (mov r8, r8)
    356c:	00400934 	.word	0x00400934

00003570 <sark_cpu_state>:
    3570:	4b02      	ldr	r3, [pc, #8]	@ (357c <sark_cpu_state+0xc>)
    3572:	69db      	ldr	r3, [r3, #28]
    3574:	332e      	adds	r3, #46	@ 0x2e
    3576:	7018      	strb	r0, [r3, #0]
    3578:	4770      	bx	lr
    357a:	46c0      	nop			@ (mov r8, r8)
    357c:	00400934 	.word	0x00400934

00003580 <sark_app_lead>:
    3580:	235c      	movs	r3, #92	@ 0x5c
    3582:	781a      	ldrb	r2, [r3, #0]
    3584:	4b02      	ldr	r3, [pc, #8]	@ (3590 <sark_app_lead+0x10>)
    3586:	00d2      	lsls	r2, r2, #3
    3588:	681b      	ldr	r3, [r3, #0]
    358a:	189b      	adds	r3, r3, r2
    358c:	78d8      	ldrb	r0, [r3, #3]
    358e:	4770      	bx	lr
    3590:	e5007fe4 	.word	0xe5007fe4

00003594 <sark_block_init>:
    3594:	b530      	push	{r4, r5, lr}
    3596:	000b      	movs	r3, r1
    3598:	0004      	movs	r4, r0
    359a:	3b01      	subs	r3, #1
    359c:	2b00      	cmp	r3, #0
    359e:	d104      	bne.n	35aa <sark_block_init+0x16>
    35a0:	3901      	subs	r1, #1
    35a2:	434a      	muls	r2, r1
    35a4:	1880      	adds	r0, r0, r2
    35a6:	6003      	str	r3, [r0, #0]
    35a8:	bd30      	pop	{r4, r5, pc}
    35aa:	18a5      	adds	r5, r4, r2
    35ac:	6025      	str	r5, [r4, #0]
    35ae:	002c      	movs	r4, r5
    35b0:	e7f3      	b.n	359a <sark_block_init+0x6>
	...

000035b4 <sark_msg_get>:
    35b4:	b510      	push	{r4, lr}
    35b6:	f7fc ee00 	blx	1b8 <cpu_int_disable>
    35ba:	4a09      	ldr	r2, [pc, #36]	@ (35e0 <sark_msg_get+0x2c>)
    35bc:	6a14      	ldr	r4, [r2, #32]
    35be:	2c00      	cmp	r4, #0
    35c0:	d00a      	beq.n	35d8 <sark_msg_get+0x24>
    35c2:	6823      	ldr	r3, [r4, #0]
    35c4:	6213      	str	r3, [r2, #32]
    35c6:	8c93      	ldrh	r3, [r2, #36]	@ 0x24
    35c8:	8cd1      	ldrh	r1, [r2, #38]	@ 0x26
    35ca:	3301      	adds	r3, #1
    35cc:	041b      	lsls	r3, r3, #16
    35ce:	0c1b      	lsrs	r3, r3, #16
    35d0:	8493      	strh	r3, [r2, #36]	@ 0x24
    35d2:	4299      	cmp	r1, r3
    35d4:	d200      	bcs.n	35d8 <sark_msg_get+0x24>
    35d6:	84d3      	strh	r3, [r2, #38]	@ 0x26
    35d8:	f7fc edf6 	blx	1c8 <cpu_int_restore>
    35dc:	0020      	movs	r0, r4
    35de:	bd10      	pop	{r4, pc}
    35e0:	00400934 	.word	0x00400934

000035e4 <sark_msg_free>:
    35e4:	b510      	push	{r4, lr}
    35e6:	0004      	movs	r4, r0
    35e8:	f7fc ede6 	blx	1b8 <cpu_int_disable>
    35ec:	4b04      	ldr	r3, [pc, #16]	@ (3600 <sark_msg_free+0x1c>)
    35ee:	6a1a      	ldr	r2, [r3, #32]
    35f0:	6022      	str	r2, [r4, #0]
    35f2:	8c9a      	ldrh	r2, [r3, #36]	@ 0x24
    35f4:	621c      	str	r4, [r3, #32]
    35f6:	3a01      	subs	r2, #1
    35f8:	849a      	strh	r2, [r3, #36]	@ 0x24
    35fa:	f7fc ede6 	blx	1c8 <cpu_int_restore>
    35fe:	bd10      	pop	{r4, pc}
    3600:	00400934 	.word	0x00400934

00003604 <sark_shmsg_get>:
    3604:	b510      	push	{r4, lr}
    3606:	2000      	movs	r0, #0
    3608:	f7fc ede6 	blx	1d8 <sark_lock_get>
    360c:	4a09      	ldr	r2, [pc, #36]	@ (3634 <sark_shmsg_get+0x30>)
    360e:	6814      	ldr	r4, [r2, #0]
    3610:	2c00      	cmp	r4, #0
    3612:	d00a      	beq.n	362a <sark_shmsg_get+0x26>
    3614:	6823      	ldr	r3, [r4, #0]
    3616:	6013      	str	r3, [r2, #0]
    3618:	8893      	ldrh	r3, [r2, #4]
    361a:	88d1      	ldrh	r1, [r2, #6]
    361c:	3301      	adds	r3, #1
    361e:	041b      	lsls	r3, r3, #16
    3620:	0c1b      	lsrs	r3, r3, #16
    3622:	8093      	strh	r3, [r2, #4]
    3624:	4299      	cmp	r1, r3
    3626:	d200      	bcs.n	362a <sark_shmsg_get+0x26>
    3628:	80d3      	strh	r3, [r2, #6]
    362a:	2100      	movs	r1, #0
    362c:	f7fc ede6 	blx	1fc <sark_lock_free>
    3630:	0020      	movs	r0, r4
    3632:	bd10      	pop	{r4, pc}
    3634:	e5007f68 	.word	0xe5007f68

00003638 <sark_shmsg_free>:
    3638:	b510      	push	{r4, lr}
    363a:	0004      	movs	r4, r0
    363c:	2000      	movs	r0, #0
    363e:	f7fc edcc 	blx	1d8 <sark_lock_get>
    3642:	4b05      	ldr	r3, [pc, #20]	@ (3658 <sark_shmsg_free+0x20>)
    3644:	2100      	movs	r1, #0
    3646:	681a      	ldr	r2, [r3, #0]
    3648:	6022      	str	r2, [r4, #0]
    364a:	889a      	ldrh	r2, [r3, #4]
    364c:	601c      	str	r4, [r3, #0]
    364e:	3a01      	subs	r2, #1
    3650:	809a      	strh	r2, [r3, #4]
    3652:	f7fc edd4 	blx	1fc <sark_lock_free>
    3656:	bd10      	pop	{r4, pc}
    3658:	e5007f68 	.word	0xe5007f68

0000365c <sark_call_cpp_constructors>:
    365c:	b510      	push	{r4, lr}
    365e:	4c04      	ldr	r4, [pc, #16]	@ (3670 <sark_call_cpp_constructors+0x14>)
    3660:	4b04      	ldr	r3, [pc, #16]	@ (3674 <sark_call_cpp_constructors+0x18>)
    3662:	429c      	cmp	r4, r3
    3664:	d300      	bcc.n	3668 <sark_call_cpp_constructors+0xc>
    3666:	bd10      	pop	{r4, pc}
    3668:	cc08      	ldmia	r4!, {r3}
    366a:	4798      	blx	r3
    366c:	e7f8      	b.n	3660 <sark_call_cpp_constructors+0x4>
    366e:	46c0      	nop			@ (mov r8, r8)
    3670:	000054ac 	.word	0x000054ac
    3674:	000054ac 	.word	0x000054ac

00003678 <sark_init>:
    3678:	b570      	push	{r4, r5, r6, lr}
    367a:	2520      	movs	r5, #32
    367c:	0004      	movs	r4, r0
    367e:	8c28      	ldrh	r0, [r5, #32]
    3680:	8c6a      	ldrh	r2, [r5, #34]	@ 0x22
    3682:	0080      	lsls	r0, r0, #2
    3684:	1a20      	subs	r0, r4, r0
    3686:	21d2      	movs	r1, #210	@ 0xd2
    3688:	f7fc ed82 	blx	190 <cpu_init_mode>
    368c:	8caa      	ldrh	r2, [r5, #36]	@ 0x24
    368e:	21d1      	movs	r1, #209	@ 0xd1
    3690:	f7fc ed7e 	blx	190 <cpu_init_mode>
    3694:	2200      	movs	r2, #0
    3696:	21df      	movs	r1, #223	@ 0xdf
    3698:	f7fc ed7a 	blx	190 <cpu_init_mode>
    369c:	8ceb      	ldrh	r3, [r5, #38]	@ 0x26
    369e:	2658      	movs	r6, #88	@ 0x58
    36a0:	089b      	lsrs	r3, r3, #2
    36a2:	009b      	lsls	r3, r3, #2
    36a4:	1ae1      	subs	r1, r4, r3
    36a6:	4c35      	ldr	r4, [pc, #212]	@ (377c <sark_init+0x104>)
    36a8:	6121      	str	r1, [r4, #16]
    36aa:	6ae8      	ldr	r0, [r5, #44]	@ 0x2c
    36ac:	6160      	str	r0, [r4, #20]
    36ae:	f000 fc45 	bl	3f3c <sark_heap_init>
    36b2:	4b33      	ldr	r3, [pc, #204]	@ (3780 <sark_init+0x108>)
    36b4:	4a33      	ldr	r2, [pc, #204]	@ (3784 <sark_init+0x10c>)
    36b6:	681b      	ldr	r3, [r3, #0]
    36b8:	4d33      	ldr	r5, [pc, #204]	@ (3788 <sark_init+0x110>)
    36ba:	0e1b      	lsrs	r3, r3, #24
    36bc:	6063      	str	r3, [r4, #4]
    36be:	189b      	adds	r3, r3, r2
    36c0:	2192      	movs	r1, #146	@ 0x92
    36c2:	0049      	lsls	r1, r1, #1
    36c4:	61a0      	str	r0, [r4, #24]
    36c6:	781b      	ldrb	r3, [r3, #0]
    36c8:	6023      	str	r3, [r4, #0]
    36ca:	8cab      	ldrh	r3, [r5, #36]	@ 0x24
    36cc:	8623      	strh	r3, [r4, #48]	@ 0x30
    36ce:	4b2f      	ldr	r3, [pc, #188]	@ (378c <sark_init+0x114>)
    36d0:	60a3      	str	r3, [r4, #8]
    36d2:	7830      	ldrb	r0, [r6, #0]
    36d4:	f000 fbca 	bl	3e6c <sark_alloc>
    36d8:	2292      	movs	r2, #146	@ 0x92
    36da:	0052      	lsls	r2, r2, #1
    36dc:	6220      	str	r0, [r4, #32]
    36de:	7831      	ldrb	r1, [r6, #0]
    36e0:	f7ff ff58 	bl	3594 <sark_block_init>
    36e4:	4b2a      	ldr	r3, [pc, #168]	@ (3790 <sark_init+0x118>)
    36e6:	221f      	movs	r2, #31
    36e8:	681b      	ldr	r3, [r3, #0]
    36ea:	4013      	ands	r3, r2
    36ec:	6862      	ldr	r2, [r4, #4]
    36ee:	429a      	cmp	r2, r3
    36f0:	d02c      	beq.n	374c <sark_init+0xd4>
    36f2:	6822      	ldr	r2, [r4, #0]
    36f4:	4b27      	ldr	r3, [pc, #156]	@ (3794 <sark_init+0x11c>)
    36f6:	01d0      	lsls	r0, r2, #7
    36f8:	18c0      	adds	r0, r0, r3
    36fa:	6dab      	ldr	r3, [r5, #88]	@ 0x58
    36fc:	2100      	movs	r1, #0
    36fe:	4353      	muls	r3, r2
    3700:	6d6a      	ldr	r2, [r5, #84]	@ 0x54
    3702:	009b      	lsls	r3, r3, #2
    3704:	18d3      	adds	r3, r2, r3
    3706:	2270      	movs	r2, #112	@ 0x70
    3708:	61e0      	str	r0, [r4, #28]
    370a:	6363      	str	r3, [r4, #52]	@ 0x34
    370c:	f7fc ed94 	blx	238 <sark_word_set>
    3710:	69e0      	ldr	r0, [r4, #28]
    3712:	2205      	movs	r2, #5
    3714:	0003      	movs	r3, r0
    3716:	332e      	adds	r3, #46	@ 0x2e
    3718:	701a      	strb	r2, [r3, #0]
    371a:	6862      	ldr	r2, [r4, #4]
    371c:	3b01      	subs	r3, #1
    371e:	701a      	strb	r2, [r3, #0]
    3720:	225c      	movs	r2, #92	@ 0x5c
    3722:	7812      	ldrb	r2, [r2, #0]
    3724:	2480      	movs	r4, #128	@ 0x80
    3726:	709a      	strb	r2, [r3, #2]
    3728:	02e4      	lsls	r4, r4, #11
    372a:	69eb      	ldr	r3, [r5, #28]
    372c:	6443      	str	r3, [r0, #68]	@ 0x44
    372e:	65c4      	str	r4, [r0, #92]	@ 0x5c
    3730:	4919      	ldr	r1, [pc, #100]	@ (3798 <sark_init+0x120>)
    3732:	3048      	adds	r0, #72	@ 0x48
    3734:	f7fc ed76 	blx	224 <sark_str_cpy>
    3738:	4b18      	ldr	r3, [pc, #96]	@ (379c <sark_init+0x124>)
    373a:	22ff      	movs	r2, #255	@ 0xff
    373c:	681b      	ldr	r3, [r3, #0]
    373e:	0412      	lsls	r2, r2, #16
    3740:	4013      	ands	r3, r2
    3742:	42a3      	cmp	r3, r4
    3744:	d002      	beq.n	374c <sark_init+0xd4>
    3746:	2014      	movs	r0, #20
    3748:	f7fc ecf0 	blx	12c <rt_error>
    374c:	f000 fa3e 	bl	3bcc <sark_vic_init>
    3750:	2259      	movs	r2, #89	@ 0x59
    3752:	7810      	ldrb	r0, [r2, #0]
    3754:	4b12      	ldr	r3, [pc, #72]	@ (37a0 <sark_init+0x128>)
    3756:	3a58      	subs	r2, #88	@ 0x58
    3758:	2112      	movs	r1, #18
    375a:	f000 fa5f 	bl	3c1c <sark_vic_set>
    375e:	2201      	movs	r2, #1
    3760:	2106      	movs	r1, #6
    3762:	4b10      	ldr	r3, [pc, #64]	@ (37a4 <sark_init+0x12c>)
    3764:	2010      	movs	r0, #16
    3766:	f000 fa59 	bl	3c1c <sark_vic_set>
    376a:	235a      	movs	r3, #90	@ 0x5a
    376c:	7818      	ldrb	r0, [r3, #0]
    376e:	f000 f9fd 	bl	3b6c <event_alloc>
    3772:	f000 fa21 	bl	3bb8 <timer_cancel_init>
    3776:	201f      	movs	r0, #31
    3778:	bd70      	pop	{r4, r5, r6, pc}
    377a:	46c0      	nop			@ (mov r8, r8)
    377c:	00400934 	.word	0x00400934
    3780:	40000014 	.word	0x40000014
    3784:	e5007f94 	.word	0xe5007f94
    3788:	e5007f00 	.word	0xe5007f00
    378c:	deaddead 	.word	0xdeaddead
    3790:	e2000034 	.word	0xe2000034
    3794:	e5007000 	.word	0xe5007000
    3798:	000054b0 	.word	0x000054b0
    379c:	e5007ffc 	.word	0xe5007ffc
    37a0:	000002f0 	.word	0x000002f0
    37a4:	00003d58 	.word	0x00003d58

000037a8 <sark_msg_send>:
    37a8:	b570      	push	{r4, r5, r6, lr}
    37aa:	4d1d      	ldr	r5, [pc, #116]	@ (3820 <sark_msg_send+0x78>)
    37ac:	0006      	movs	r6, r0
    37ae:	481d      	ldr	r0, [pc, #116]	@ (3824 <sark_msg_send+0x7c>)
    37b0:	69eb      	ldr	r3, [r5, #28]
    37b2:	6804      	ldr	r4, [r0, #0]
    37b4:	3339      	adds	r3, #57	@ 0x39
    37b6:	781a      	ldrb	r2, [r3, #0]
    37b8:	2a00      	cmp	r2, #0
    37ba:	d003      	beq.n	37c4 <sark_msg_send+0x1c>
    37bc:	6802      	ldr	r2, [r0, #0]
    37be:	1b12      	subs	r2, r2, r4
    37c0:	428a      	cmp	r2, r1
    37c2:	d9f8      	bls.n	37b6 <sark_msg_send+0xe>
    37c4:	781b      	ldrb	r3, [r3, #0]
    37c6:	2b00      	cmp	r3, #0
    37c8:	d001      	beq.n	37ce <sark_msg_send+0x26>
    37ca:	2000      	movs	r0, #0
    37cc:	bd70      	pop	{r4, r5, r6, pc}
    37ce:	f7ff ff19 	bl	3604 <sark_shmsg_get>
    37d2:	1e04      	subs	r4, r0, #0
    37d4:	d0f9      	beq.n	37ca <sark_msg_send+0x22>
    37d6:	0031      	movs	r1, r6
    37d8:	f7fc ed40 	blx	25c <sark_msg_cpy>
    37dc:	69eb      	ldr	r3, [r5, #28]
    37de:	635c      	str	r4, [r3, #52]	@ 0x34
    37e0:	3339      	adds	r3, #57	@ 0x39
    37e2:	2401      	movs	r4, #1
    37e4:	701c      	strb	r4, [r3, #0]
    37e6:	0020      	movs	r0, r4
    37e8:	f7fc ecf6 	blx	1d8 <sark_lock_get>
    37ec:	682b      	ldr	r3, [r5, #0]
    37ee:	490e      	ldr	r1, [pc, #56]	@ (3828 <sark_msg_send+0x80>)
    37f0:	0026      	movs	r6, r4
    37f2:	680a      	ldr	r2, [r1, #0]
    37f4:	409e      	lsls	r6, r3
    37f6:	0033      	movs	r3, r6
    37f8:	4313      	orrs	r3, r2
    37fa:	600b      	str	r3, [r1, #0]
    37fc:	2a00      	cmp	r2, #0
    37fe:	d106      	bne.n	380e <sark_msg_send+0x66>
    3800:	4b0a      	ldr	r3, [pc, #40]	@ (382c <sark_msg_send+0x84>)
    3802:	781b      	ldrb	r3, [r3, #0]
    3804:	409c      	lsls	r4, r3
    3806:	4b0a      	ldr	r3, [pc, #40]	@ (3830 <sark_msg_send+0x88>)
    3808:	18e4      	adds	r4, r4, r3
    380a:	4b0a      	ldr	r3, [pc, #40]	@ (3834 <sark_msg_send+0x8c>)
    380c:	601c      	str	r4, [r3, #0]
    380e:	2101      	movs	r1, #1
    3810:	f7fc ecf4 	blx	1fc <sark_lock_free>
    3814:	6aeb      	ldr	r3, [r5, #44]	@ 0x2c
    3816:	2001      	movs	r0, #1
    3818:	3301      	adds	r3, #1
    381a:	62eb      	str	r3, [r5, #44]	@ 0x2c
    381c:	e7d6      	b.n	37cc <sark_msg_send+0x24>
    381e:	46c0      	nop			@ (mov r8, r8)
    3820:	00400934 	.word	0x00400934
    3824:	e5007f10 	.word	0xe5007f10
    3828:	e5007fec 	.word	0xe5007fec
    382c:	e5007fa8 	.word	0xe5007fa8
    3830:	5ec00000 	.word	0x5ec00000
    3834:	e2000008 	.word	0xe2000008

00003838 <sark_cmd_ver>:
    3838:	4a0d      	ldr	r2, [pc, #52]	@ (3870 <sark_cmd_ver+0x38>)
    383a:	b510      	push	{r4, lr}
    383c:	6853      	ldr	r3, [r2, #4]
    383e:	6812      	ldr	r2, [r2, #0]
    3840:	021b      	lsls	r3, r3, #8
    3842:	189b      	adds	r3, r3, r2
    3844:	4a0b      	ldr	r2, [pc, #44]	@ (3874 <sark_cmd_ver+0x3c>)
    3846:	0004      	movs	r4, r0
    3848:	8812      	ldrh	r2, [r2, #0]
    384a:	490b      	ldr	r1, [pc, #44]	@ (3878 <sark_cmd_ver+0x40>)
    384c:	0412      	lsls	r2, r2, #16
    384e:	189b      	adds	r3, r3, r2
    3850:	6143      	str	r3, [r0, #20]
    3852:	4b0a      	ldr	r3, [pc, #40]	@ (387c <sark_cmd_ver+0x44>)
    3854:	6183      	str	r3, [r0, #24]
    3856:	4b0a      	ldr	r3, [pc, #40]	@ (3880 <sark_cmd_ver+0x48>)
    3858:	681b      	ldr	r3, [r3, #0]
    385a:	61c3      	str	r3, [r0, #28]
    385c:	3020      	adds	r0, #32
    385e:	f7fc ece2 	blx	224 <sark_str_cpy>
    3862:	0020      	movs	r0, r4
    3864:	4907      	ldr	r1, [pc, #28]	@ (3884 <sark_cmd_ver+0x4c>)
    3866:	302f      	adds	r0, #47	@ 0x2f
    3868:	f7fc ecdc 	blx	224 <sark_str_cpy>
    386c:	2021      	movs	r0, #33	@ 0x21
    386e:	bd10      	pop	{r4, pc}
    3870:	00400934 	.word	0x00400934
    3874:	e5007f00 	.word	0xe5007f00
    3878:	000054bb 	.word	0x000054bb
    387c:	ffff0100 	.word	0xffff0100
    3880:	000054ac 	.word	0x000054ac
    3884:	000054ca 	.word	0x000054ca

00003888 <sark_cmd_read>:
    3888:	0003      	movs	r3, r0
    388a:	6980      	ldr	r0, [r0, #24]
    388c:	2280      	movs	r2, #128	@ 0x80
    388e:	69d9      	ldr	r1, [r3, #28]
    3890:	0052      	lsls	r2, r2, #1
    3892:	b510      	push	{r4, lr}
    3894:	4290      	cmp	r0, r2
    3896:	d801      	bhi.n	389c <sark_cmd_read+0x14>
    3898:	2902      	cmp	r1, #2
    389a:	d903      	bls.n	38a4 <sark_cmd_read+0x1c>
    389c:	2284      	movs	r2, #132	@ 0x84
    389e:	2000      	movs	r0, #0
    38a0:	821a      	strh	r2, [r3, #16]
    38a2:	bd10      	pop	{r4, pc}
    38a4:	695a      	ldr	r2, [r3, #20]
    38a6:	2900      	cmp	r1, #0
    38a8:	d107      	bne.n	38ba <sark_cmd_read+0x32>
    38aa:	1819      	adds	r1, r3, r0
    38ac:	1ad2      	subs	r2, r2, r3
    38ae:	428b      	cmp	r3, r1
    38b0:	d0f7      	beq.n	38a2 <sark_cmd_read+0x1a>
    38b2:	5cd4      	ldrb	r4, [r2, r3]
    38b4:	751c      	strb	r4, [r3, #20]
    38b6:	3301      	adds	r3, #1
    38b8:	e7f9      	b.n	38ae <sark_cmd_read+0x26>
    38ba:	2901      	cmp	r1, #1
    38bc:	d109      	bne.n	38d2 <sark_cmd_read+0x4a>
    38be:	0841      	lsrs	r1, r0, #1
    38c0:	0049      	lsls	r1, r1, #1
    38c2:	1859      	adds	r1, r3, r1
    38c4:	1ad2      	subs	r2, r2, r3
    38c6:	428b      	cmp	r3, r1
    38c8:	d0eb      	beq.n	38a2 <sark_cmd_read+0x1a>
    38ca:	5ad4      	ldrh	r4, [r2, r3]
    38cc:	829c      	strh	r4, [r3, #20]
    38ce:	3302      	adds	r3, #2
    38d0:	e7f9      	b.n	38c6 <sark_cmd_read+0x3e>
    38d2:	0881      	lsrs	r1, r0, #2
    38d4:	0089      	lsls	r1, r1, #2
    38d6:	1859      	adds	r1, r3, r1
    38d8:	1ad2      	subs	r2, r2, r3
    38da:	428b      	cmp	r3, r1
    38dc:	d0e1      	beq.n	38a2 <sark_cmd_read+0x1a>
    38de:	58d4      	ldr	r4, [r2, r3]
    38e0:	615c      	str	r4, [r3, #20]
    38e2:	3304      	adds	r3, #4
    38e4:	e7f9      	b.n	38da <sark_cmd_read+0x52>

000038e6 <sark_cmd_write>:
    38e6:	6983      	ldr	r3, [r0, #24]
    38e8:	2280      	movs	r2, #128	@ 0x80
    38ea:	69c1      	ldr	r1, [r0, #28]
    38ec:	0052      	lsls	r2, r2, #1
    38ee:	b510      	push	{r4, lr}
    38f0:	4293      	cmp	r3, r2
    38f2:	d801      	bhi.n	38f8 <sark_cmd_write+0x12>
    38f4:	2902      	cmp	r1, #2
    38f6:	d903      	bls.n	3900 <sark_cmd_write+0x1a>
    38f8:	2384      	movs	r3, #132	@ 0x84
    38fa:	8203      	strh	r3, [r0, #16]
    38fc:	2000      	movs	r0, #0
    38fe:	bd10      	pop	{r4, pc}
    3900:	6942      	ldr	r2, [r0, #20]
    3902:	2900      	cmp	r1, #0
    3904:	d106      	bne.n	3914 <sark_cmd_write+0x2e>
    3906:	3020      	adds	r0, #32
    3908:	4299      	cmp	r1, r3
    390a:	d0f7      	beq.n	38fc <sark_cmd_write+0x16>
    390c:	5c44      	ldrb	r4, [r0, r1]
    390e:	548c      	strb	r4, [r1, r2]
    3910:	3101      	adds	r1, #1
    3912:	e7f9      	b.n	3908 <sark_cmd_write+0x22>
    3914:	2901      	cmp	r1, #1
    3916:	d109      	bne.n	392c <sark_cmd_write+0x46>
    3918:	085b      	lsrs	r3, r3, #1
    391a:	005b      	lsls	r3, r3, #1
    391c:	18c3      	adds	r3, r0, r3
    391e:	1a12      	subs	r2, r2, r0
    3920:	4298      	cmp	r0, r3
    3922:	d0eb      	beq.n	38fc <sark_cmd_write+0x16>
    3924:	8c01      	ldrh	r1, [r0, #32]
    3926:	5211      	strh	r1, [r2, r0]
    3928:	3002      	adds	r0, #2
    392a:	e7f9      	b.n	3920 <sark_cmd_write+0x3a>
    392c:	089b      	lsrs	r3, r3, #2
    392e:	009b      	lsls	r3, r3, #2
    3930:	18c3      	adds	r3, r0, r3
    3932:	1a12      	subs	r2, r2, r0
    3934:	4298      	cmp	r0, r3
    3936:	d0e1      	beq.n	38fc <sark_cmd_write+0x16>
    3938:	6a01      	ldr	r1, [r0, #32]
    393a:	5011      	str	r1, [r2, r0]
    393c:	3004      	adds	r0, #4
    393e:	e7f9      	b.n	3934 <sark_cmd_write+0x4e>

00003940 <sark_cmd_fill>:
    3940:	3014      	adds	r0, #20
    3942:	c807      	ldmia	r0, {r0, r1, r2}
    3944:	b510      	push	{r4, lr}
    3946:	f7fc ec78 	blx	238 <sark_word_set>
    394a:	2000      	movs	r0, #0
    394c:	bd10      	pop	{r4, pc}

0000394e <sark_wait>:
    394e:	b570      	push	{r4, r5, r6, lr}
    3950:	255d      	movs	r5, #93	@ 0x5d
    3952:	2401      	movs	r4, #1
    3954:	782b      	ldrb	r3, [r5, #0]
    3956:	4223      	tst	r3, r4
    3958:	d100      	bne.n	395c <sark_wait+0xe>
    395a:	bd70      	pop	{r4, r5, r6, pc}
    395c:	f7fc ec38 	blx	1d0 <cpu_wfi>
    3960:	e7f8      	b.n	3954 <sark_wait+0x6>
	...

00003964 <sark_int>:
    3964:	b570      	push	{r4, r5, r6, lr}
    3966:	4d53      	ldr	r5, [pc, #332]	@ (3ab4 <sark_int+0x150>)
    3968:	2301      	movs	r3, #1
    396a:	686a      	ldr	r2, [r5, #4]
    396c:	69e9      	ldr	r1, [r5, #28]
    396e:	4093      	lsls	r3, r2
    3970:	4a51      	ldr	r2, [pc, #324]	@ (3ab8 <sark_int+0x154>)
    3972:	189b      	adds	r3, r3, r2
    3974:	4a51      	ldr	r2, [pc, #324]	@ (3abc <sark_int+0x158>)
    3976:	6013      	str	r3, [r2, #0]
    3978:	000a      	movs	r2, r1
    397a:	3238      	adds	r2, #56	@ 0x38
    397c:	7813      	ldrb	r3, [r2, #0]
    397e:	2b00      	cmp	r3, #0
    3980:	d005      	beq.n	398e <sark_int+0x2a>
    3982:	6b0e      	ldr	r6, [r1, #48]	@ 0x30
    3984:	2400      	movs	r4, #0
    3986:	2b02      	cmp	r3, #2
    3988:	d102      	bne.n	3990 <sark_int+0x2c>
    398a:	6308      	str	r0, [r1, #48]	@ 0x30
    398c:	7014      	strb	r4, [r2, #0]
    398e:	bd70      	pop	{r4, r5, r6, pc}
    3990:	7014      	strb	r4, [r2, #0]
    3992:	2b03      	cmp	r3, #3
    3994:	d124      	bne.n	39e0 <sark_int+0x7c>
    3996:	1ef0      	subs	r0, r6, #3
    3998:	280a      	cmp	r0, #10
    399a:	d8f8      	bhi.n	398e <sark_int+0x2a>
    399c:	f001 fc44 	bl	5228 <__gnu_thumb1_case_sqi>
    39a0:	06f7f710 	.word	0x06f7f710
    39a4:	161d0c0a 	.word	0x161d0c0a
    39a8:	1616      	.short	0x1616
    39aa:	16          	.byte	0x16
    39ab:	00          	.byte	0x00
    39ac:	2001      	movs	r0, #1
    39ae:	f000 f8bb 	bl	3b28 <event_pause>
    39b2:	e7ec      	b.n	398e <sark_int+0x2a>
    39b4:	2000      	movs	r0, #0
    39b6:	e7fa      	b.n	39ae <sark_int+0x4a>
    39b8:	20ff      	movs	r0, #255	@ 0xff
    39ba:	f000 f8cb 	bl	3b54 <event_stop>
    39be:	e7e6      	b.n	398e <sark_int+0x2a>
    39c0:	225d      	movs	r2, #93	@ 0x5d
    39c2:	7813      	ldrb	r3, [r2, #0]
    39c4:	2101      	movs	r1, #1
    39c6:	438b      	bics	r3, r1
    39c8:	7013      	strb	r3, [r2, #0]
    39ca:	e7e0      	b.n	398e <sark_int+0x2a>
    39cc:	4b3c      	ldr	r3, [pc, #240]	@ (3ac0 <sark_int+0x15c>)
    39ce:	2280      	movs	r2, #128	@ 0x80
    39d0:	62de      	str	r6, [r3, #44]	@ 0x2c
    39d2:	4b3c      	ldr	r3, [pc, #240]	@ (3ac4 <sark_int+0x160>)
    39d4:	0592      	lsls	r2, r2, #22
    39d6:	601a      	str	r2, [r3, #0]
    39d8:	e7d9      	b.n	398e <sark_int+0x2a>
    39da:	4b3a      	ldr	r3, [pc, #232]	@ (3ac4 <sark_int+0x160>)
    39dc:	2210      	movs	r2, #16
    39de:	e7fa      	b.n	39d6 <sark_int+0x72>
    39e0:	2b01      	cmp	r3, #1
    39e2:	d1d4      	bne.n	398e <sark_int+0x2a>
    39e4:	f7ff fde6 	bl	35b4 <sark_msg_get>
    39e8:	1e04      	subs	r4, r0, #0
    39ea:	d05f      	beq.n	3aac <sark_int+0x148>
    39ec:	0031      	movs	r1, r6
    39ee:	f7fc ec36 	blx	25c <sark_msg_cpy>
    39f2:	0030      	movs	r0, r6
    39f4:	f7ff fe20 	bl	3638 <sark_shmsg_free>
    39f8:	6aab      	ldr	r3, [r5, #40]	@ 0x28
    39fa:	3301      	adds	r3, #1
    39fc:	62ab      	str	r3, [r5, #40]	@ 0x28
    39fe:	7aa5      	ldrb	r5, [r4, #10]
    3a00:	2d1f      	cmp	r5, #31
    3a02:	d834      	bhi.n	3a6e <sark_int+0x10a>
    3a04:	88a3      	ldrh	r3, [r4, #4]
    3a06:	2b17      	cmp	r3, #23
    3a08:	d803      	bhi.n	3a12 <sark_int+0xae>
    3a0a:	2381      	movs	r3, #129	@ 0x81
    3a0c:	2000      	movs	r0, #0
    3a0e:	8223      	strh	r3, [r4, #16]
    3a10:	e00c      	b.n	3a2c <sark_int+0xc8>
    3a12:	8a20      	ldrh	r0, [r4, #16]
    3a14:	2380      	movs	r3, #128	@ 0x80
    3a16:	8223      	strh	r3, [r4, #16]
    3a18:	2805      	cmp	r0, #5
    3a1a:	d826      	bhi.n	3a6a <sark_int+0x106>
    3a1c:	f7fc fc9a 	bl	354 <__gnu_thumb1_case_uqi>
    3a20:	1d192503 	.word	0x1d192503
    3a24:	2125      	.short	0x2125
    3a26:	0020      	movs	r0, r4
    3a28:	f7ff ff06 	bl	3838 <sark_cmd_ver>
    3a2c:	8963      	ldrh	r3, [r4, #10]
    3a2e:	89a1      	ldrh	r1, [r4, #12]
    3a30:	021a      	lsls	r2, r3, #8
    3a32:	0a1b      	lsrs	r3, r3, #8
    3a34:	4313      	orrs	r3, r2
    3a36:	300c      	adds	r0, #12
    3a38:	8163      	strh	r3, [r4, #10]
    3a3a:	89e3      	ldrh	r3, [r4, #14]
    3a3c:	80a0      	strh	r0, [r4, #4]
    3a3e:	81e1      	strh	r1, [r4, #14]
    3a40:	0020      	movs	r0, r4
    3a42:	210a      	movs	r1, #10
    3a44:	81a3      	strh	r3, [r4, #12]
    3a46:	f7ff feaf 	bl	37a8 <sark_msg_send>
    3a4a:	0020      	movs	r0, r4
    3a4c:	f7ff fdca 	bl	35e4 <sark_msg_free>
    3a50:	e79d      	b.n	398e <sark_int+0x2a>
    3a52:	0020      	movs	r0, r4
    3a54:	f7ff ff18 	bl	3888 <sark_cmd_read>
    3a58:	e7e8      	b.n	3a2c <sark_int+0xc8>
    3a5a:	0020      	movs	r0, r4
    3a5c:	f7ff ff43 	bl	38e6 <sark_cmd_write>
    3a60:	e7e4      	b.n	3a2c <sark_int+0xc8>
    3a62:	0020      	movs	r0, r4
    3a64:	f7ff ff6c 	bl	3940 <sark_cmd_fill>
    3a68:	e7e0      	b.n	3a2c <sark_int+0xc8>
    3a6a:	2383      	movs	r3, #131	@ 0x83
    3a6c:	e7ce      	b.n	3a0c <sark_int+0xa8>
    3a6e:	235b      	movs	r3, #91	@ 0x5b
    3a70:	781b      	ldrb	r3, [r3, #0]
    3a72:	2b00      	cmp	r3, #0
    3a74:	d00f      	beq.n	3a96 <sark_int+0x132>
    3a76:	4b14      	ldr	r3, [pc, #80]	@ (3ac8 <sark_int+0x164>)
    3a78:	699b      	ldr	r3, [r3, #24]
    3a7a:	2b00      	cmp	r3, #0
    3a7c:	d0e5      	beq.n	3a4a <sark_int+0xe6>
    3a7e:	f7fc eb9c 	blx	1b8 <cpu_int_disable>
    3a82:	096a      	lsrs	r2, r5, #5
    3a84:	0021      	movs	r1, r4
    3a86:	0006      	movs	r6, r0
    3a88:	2003      	movs	r0, #3
    3a8a:	f001 f8cd 	bl	4c28 <schedule_sysmode>
    3a8e:	0030      	movs	r0, r6
    3a90:	f7fc eb9a 	blx	1c8 <cpu_int_restore>
    3a94:	e77b      	b.n	398e <sark_int+0x2a>
    3a96:	4b0d      	ldr	r3, [pc, #52]	@ (3acc <sark_int+0x168>)
    3a98:	681a      	ldr	r2, [r3, #0]
    3a9a:	2380      	movs	r3, #128	@ 0x80
    3a9c:	055b      	lsls	r3, r3, #21
    3a9e:	421a      	tst	r2, r3
    3aa0:	d0d3      	beq.n	3a4a <sark_int+0xe6>
    3aa2:	4a07      	ldr	r2, [pc, #28]	@ (3ac0 <sark_int+0x15c>)
    3aa4:	6294      	str	r4, [r2, #40]	@ 0x28
    3aa6:	4a07      	ldr	r2, [pc, #28]	@ (3ac4 <sark_int+0x160>)
    3aa8:	6013      	str	r3, [r2, #0]
    3aaa:	e770      	b.n	398e <sark_int+0x2a>
    3aac:	0030      	movs	r0, r6
    3aae:	f7ff fdc3 	bl	3638 <sark_shmsg_free>
    3ab2:	e76c      	b.n	398e <sark_int+0x2a>
    3ab4:	00400934 	.word	0x00400934
    3ab8:	5ec00000 	.word	0x5ec00000
    3abc:	e200000c 	.word	0xe200000c
    3ac0:	00400970 	.word	0x00400970
    3ac4:	1f000018 	.word	0x1f000018
    3ac8:	00400a80 	.word	0x00400a80
    3acc:	1f000010 	.word	0x1f000010

00003ad0 <event_wait>:
    3ad0:	4b12      	ldr	r3, [pc, #72]	@ (3b1c <event_wait+0x4c>)
    3ad2:	b570      	push	{r4, r5, r6, lr}
    3ad4:	681b      	ldr	r3, [r3, #0]
    3ad6:	4d12      	ldr	r5, [pc, #72]	@ (3b20 <event_wait+0x50>)
    3ad8:	2401      	movs	r4, #1
    3ada:	409c      	lsls	r4, r3
    3adc:	7eab      	ldrb	r3, [r5, #26]
    3ade:	4e11      	ldr	r6, [pc, #68]	@ (3b24 <event_wait+0x54>)
    3ae0:	2b00      	cmp	r3, #0
    3ae2:	d011      	beq.n	3b08 <event_wait+0x38>
    3ae4:	2009      	movs	r0, #9
    3ae6:	f7ff fd43 	bl	3570 <sark_cpu_state>
    3aea:	6833      	ldr	r3, [r6, #0]
    3aec:	0022      	movs	r2, r4
    3aee:	439a      	bics	r2, r3
    3af0:	d107      	bne.n	3b02 <event_wait+0x32>
    3af2:	7eaa      	ldrb	r2, [r5, #26]
    3af4:	2301      	movs	r3, #1
    3af6:	4053      	eors	r3, r2
    3af8:	2007      	movs	r0, #7
    3afa:	76ab      	strb	r3, [r5, #26]
    3afc:	f7ff fd38 	bl	3570 <sark_cpu_state>
    3b00:	bd70      	pop	{r4, r5, r6, pc}
    3b02:	f7fc eb66 	blx	1d0 <cpu_wfi>
    3b06:	e7f0      	b.n	3aea <event_wait+0x1a>
    3b08:	2008      	movs	r0, #8
    3b0a:	f7ff fd31 	bl	3570 <sark_cpu_state>
    3b0e:	6833      	ldr	r3, [r6, #0]
    3b10:	421c      	tst	r4, r3
    3b12:	d0ee      	beq.n	3af2 <event_wait+0x22>
    3b14:	f7fc eb5c 	blx	1d0 <cpu_wfi>
    3b18:	e7f9      	b.n	3b0e <event_wait+0x3e>
    3b1a:	46c0      	nop			@ (mov r8, r8)
    3b1c:	00400934 	.word	0x00400934
    3b20:	00400970 	.word	0x00400970
    3b24:	e2000058 	.word	0xe2000058

00003b28 <event_pause>:
    3b28:	b570      	push	{r4, r5, r6, lr}
    3b2a:	4d09      	ldr	r5, [pc, #36]	@ (3b50 <event_pause+0x28>)
    3b2c:	1e04      	subs	r4, r0, #0
    3b2e:	d00b      	beq.n	3b48 <event_pause+0x20>
    3b30:	2301      	movs	r3, #1
    3b32:	200a      	movs	r0, #10
    3b34:	762b      	strb	r3, [r5, #24]
    3b36:	f7ff fd1b 	bl	3570 <sark_cpu_state>
    3b3a:	6b2b      	ldr	r3, [r5, #48]	@ 0x30
    3b3c:	2b00      	cmp	r3, #0
    3b3e:	d002      	beq.n	3b46 <event_pause+0x1e>
    3b40:	6b69      	ldr	r1, [r5, #52]	@ 0x34
    3b42:	0020      	movs	r0, r4
    3b44:	4798      	blx	r3
    3b46:	bd70      	pop	{r4, r5, r6, pc}
    3b48:	7628      	strb	r0, [r5, #24]
    3b4a:	2007      	movs	r0, #7
    3b4c:	e7f3      	b.n	3b36 <event_pause+0xe>
    3b4e:	46c0      	nop			@ (mov r8, r8)
    3b50:	00400970 	.word	0x00400970

00003b54 <event_stop>:
    3b54:	4b03      	ldr	r3, [pc, #12]	@ (3b64 <event_stop+0x10>)
    3b56:	2202      	movs	r2, #2
    3b58:	761a      	strb	r2, [r3, #24]
    3b5a:	4a03      	ldr	r2, [pc, #12]	@ (3b68 <event_stop+0x14>)
    3b5c:	6cd9      	ldr	r1, [r3, #76]	@ 0x4c
    3b5e:	6011      	str	r1, [r2, #0]
    3b60:	6398      	str	r0, [r3, #56]	@ 0x38
    3b62:	4770      	bx	lr
    3b64:	00400970 	.word	0x00400970
    3b68:	1f000014 	.word	0x1f000014

00003b6c <event_alloc>:
    3b6c:	b570      	push	{r4, r5, r6, lr}
    3b6e:	211c      	movs	r1, #28
    3b70:	0005      	movs	r5, r0
    3b72:	f000 f97b 	bl	3e6c <sark_alloc>
    3b76:	1e04      	subs	r4, r0, #0
    3b78:	d015      	beq.n	3ba6 <event_alloc+0x3a>
    3b7a:	221c      	movs	r2, #28
    3b7c:	0029      	movs	r1, r5
    3b7e:	f7ff fd09 	bl	3594 <sark_block_init>
    3b82:	0023      	movs	r3, r4
    3b84:	2200      	movs	r2, #0
    3b86:	0006      	movs	r6, r0
    3b88:	3d01      	subs	r5, #1
    3b8a:	d209      	bcs.n	3ba0 <event_alloc+0x34>
    3b8c:	f7fc eb14 	blx	1b8 <cpu_int_disable>
    3b90:	4b08      	ldr	r3, [pc, #32]	@ (3bb4 <event_alloc+0x48>)
    3b92:	681a      	ldr	r2, [r3, #0]
    3b94:	6032      	str	r2, [r6, #0]
    3b96:	601c      	str	r4, [r3, #0]
    3b98:	f7fc eb16 	blx	1c8 <cpu_int_restore>
    3b9c:	2001      	movs	r0, #1
    3b9e:	bd70      	pop	{r4, r5, r6, pc}
    3ba0:	761a      	strb	r2, [r3, #24]
    3ba2:	681b      	ldr	r3, [r3, #0]
    3ba4:	e7f0      	b.n	3b88 <event_alloc+0x1c>
    3ba6:	4a03      	ldr	r2, [pc, #12]	@ (3bb4 <event_alloc+0x48>)
    3ba8:	2308      	movs	r3, #8
    3baa:	6951      	ldr	r1, [r2, #20]
    3bac:	430b      	orrs	r3, r1
    3bae:	6153      	str	r3, [r2, #20]
    3bb0:	e7f5      	b.n	3b9e <event_alloc+0x32>
    3bb2:	46c0      	nop			@ (mov r8, r8)
    3bb4:	00400970 	.word	0x00400970

00003bb8 <timer_cancel_init>:
    3bb8:	4b03      	ldr	r3, [pc, #12]	@ (3bc8 <timer_cancel_init+0x10>)
    3bba:	2200      	movs	r2, #0
    3bbc:	605a      	str	r2, [r3, #4]
    3bbe:	615a      	str	r2, [r3, #20]
    3bc0:	611a      	str	r2, [r3, #16]
    3bc2:	3201      	adds	r2, #1
    3bc4:	761a      	strb	r2, [r3, #24]
    3bc6:	4770      	bx	lr
    3bc8:	00400a08 	.word	0x00400a08

00003bcc <sark_vic_init>:
    3bcc:	4b0b      	ldr	r3, [pc, #44]	@ (3bfc <sark_vic_init+0x30>)
    3bce:	2201      	movs	r2, #1
    3bd0:	4252      	negs	r2, r2
    3bd2:	b510      	push	{r4, lr}
    3bd4:	601a      	str	r2, [r3, #0]
    3bd6:	4b0a      	ldr	r3, [pc, #40]	@ (3c00 <sark_vic_init+0x34>)
    3bd8:	2200      	movs	r2, #0
    3bda:	601a      	str	r2, [r3, #0]
    3bdc:	4b09      	ldr	r3, [pc, #36]	@ (3c04 <sark_vic_init+0x38>)
    3bde:	4c0a      	ldr	r4, [pc, #40]	@ (3c08 <sark_vic_init+0x3c>)
    3be0:	601a      	str	r2, [r3, #0]
    3be2:	490a      	ldr	r1, [pc, #40]	@ (3c0c <sark_vic_init+0x40>)
    3be4:	4b0a      	ldr	r3, [pc, #40]	@ (3c10 <sark_vic_init+0x44>)
    3be6:	1e58      	subs	r0, r3, #1
    3be8:	601a      	str	r2, [r3, #0]
    3bea:	38ff      	subs	r0, #255	@ 0xff
    3bec:	3304      	adds	r3, #4
    3bee:	6004      	str	r4, [r0, #0]
    3bf0:	428b      	cmp	r3, r1
    3bf2:	d1f8      	bne.n	3be6 <sark_vic_init+0x1a>
    3bf4:	4a07      	ldr	r2, [pc, #28]	@ (3c14 <sark_vic_init+0x48>)
    3bf6:	4b08      	ldr	r3, [pc, #32]	@ (3c18 <sark_vic_init+0x4c>)
    3bf8:	6013      	str	r3, [r2, #0]
    3bfa:	bd10      	pop	{r4, pc}
    3bfc:	1f000014 	.word	0x1f000014
    3c00:	1f00000c 	.word	0x1f00000c
    3c04:	1f000030 	.word	0x1f000030
    3c08:	00000108 	.word	0x00000108
    3c0c:	1f000240 	.word	0x1f000240
    3c10:	1f000200 	.word	0x1f000200
    3c14:	1f000034 	.word	0x1f000034
    3c18:	00000320 	.word	0x00000320

00003c1c <sark_vic_set>:
    3c1c:	b510      	push	{r4, lr}
    3c1e:	2810      	cmp	r0, #16
    3c20:	d10b      	bne.n	3c3a <sark_vic_set+0x1e>
    3c22:	62c3      	str	r3, [r0, #44]	@ 0x2c
    3c24:	2301      	movs	r3, #1
    3c26:	480a      	ldr	r0, [pc, #40]	@ (3c50 <sark_vic_set+0x34>)
    3c28:	408b      	lsls	r3, r1
    3c2a:	6003      	str	r3, [r0, #0]
    3c2c:	2a00      	cmp	r2, #0
    3c2e:	d003      	beq.n	3c38 <sark_vic_set+0x1c>
    3c30:	4a08      	ldr	r2, [pc, #32]	@ (3c54 <sark_vic_set+0x38>)
    3c32:	2301      	movs	r3, #1
    3c34:	408b      	lsls	r3, r1
    3c36:	6013      	str	r3, [r2, #0]
    3c38:	bd10      	pop	{r4, pc}
    3c3a:	3040      	adds	r0, #64	@ 0x40
    3c3c:	24f8      	movs	r4, #248	@ 0xf8
    3c3e:	0080      	lsls	r0, r0, #2
    3c40:	0564      	lsls	r4, r4, #21
    3c42:	1904      	adds	r4, r0, r4
    3c44:	6023      	str	r3, [r4, #0]
    3c46:	4b04      	ldr	r3, [pc, #16]	@ (3c58 <sark_vic_set+0x3c>)
    3c48:	18c0      	adds	r0, r0, r3
    3c4a:	2320      	movs	r3, #32
    3c4c:	430b      	orrs	r3, r1
    3c4e:	e7ec      	b.n	3c2a <sark_vic_set+0xe>
    3c50:	1f00000c 	.word	0x1f00000c
    3c54:	1f000010 	.word	0x1f000010
    3c58:	1f000100 	.word	0x1f000100

00003c5c <v2p_mask>:
    3c5c:	2300      	movs	r3, #0
    3c5e:	0002      	movs	r2, r0
    3c60:	2101      	movs	r1, #1
    3c62:	0018      	movs	r0, r3
    3c64:	b530      	push	{r4, r5, lr}
    3c66:	000c      	movs	r4, r1
    3c68:	409c      	lsls	r4, r3
    3c6a:	4222      	tst	r2, r4
    3c6c:	d005      	beq.n	3c7a <v2p_mask+0x1e>
    3c6e:	4c05      	ldr	r4, [pc, #20]	@ (3c84 <v2p_mask+0x28>)
    3c70:	000d      	movs	r5, r1
    3c72:	191c      	adds	r4, r3, r4
    3c74:	7824      	ldrb	r4, [r4, #0]
    3c76:	40a5      	lsls	r5, r4
    3c78:	4328      	orrs	r0, r5
    3c7a:	3301      	adds	r3, #1
    3c7c:	2b12      	cmp	r3, #18
    3c7e:	d1f2      	bne.n	3c66 <v2p_mask+0xa>
    3c80:	bd30      	pop	{r4, r5, pc}
    3c82:	46c0      	nop			@ (mov r8, r8)
    3c84:	e5007fa8 	.word	0xe5007fa8

00003c88 <rtr_mc_clear>:
    3c88:	1841      	adds	r1, r0, r1
    3c8a:	2280      	movs	r2, #128	@ 0x80
    3c8c:	0003      	movs	r3, r0
    3c8e:	00d2      	lsls	r2, r2, #3
    3c90:	2000      	movs	r0, #0
    3c92:	b5f0      	push	{r4, r5, r6, r7, lr}
    3c94:	4291      	cmp	r1, r2
    3c96:	d812      	bhi.n	3cbe <rtr_mc_clear+0x36>
    3c98:	480f      	ldr	r0, [pc, #60]	@ (3cd8 <rtr_mc_clear+0x50>)
    3c9a:	009a      	lsls	r2, r3, #2
    3c9c:	1812      	adds	r2, r2, r0
    3c9e:	480f      	ldr	r0, [pc, #60]	@ (3cdc <rtr_mc_clear+0x54>)
    3ca0:	2580      	movs	r5, #128	@ 0x80
    3ca2:	6800      	ldr	r0, [r0, #0]
    3ca4:	011c      	lsls	r4, r3, #4
    3ca6:	01ed      	lsls	r5, r5, #7
    3ca8:	1900      	adds	r0, r0, r4
    3caa:	2780      	movs	r7, #128	@ 0x80
    3cac:	24ff      	movs	r4, #255	@ 0xff
    3cae:	46ac      	mov	ip, r5
    3cb0:	2501      	movs	r5, #1
    3cb2:	0624      	lsls	r4, r4, #24
    3cb4:	023f      	lsls	r7, r7, #8
    3cb6:	426d      	negs	r5, r5
    3cb8:	4299      	cmp	r1, r3
    3cba:	d801      	bhi.n	3cc0 <rtr_mc_clear+0x38>
    3cbc:	2001      	movs	r0, #1
    3cbe:	bdf0      	pop	{r4, r5, r6, r7, pc}
    3cc0:	2600      	movs	r6, #0
    3cc2:	6014      	str	r4, [r2, #0]
    3cc4:	6044      	str	r4, [r0, #4]
    3cc6:	51d6      	str	r6, [r2, r7]
    3cc8:	60c6      	str	r6, [r0, #12]
    3cca:	4666      	mov	r6, ip
    3ccc:	5195      	str	r5, [r2, r6]
    3cce:	3301      	adds	r3, #1
    3cd0:	6085      	str	r5, [r0, #8]
    3cd2:	3204      	adds	r2, #4
    3cd4:	3010      	adds	r0, #16
    3cd6:	e7ef      	b.n	3cb8 <rtr_mc_clear+0x30>
    3cd8:	e1004000 	.word	0xe1004000
    3cdc:	e5007fd4 	.word	0xe5007fd4

00003ce0 <rtr_mc_set>:
    3ce0:	b5f7      	push	{r0, r1, r2, r4, r5, r6, r7, lr}
    3ce2:	001d      	movs	r5, r3
    3ce4:	2380      	movs	r3, #128	@ 0x80
    3ce6:	0004      	movs	r4, r0
    3ce8:	000f      	movs	r7, r1
    3cea:	00db      	lsls	r3, r3, #3
    3cec:	2000      	movs	r0, #0
    3cee:	9201      	str	r2, [sp, #4]
    3cf0:	429c      	cmp	r4, r3
    3cf2:	d224      	bcs.n	3d3e <rtr_mc_set+0x5e>
    3cf4:	4a12      	ldr	r2, [pc, #72]	@ (3d40 <rtr_mc_set+0x60>)
    3cf6:	0123      	lsls	r3, r4, #4
    3cf8:	6816      	ldr	r6, [r2, #0]
    3cfa:	0e2a      	lsrs	r2, r5, #24
    3cfc:	18f6      	adds	r6, r6, r3
    3cfe:	4282      	cmp	r2, r0
    3d00:	d101      	bne.n	3d06 <rtr_mc_set+0x26>
    3d02:	235c      	movs	r3, #92	@ 0x5c
    3d04:	781a      	ldrb	r2, [r3, #0]
    3d06:	0228      	lsls	r0, r5, #8
    3d08:	0a03      	lsrs	r3, r0, #8
    3d0a:	6073      	str	r3, [r6, #4]
    3d0c:	4b0d      	ldr	r3, [pc, #52]	@ (3d44 <rtr_mc_set+0x64>)
    3d0e:	490e      	ldr	r1, [pc, #56]	@ (3d48 <rtr_mc_set+0x68>)
    3d10:	681b      	ldr	r3, [r3, #0]
    3d12:	0b80      	lsrs	r0, r0, #14
    3d14:	021b      	lsls	r3, r3, #8
    3d16:	185b      	adds	r3, r3, r1
    3d18:	189b      	adds	r3, r3, r2
    3d1a:	8073      	strh	r3, [r6, #2]
    3d1c:	f7ff ff9e 	bl	3c5c <v2p_mask>
    3d20:	233f      	movs	r3, #63	@ 0x3f
    3d22:	401d      	ands	r5, r3
    3d24:	4b09      	ldr	r3, [pc, #36]	@ (3d4c <rtr_mc_set+0x6c>)
    3d26:	00a4      	lsls	r4, r4, #2
    3d28:	9a01      	ldr	r2, [sp, #4]
    3d2a:	0180      	lsls	r0, r0, #6
    3d2c:	4305      	orrs	r5, r0
    3d2e:	50e5      	str	r5, [r4, r3]
    3d30:	4b07      	ldr	r3, [pc, #28]	@ (3d50 <rtr_mc_set+0x70>)
    3d32:	2001      	movs	r0, #1
    3d34:	50e7      	str	r7, [r4, r3]
    3d36:	4b07      	ldr	r3, [pc, #28]	@ (3d54 <rtr_mc_set+0x74>)
    3d38:	60b7      	str	r7, [r6, #8]
    3d3a:	50e2      	str	r2, [r4, r3]
    3d3c:	60f2      	str	r2, [r6, #12]
    3d3e:	bdfe      	pop	{r1, r2, r3, r4, r5, r6, r7, pc}
    3d40:	e5007fd4 	.word	0xe5007fd4
    3d44:	00400934 	.word	0x00400934
    3d48:	ffff8000 	.word	0xffff8000
    3d4c:	e1004000 	.word	0xe1004000
    3d50:	e1008000 	.word	0xe1008000
    3d54:	e100c000 	.word	0xe100c000

00003d58 <sark_fiq_han>:
    3d58:	e92d000c 	push	{r2, r3}
    3d5c:	e59f2018 	ldr	r2, [pc, #24]	@ 3d7c <sark_fiq_han+0x24>
    3d60:	e3a03202 	mov	r3, #536870912	@ 0x20000000
    3d64:	e5933014 	ldr	r3, [r3, #20]
    3d68:	e5923038 	ldr	r3, [r2, #56]	@ 0x38
    3d6c:	e2833001 	add	r3, r3, #1
    3d70:	e5823038 	str	r3, [r2, #56]	@ 0x38
    3d74:	e8bd000c 	pop	{r2, r3}
    3d78:	e25ef004 	subs	pc, lr, #4
    3d7c:	00400934 	.word	0x00400934

00003d80 <sark_xalloc>:
    3d80:	b5f0      	push	{r4, r5, r6, r7, lr}
    3d82:	0006      	movs	r6, r0
    3d84:	b085      	sub	sp, #20
    3d86:	0017      	movs	r7, r2
    3d88:	2900      	cmp	r1, #0
    3d8a:	d102      	bne.n	3d92 <sark_xalloc+0x12>
    3d8c:	2000      	movs	r0, #0
    3d8e:	b005      	add	sp, #20
    3d90:	bdf0      	pop	{r4, r5, r6, r7, pc}
    3d92:	2aff      	cmp	r2, #255	@ 0xff
    3d94:	d8fa      	bhi.n	3d8c <sark_xalloc+0xc>
    3d96:	0a1d      	lsrs	r5, r3, #8
    3d98:	079a      	lsls	r2, r3, #30
    3d9a:	d401      	bmi.n	3da0 <sark_xalloc+0x20>
    3d9c:	225c      	movs	r2, #92	@ 0x5c
    3d9e:	7815      	ldrb	r5, [r2, #0]
    3da0:	022d      	lsls	r5, r5, #8
    3da2:	19ed      	adds	r5, r5, r7
    3da4:	2f00      	cmp	r7, #0
    3da6:	d00f      	beq.n	3dc8 <sark_xalloc+0x48>
    3da8:	4a2e      	ldr	r2, [pc, #184]	@ (3e64 <sark_xalloc+0xe4>)
    3daa:	00a8      	lsls	r0, r5, #2
    3dac:	6812      	ldr	r2, [r2, #0]
    3dae:	5880      	ldr	r0, [r0, r2]
    3db0:	2800      	cmp	r0, #0
    3db2:	d009      	beq.n	3dc8 <sark_xalloc+0x48>
    3db4:	075b      	lsls	r3, r3, #29
    3db6:	d5e9      	bpl.n	3d8c <sark_xalloc+0xc>
    3db8:	0002      	movs	r2, r0
    3dba:	3a08      	subs	r2, #8
    3dbc:	6813      	ldr	r3, [r2, #0]
    3dbe:	1a9b      	subs	r3, r3, r2
    3dc0:	3b08      	subs	r3, #8
    3dc2:	4299      	cmp	r1, r3
    3dc4:	d0e3      	beq.n	3d8e <sark_xalloc+0xe>
    3dc6:	e7e1      	b.n	3d8c <sark_xalloc+0xc>
    3dc8:	2203      	movs	r2, #3
    3dca:	3103      	adds	r1, #3
    3dcc:	4391      	bics	r1, r2
    3dce:	3108      	adds	r1, #8
    3dd0:	3a02      	subs	r2, #2
    3dd2:	9103      	str	r1, [sp, #12]
    3dd4:	0019      	movs	r1, r3
    3dd6:	4011      	ands	r1, r2
    3dd8:	2000      	movs	r0, #0
    3dda:	9102      	str	r1, [sp, #8]
    3ddc:	4213      	tst	r3, r2
    3dde:	d002      	beq.n	3de6 <sark_xalloc+0x66>
    3de0:	3006      	adds	r0, #6
    3de2:	f7fc e9fa 	blx	1d8 <sark_lock_get>
    3de6:	6834      	ldr	r4, [r6, #0]
    3de8:	2300      	movs	r3, #0
    3dea:	9301      	str	r3, [sp, #4]
    3dec:	2c00      	cmp	r4, #0
    3dee:	d106      	bne.n	3dfe <sark_xalloc+0x7e>
    3df0:	9b02      	ldr	r3, [sp, #8]
    3df2:	2b00      	cmp	r3, #0
    3df4:	d0ca      	beq.n	3d8c <sark_xalloc+0xc>
    3df6:	2106      	movs	r1, #6
    3df8:	f7fc ea00 	blx	1fc <sark_lock_free>
    3dfc:	e7c6      	b.n	3d8c <sark_xalloc+0xc>
    3dfe:	9b03      	ldr	r3, [sp, #12]
    3e00:	6821      	ldr	r1, [r4, #0]
    3e02:	18e3      	adds	r3, r4, r3
    3e04:	429c      	cmp	r4, r3
    3e06:	d2f3      	bcs.n	3df0 <sark_xalloc+0x70>
    3e08:	6862      	ldr	r2, [r4, #4]
    3e0a:	4694      	mov	ip, r2
    3e0c:	4299      	cmp	r1, r3
    3e0e:	d325      	bcc.n	3e5c <sark_xalloc+0xdc>
    3e10:	001a      	movs	r2, r3
    3e12:	3208      	adds	r2, #8
    3e14:	4291      	cmp	r1, r2
    3e16:	d904      	bls.n	3e22 <sark_xalloc+0xa2>
    3e18:	4662      	mov	r2, ip
    3e1a:	6019      	str	r1, [r3, #0]
    3e1c:	6023      	str	r3, [r4, #0]
    3e1e:	605a      	str	r2, [r3, #4]
    3e20:	6063      	str	r3, [r4, #4]
    3e22:	9a01      	ldr	r2, [sp, #4]
    3e24:	6863      	ldr	r3, [r4, #4]
    3e26:	2a00      	cmp	r2, #0
    3e28:	d016      	beq.n	3e58 <sark_xalloc+0xd8>
    3e2a:	6053      	str	r3, [r2, #4]
    3e2c:	68f3      	ldr	r3, [r6, #12]
    3e2e:	9a03      	ldr	r2, [sp, #12]
    3e30:	1a9b      	subs	r3, r3, r2
    3e32:	60f3      	str	r3, [r6, #12]
    3e34:	9b02      	ldr	r3, [sp, #8]
    3e36:	2b00      	cmp	r3, #0
    3e38:	d002      	beq.n	3e40 <sark_xalloc+0xc0>
    3e3a:	2106      	movs	r1, #6
    3e3c:	f7fc e9de 	blx	1fc <sark_lock_free>
    3e40:	4b09      	ldr	r3, [pc, #36]	@ (3e68 <sark_xalloc+0xe8>)
    3e42:	0020      	movs	r0, r4
    3e44:	18eb      	adds	r3, r5, r3
    3e46:	3008      	adds	r0, #8
    3e48:	6063      	str	r3, [r4, #4]
    3e4a:	2f00      	cmp	r7, #0
    3e4c:	d09f      	beq.n	3d8e <sark_xalloc+0xe>
    3e4e:	4b05      	ldr	r3, [pc, #20]	@ (3e64 <sark_xalloc+0xe4>)
    3e50:	00ad      	lsls	r5, r5, #2
    3e52:	681b      	ldr	r3, [r3, #0]
    3e54:	50e8      	str	r0, [r5, r3]
    3e56:	e79a      	b.n	3d8e <sark_xalloc+0xe>
    3e58:	6033      	str	r3, [r6, #0]
    3e5a:	e7e7      	b.n	3e2c <sark_xalloc+0xac>
    3e5c:	9401      	str	r4, [sp, #4]
    3e5e:	0014      	movs	r4, r2
    3e60:	e7c4      	b.n	3dec <sark_xalloc+0x6c>
    3e62:	46c0      	nop			@ (mov r8, r8)
    3e64:	e5007fdc 	.word	0xe5007fdc
    3e68:	ffff0000 	.word	0xffff0000

00003e6c <sark_alloc>:
    3e6c:	b510      	push	{r4, lr}
    3e6e:	4c04      	ldr	r4, [pc, #16]	@ (3e80 <sark_alloc+0x14>)
    3e70:	2300      	movs	r3, #0
    3e72:	4341      	muls	r1, r0
    3e74:	001a      	movs	r2, r3
    3e76:	69a0      	ldr	r0, [r4, #24]
    3e78:	f7ff ff82 	bl	3d80 <sark_xalloc>
    3e7c:	bd10      	pop	{r4, pc}
    3e7e:	46c0      	nop			@ (mov r8, r8)
    3e80:	00400934 	.word	0x00400934

00003e84 <sark_xfree>:
    3e84:	b5f7      	push	{r0, r1, r2, r4, r5, r6, r7, lr}
    3e86:	2301      	movs	r3, #1
    3e88:	0016      	movs	r6, r2
    3e8a:	401e      	ands	r6, r3
    3e8c:	0005      	movs	r5, r0
    3e8e:	000c      	movs	r4, r1
    3e90:	2000      	movs	r0, #0
    3e92:	9601      	str	r6, [sp, #4]
    3e94:	421a      	tst	r2, r3
    3e96:	d002      	beq.n	3e9e <sark_xfree+0x1a>
    3e98:	3006      	adds	r0, #6
    3e9a:	f7fc e99e 	blx	1d8 <sark_lock_get>
    3e9e:	0021      	movs	r1, r4
    3ea0:	3908      	subs	r1, #8
    3ea2:	684a      	ldr	r2, [r1, #4]
    3ea4:	682b      	ldr	r3, [r5, #0]
    3ea6:	0617      	lsls	r7, r2, #24
    3ea8:	0e3f      	lsrs	r7, r7, #24
    3eaa:	d007      	beq.n	3ebc <sark_xfree+0x38>
    3eac:	4f1d      	ldr	r7, [pc, #116]	@ (3f24 <sark_xfree+0xa0>)
    3eae:	0412      	lsls	r2, r2, #16
    3eb0:	0c12      	lsrs	r2, r2, #16
    3eb2:	0092      	lsls	r2, r2, #2
    3eb4:	683f      	ldr	r7, [r7, #0]
    3eb6:	0016      	movs	r6, r2
    3eb8:	2200      	movs	r2, #0
    3eba:	51f2      	str	r2, [r6, r7]
    3ebc:	3c08      	subs	r4, #8
    3ebe:	6827      	ldr	r7, [r4, #0]
    3ec0:	1a7a      	subs	r2, r7, r1
    3ec2:	4694      	mov	ip, r2
    3ec4:	68ea      	ldr	r2, [r5, #12]
    3ec6:	4462      	add	r2, ip
    3ec8:	60ea      	str	r2, [r5, #12]
    3eca:	2200      	movs	r2, #0
    3ecc:	2b00      	cmp	r3, #0
    3ece:	d10d      	bne.n	3eec <sark_xfree+0x68>
    3ed0:	6063      	str	r3, [r4, #4]
    3ed2:	2a00      	cmp	r2, #0
    3ed4:	d00f      	beq.n	3ef6 <sark_xfree+0x72>
    3ed6:	6051      	str	r1, [r2, #4]
    3ed8:	2b00      	cmp	r3, #0
    3eda:	d11f      	bne.n	3f1c <sark_xfree+0x98>
    3edc:	6813      	ldr	r3, [r2, #0]
    3ede:	428b      	cmp	r3, r1
    3ee0:	d10c      	bne.n	3efc <sark_xfree+0x78>
    3ee2:	6823      	ldr	r3, [r4, #0]
    3ee4:	6013      	str	r3, [r2, #0]
    3ee6:	6863      	ldr	r3, [r4, #4]
    3ee8:	6053      	str	r3, [r2, #4]
    3eea:	e007      	b.n	3efc <sark_xfree+0x78>
    3eec:	428b      	cmp	r3, r1
    3eee:	d8ef      	bhi.n	3ed0 <sark_xfree+0x4c>
    3ef0:	001a      	movs	r2, r3
    3ef2:	685b      	ldr	r3, [r3, #4]
    3ef4:	e7ea      	b.n	3ecc <sark_xfree+0x48>
    3ef6:	6029      	str	r1, [r5, #0]
    3ef8:	2b00      	cmp	r3, #0
    3efa:	d106      	bne.n	3f0a <sark_xfree+0x86>
    3efc:	9b01      	ldr	r3, [sp, #4]
    3efe:	2b00      	cmp	r3, #0
    3f00:	d002      	beq.n	3f08 <sark_xfree+0x84>
    3f02:	2106      	movs	r1, #6
    3f04:	f7fc e97a 	blx	1fc <sark_lock_free>
    3f08:	bdf7      	pop	{r0, r1, r2, r4, r5, r6, r7, pc}
    3f0a:	429f      	cmp	r7, r3
    3f0c:	d1f6      	bne.n	3efc <sark_xfree+0x78>
    3f0e:	681d      	ldr	r5, [r3, #0]
    3f10:	685b      	ldr	r3, [r3, #4]
    3f12:	6025      	str	r5, [r4, #0]
    3f14:	6063      	str	r3, [r4, #4]
    3f16:	2a00      	cmp	r2, #0
    3f18:	d1e0      	bne.n	3edc <sark_xfree+0x58>
    3f1a:	e7ef      	b.n	3efc <sark_xfree+0x78>
    3f1c:	429f      	cmp	r7, r3
    3f1e:	d1dd      	bne.n	3edc <sark_xfree+0x58>
    3f20:	e7f5      	b.n	3f0e <sark_xfree+0x8a>
    3f22:	46c0      	nop			@ (mov r8, r8)
    3f24:	e5007fdc 	.word	0xe5007fdc

00003f28 <sark_free>:
    3f28:	4b03      	ldr	r3, [pc, #12]	@ (3f38 <sark_free+0x10>)
    3f2a:	0001      	movs	r1, r0
    3f2c:	b510      	push	{r4, lr}
    3f2e:	6998      	ldr	r0, [r3, #24]
    3f30:	2200      	movs	r2, #0
    3f32:	f7ff ffa7 	bl	3e84 <sark_xfree>
    3f36:	bd10      	pop	{r4, pc}
    3f38:	00400934 	.word	0x00400934

00003f3c <sark_heap_init>:
    3f3c:	0003      	movs	r3, r0
    3f3e:	3908      	subs	r1, #8
    3f40:	3310      	adds	r3, #16
    3f42:	6043      	str	r3, [r0, #4]
    3f44:	6003      	str	r3, [r0, #0]
    3f46:	1acb      	subs	r3, r1, r3
    3f48:	3b08      	subs	r3, #8
    3f4a:	60c3      	str	r3, [r0, #12]
    3f4c:	2300      	movs	r3, #0
    3f4e:	6101      	str	r1, [r0, #16]
    3f50:	6081      	str	r1, [r0, #8]
    3f52:	600b      	str	r3, [r1, #0]
    3f54:	6143      	str	r3, [r0, #20]
    3f56:	604b      	str	r3, [r1, #4]
    3f58:	4770      	bx	lr
	...

00003f5c <rtr_alloc_id>:
    3f5c:	b5f7      	push	{r0, r1, r2, r4, r5, r6, r7, lr}
    3f5e:	1e04      	subs	r4, r0, #0
    3f60:	9101      	str	r1, [sp, #4]
    3f62:	d02d      	beq.n	3fc0 <rtr_alloc_id+0x64>
    3f64:	4b19      	ldr	r3, [pc, #100]	@ (3fcc <rtr_alloc_id+0x70>)
    3f66:	2007      	movs	r0, #7
    3f68:	681e      	ldr	r6, [r3, #0]
    3f6a:	f7fc e936 	blx	1d8 <sark_lock_get>
    3f6e:	4b18      	ldr	r3, [pc, #96]	@ (3fd0 <rtr_alloc_id+0x74>)
    3f70:	2200      	movs	r2, #0
    3f72:	9000      	str	r0, [sp, #0]
    3f74:	881d      	ldrh	r5, [r3, #0]
    3f76:	2d00      	cmp	r5, #0
    3f78:	d01d      	beq.n	3fb6 <rtr_alloc_id+0x5a>
    3f7a:	012b      	lsls	r3, r5, #4
    3f7c:	5af0      	ldrh	r0, [r6, r3]
    3f7e:	18f1      	adds	r1, r6, r3
    3f80:	1963      	adds	r3, r4, r5
    3f82:	884f      	ldrh	r7, [r1, #2]
    3f84:	4298      	cmp	r0, r3
    3f86:	d202      	bcs.n	3f8e <rtr_alloc_id+0x32>
    3f88:	002a      	movs	r2, r5
    3f8a:	003d      	movs	r5, r7
    3f8c:	e7f3      	b.n	3f76 <rtr_alloc_id+0x1a>
    3f8e:	4298      	cmp	r0, r3
    3f90:	d907      	bls.n	3fa2 <rtr_alloc_id+0x46>
    3f92:	011c      	lsls	r4, r3, #4
    3f94:	041b      	lsls	r3, r3, #16
    3f96:	1934      	adds	r4, r6, r4
    3f98:	0c1b      	lsrs	r3, r3, #16
    3f9a:	8020      	strh	r0, [r4, #0]
    3f9c:	800b      	strh	r3, [r1, #0]
    3f9e:	8067      	strh	r7, [r4, #2]
    3fa0:	804b      	strh	r3, [r1, #2]
    3fa2:	884b      	ldrh	r3, [r1, #2]
    3fa4:	2a00      	cmp	r2, #0
    3fa6:	d00d      	beq.n	3fc4 <rtr_alloc_id+0x68>
    3fa8:	0112      	lsls	r2, r2, #4
    3faa:	18b2      	adds	r2, r6, r2
    3fac:	8053      	strh	r3, [r2, #2]
    3fae:	4b09      	ldr	r3, [pc, #36]	@ (3fd4 <rtr_alloc_id+0x78>)
    3fb0:	9a01      	ldr	r2, [sp, #4]
    3fb2:	4313      	orrs	r3, r2
    3fb4:	804b      	strh	r3, [r1, #2]
    3fb6:	9800      	ldr	r0, [sp, #0]
    3fb8:	2107      	movs	r1, #7
    3fba:	f7fc e920 	blx	1fc <sark_lock_free>
    3fbe:	002c      	movs	r4, r5
    3fc0:	0020      	movs	r0, r4
    3fc2:	bdfe      	pop	{r1, r2, r3, r4, r5, r6, r7, pc}
    3fc4:	4a02      	ldr	r2, [pc, #8]	@ (3fd0 <rtr_alloc_id+0x74>)
    3fc6:	8013      	strh	r3, [r2, #0]
    3fc8:	e7f1      	b.n	3fae <rtr_alloc_id+0x52>
    3fca:	46c0      	nop			@ (mov r8, r8)
    3fcc:	e5007fd4 	.word	0xe5007fd4
    3fd0:	e5007fe0 	.word	0xe5007fe0
    3fd4:	ffff8000 	.word	0xffff8000

00003fd8 <rtr_alloc>:
    3fd8:	235c      	movs	r3, #92	@ 0x5c
    3fda:	b510      	push	{r4, lr}
    3fdc:	7819      	ldrb	r1, [r3, #0]
    3fde:	f7ff ffbd 	bl	3f5c <rtr_alloc_id>
    3fe2:	bd10      	pop	{r4, pc}

00003fe4 <rtr_free>:
    3fe4:	4b25      	ldr	r3, [pc, #148]	@ (407c <rtr_free+0x98>)
    3fe6:	b5f7      	push	{r0, r1, r2, r4, r5, r6, r7, lr}
    3fe8:	1e42      	subs	r2, r0, #1
    3fea:	0006      	movs	r6, r0
    3fec:	9101      	str	r1, [sp, #4]
    3fee:	429a      	cmp	r2, r3
    3ff0:	d843      	bhi.n	407a <rtr_free+0x96>
    3ff2:	4b23      	ldr	r3, [pc, #140]	@ (4080 <rtr_free+0x9c>)
    3ff4:	2007      	movs	r0, #7
    3ff6:	681f      	ldr	r7, [r3, #0]
    3ff8:	f7fc e8ee 	blx	1d8 <sark_lock_get>
    3ffc:	4b21      	ldr	r3, [pc, #132]	@ (4084 <rtr_free+0xa0>)
    3ffe:	0135      	lsls	r5, r6, #4
    4000:	197d      	adds	r5, r7, r5
    4002:	9000      	str	r0, [sp, #0]
    4004:	881c      	ldrh	r4, [r3, #0]
    4006:	9b01      	ldr	r3, [sp, #4]
    4008:	2b00      	cmp	r3, #0
    400a:	d004      	beq.n	4016 <rtr_free+0x32>
    400c:	8829      	ldrh	r1, [r5, #0]
    400e:	0030      	movs	r0, r6
    4010:	1b89      	subs	r1, r1, r6
    4012:	f7ff fe39 	bl	3c88 <rtr_mc_clear>
    4016:	2300      	movs	r3, #0
    4018:	2c00      	cmp	r4, #0
    401a:	d113      	bne.n	4044 <rtr_free+0x60>
    401c:	0432      	lsls	r2, r6, #16
    401e:	0c12      	lsrs	r2, r2, #16
    4020:	806c      	strh	r4, [r5, #2]
    4022:	2b00      	cmp	r3, #0
    4024:	d021      	beq.n	406a <rtr_free+0x86>
    4026:	0119      	lsls	r1, r3, #4
    4028:	1879      	adds	r1, r7, r1
    402a:	804a      	strh	r2, [r1, #2]
    402c:	2c00      	cmp	r4, #0
    402e:	d110      	bne.n	4052 <rtr_free+0x6e>
    4030:	011b      	lsls	r3, r3, #4
    4032:	18fa      	adds	r2, r7, r3
    4034:	5afb      	ldrh	r3, [r7, r3]
    4036:	429e      	cmp	r6, r3
    4038:	d11b      	bne.n	4072 <rtr_free+0x8e>
    403a:	882b      	ldrh	r3, [r5, #0]
    403c:	8013      	strh	r3, [r2, #0]
    403e:	886b      	ldrh	r3, [r5, #2]
    4040:	8053      	strh	r3, [r2, #2]
    4042:	e016      	b.n	4072 <rtr_free+0x8e>
    4044:	42a6      	cmp	r6, r4
    4046:	d3e9      	bcc.n	401c <rtr_free+0x38>
    4048:	0122      	lsls	r2, r4, #4
    404a:	18ba      	adds	r2, r7, r2
    404c:	0023      	movs	r3, r4
    404e:	8854      	ldrh	r4, [r2, #2]
    4050:	e7e2      	b.n	4018 <rtr_free+0x34>
    4052:	882a      	ldrh	r2, [r5, #0]
    4054:	4294      	cmp	r4, r2
    4056:	d105      	bne.n	4064 <rtr_free+0x80>
    4058:	0124      	lsls	r4, r4, #4
    405a:	5b39      	ldrh	r1, [r7, r4]
    405c:	193a      	adds	r2, r7, r4
    405e:	8029      	strh	r1, [r5, #0]
    4060:	8852      	ldrh	r2, [r2, #2]
    4062:	806a      	strh	r2, [r5, #2]
    4064:	2b00      	cmp	r3, #0
    4066:	d004      	beq.n	4072 <rtr_free+0x8e>
    4068:	e7e2      	b.n	4030 <rtr_free+0x4c>
    406a:	4906      	ldr	r1, [pc, #24]	@ (4084 <rtr_free+0xa0>)
    406c:	800a      	strh	r2, [r1, #0]
    406e:	2c00      	cmp	r4, #0
    4070:	d1ef      	bne.n	4052 <rtr_free+0x6e>
    4072:	9800      	ldr	r0, [sp, #0]
    4074:	2107      	movs	r1, #7
    4076:	f7fc e8c2 	blx	1fc <sark_lock_free>
    407a:	bdf7      	pop	{r0, r1, r2, r4, r5, r6, r7, pc}
    407c:	000003fe 	.word	0x000003fe
    4080:	e5007fd4 	.word	0xe5007fd4
    4084:	e5007fe0 	.word	0xe5007fe0

00004088 <io_buf_init>:
    4088:	b510      	push	{r4, lr}
    408a:	4c0c      	ldr	r4, [pc, #48]	@ (40bc <io_buf_init+0x34>)
    408c:	480c      	ldr	r0, [pc, #48]	@ (40c0 <io_buf_init+0x38>)
    408e:	6d21      	ldr	r1, [r4, #80]	@ 0x50
    4090:	6800      	ldr	r0, [r0, #0]
    4092:	3110      	adds	r1, #16
    4094:	2301      	movs	r3, #1
    4096:	2200      	movs	r2, #0
    4098:	f7ff fe72 	bl	3d80 <sark_xalloc>
    409c:	2800      	cmp	r0, #0
    409e:	d102      	bne.n	40a6 <io_buf_init+0x1e>
    40a0:	300e      	adds	r0, #14
    40a2:	f7fc e844 	blx	12c <rt_error>
    40a6:	69e3      	ldr	r3, [r4, #28]
    40a8:	4a06      	ldr	r2, [pc, #24]	@ (40c4 <io_buf_init+0x3c>)
    40aa:	6043      	str	r3, [r0, #4]
    40ac:	8b23      	ldrh	r3, [r4, #24]
    40ae:	6083      	str	r3, [r0, #8]
    40b0:	2300      	movs	r3, #0
    40b2:	6003      	str	r3, [r0, #0]
    40b4:	6013      	str	r3, [r2, #0]
    40b6:	60c3      	str	r3, [r0, #12]
    40b8:	bd10      	pop	{r4, pc}
    40ba:	46c0      	nop			@ (mov r8, r8)
    40bc:	e5007f00 	.word	0xe5007f00
    40c0:	e5007fd0 	.word	0xe5007fd0
    40c4:	00400a2c 	.word	0x00400a2c

000040c8 <io_put_char>:
    40c8:	b570      	push	{r4, r5, r6, lr}
    40ca:	000c      	movs	r4, r1
    40cc:	2803      	cmp	r0, #3
    40ce:	d907      	bls.n	40e0 <io_put_char+0x18>
    40d0:	4931      	ldr	r1, [pc, #196]	@ (4198 <io_put_char+0xd0>)
    40d2:	680a      	ldr	r2, [r1, #0]
    40d4:	1c53      	adds	r3, r2, #1
    40d6:	5484      	strb	r4, [r0, r2]
    40d8:	2200      	movs	r2, #0
    40da:	600b      	str	r3, [r1, #0]
    40dc:	54c2      	strb	r2, [r0, r3]
    40de:	bd70      	pop	{r4, r5, r6, pc}
    40e0:	2800      	cmp	r0, #0
    40e2:	d134      	bne.n	414e <io_put_char+0x86>
    40e4:	4d2d      	ldr	r5, [pc, #180]	@ (419c <io_put_char+0xd4>)
    40e6:	682b      	ldr	r3, [r5, #0]
    40e8:	2b00      	cmp	r3, #0
    40ea:	d11a      	bne.n	4122 <io_put_char+0x5a>
    40ec:	2192      	movs	r1, #146	@ 0x92
    40ee:	0049      	lsls	r1, r1, #1
    40f0:	3001      	adds	r0, #1
    40f2:	f7ff febb 	bl	3e6c <sark_alloc>
    40f6:	2800      	cmp	r0, #0
    40f8:	d102      	bne.n	4100 <io_put_char+0x38>
    40fa:	300e      	adds	r0, #14
    40fc:	f7fc e816 	blx	12c <rt_error>
    4100:	2307      	movs	r3, #7
    4102:	8103      	strh	r3, [r0, #8]
    4104:	33f8      	adds	r3, #248	@ 0xf8
    4106:	7283      	strb	r3, [r0, #10]
    4108:	4b25      	ldr	r3, [pc, #148]	@ (41a0 <io_put_char+0xd8>)
    410a:	889a      	ldrh	r2, [r3, #4]
    410c:	8182      	strh	r2, [r0, #12]
    410e:	4a25      	ldr	r2, [pc, #148]	@ (41a4 <io_put_char+0xdc>)
    4110:	6812      	ldr	r2, [r2, #0]
    4112:	72c2      	strb	r2, [r0, #11]
    4114:	881b      	ldrh	r3, [r3, #0]
    4116:	81c3      	strh	r3, [r0, #14]
    4118:	2340      	movs	r3, #64	@ 0x40
    411a:	8203      	strh	r3, [r0, #16]
    411c:	3b34      	subs	r3, #52	@ 0x34
    411e:	8083      	strh	r3, [r0, #4]
    4120:	6028      	str	r0, [r5, #0]
    4122:	6828      	ldr	r0, [r5, #0]
    4124:	8883      	ldrh	r3, [r0, #4]
    4126:	1c5a      	adds	r2, r3, #1
    4128:	18c3      	adds	r3, r0, r3
    412a:	8082      	strh	r2, [r0, #4]
    412c:	721c      	strb	r4, [r3, #8]
    412e:	2c0a      	cmp	r4, #10
    4130:	d006      	beq.n	4140 <io_put_char+0x78>
    4132:	2c00      	cmp	r4, #0
    4134:	d004      	beq.n	4140 <io_put_char+0x78>
    4136:	8882      	ldrh	r2, [r0, #4]
    4138:	2386      	movs	r3, #134	@ 0x86
    413a:	005b      	lsls	r3, r3, #1
    413c:	429a      	cmp	r2, r3
    413e:	d1ce      	bne.n	40de <io_put_char+0x16>
    4140:	210a      	movs	r1, #10
    4142:	f7ff fb31 	bl	37a8 <sark_msg_send>
    4146:	682b      	ldr	r3, [r5, #0]
    4148:	220c      	movs	r2, #12
    414a:	809a      	strh	r2, [r3, #4]
    414c:	e7c7      	b.n	40de <io_put_char+0x16>
    414e:	2802      	cmp	r0, #2
    4150:	d1c5      	bne.n	40de <io_put_char+0x16>
    4152:	4d15      	ldr	r5, [pc, #84]	@ (41a8 <io_put_char+0xe0>)
    4154:	682b      	ldr	r3, [r5, #0]
    4156:	2b00      	cmp	r3, #0
    4158:	d105      	bne.n	4166 <io_put_char+0x9e>
    415a:	4b12      	ldr	r3, [pc, #72]	@ (41a4 <io_put_char+0xdc>)
    415c:	69de      	ldr	r6, [r3, #28]
    415e:	f7ff ff93 	bl	4088 <io_buf_init>
    4162:	65b0      	str	r0, [r6, #88]	@ 0x58
    4164:	6028      	str	r0, [r5, #0]
    4166:	4911      	ldr	r1, [pc, #68]	@ (41ac <io_put_char+0xe4>)
    4168:	682e      	ldr	r6, [r5, #0]
    416a:	680a      	ldr	r2, [r1, #0]
    416c:	1c53      	adds	r3, r2, #1
    416e:	18b2      	adds	r2, r6, r2
    4170:	7414      	strb	r4, [r2, #16]
    4172:	4a0b      	ldr	r2, [pc, #44]	@ (41a0 <io_put_char+0xd8>)
    4174:	600b      	str	r3, [r1, #0]
    4176:	6d12      	ldr	r2, [r2, #80]	@ 0x50
    4178:	4293      	cmp	r3, r2
    417a:	d107      	bne.n	418c <io_put_char+0xc4>
    417c:	60f3      	str	r3, [r6, #12]
    417e:	f7ff ff83 	bl	4088 <io_buf_init>
    4182:	682b      	ldr	r3, [r5, #0]
    4184:	6030      	str	r0, [r6, #0]
    4186:	681b      	ldr	r3, [r3, #0]
    4188:	602b      	str	r3, [r5, #0]
    418a:	e7a8      	b.n	40de <io_put_char+0x16>
    418c:	2c0a      	cmp	r4, #10
    418e:	d001      	beq.n	4194 <io_put_char+0xcc>
    4190:	2c00      	cmp	r4, #0
    4192:	d1a4      	bne.n	40de <io_put_char+0x16>
    4194:	60f3      	str	r3, [r6, #12]
    4196:	e7a2      	b.n	40de <io_put_char+0x16>
    4198:	00400a30 	.word	0x00400a30
    419c:	00400a28 	.word	0x00400a28
    41a0:	e5007f00 	.word	0xe5007f00
    41a4:	00400934 	.word	0x00400934
    41a8:	00400a24 	.word	0x00400a24
    41ac:	00400a2c 	.word	0x00400a2c

000041b0 <io_put_fixed>:
    41b0:	b5f0      	push	{r4, r5, r6, r7, lr}
    41b2:	b08d      	sub	sp, #52	@ 0x34
    41b4:	0015      	movs	r5, r2
    41b6:	001f      	movs	r7, r3
    41b8:	9000      	str	r0, [sp, #0]
    41ba:	9101      	str	r1, [sp, #4]
    41bc:	2b0c      	cmp	r3, #12
    41be:	d900      	bls.n	41c2 <io_put_fixed+0x12>
    41c0:	270c      	movs	r7, #12
    41c2:	aa05      	add	r2, sp, #20
    41c4:	19d0      	adds	r0, r2, r7
    41c6:	260a      	movs	r6, #10
    41c8:	9a01      	ldr	r2, [sp, #4]
    41ca:	2400      	movs	r4, #0
    41cc:	46b4      	mov	ip, r6
    41ce:	0412      	lsls	r2, r2, #16
    41d0:	0c12      	lsrs	r2, r2, #16
    41d2:	0016      	movs	r6, r2
    41d4:	4662      	mov	r2, ip
    41d6:	4372      	muls	r2, r6
    41d8:	3801      	subs	r0, #1
    41da:	0c16      	lsrs	r6, r2, #16
    41dc:	42a7      	cmp	r7, r4
    41de:	d108      	bne.n	41f2 <io_put_fixed+0x42>
    41e0:	0020      	movs	r0, r4
    41e2:	af05      	add	r7, sp, #20
    41e4:	2200      	movs	r2, #0
    41e6:	2e04      	cmp	r6, #4
    41e8:	d913      	bls.n	4212 <io_put_fixed+0x62>
    41ea:	42a2      	cmp	r2, r4
    41ec:	d105      	bne.n	41fa <io_put_fixed+0x4a>
    41ee:	2201      	movs	r2, #1
    41f0:	e010      	b.n	4214 <io_put_fixed+0x64>
    41f2:	3630      	adds	r6, #48	@ 0x30
    41f4:	3401      	adds	r4, #1
    41f6:	7006      	strb	r6, [r0, #0]
    41f8:	e7e9      	b.n	41ce <io_put_fixed+0x1e>
    41fa:	7839      	ldrb	r1, [r7, #0]
    41fc:	2938      	cmp	r1, #56	@ 0x38
    41fe:	d904      	bls.n	420a <io_put_fixed+0x5a>
    4200:	2130      	movs	r1, #48	@ 0x30
    4202:	7039      	strb	r1, [r7, #0]
    4204:	3201      	adds	r2, #1
    4206:	3701      	adds	r7, #1
    4208:	e7ed      	b.n	41e6 <io_put_fixed+0x36>
    420a:	000e      	movs	r6, r1
    420c:	3601      	adds	r6, #1
    420e:	af05      	add	r7, sp, #20
    4210:	54be      	strb	r6, [r7, r2]
    4212:	2200      	movs	r2, #0
    4214:	ae05      	add	r6, sp, #20
    4216:	2b00      	cmp	r3, #0
    4218:	d002      	beq.n	4220 <io_put_fixed+0x70>
    421a:	232e      	movs	r3, #46	@ 0x2e
    421c:	1c60      	adds	r0, r4, #1
    421e:	5533      	strb	r3, [r6, r4]
    4220:	9b01      	ldr	r3, [sp, #4]
    4222:	0004      	movs	r4, r0
    4224:	0c19      	lsrs	r1, r3, #16
    4226:	1851      	adds	r1, r2, r1
    4228:	a803      	add	r0, sp, #12
    422a:	f7fc e84a 	blx	2c0 <sark_div10>
    422e:	9b04      	ldr	r3, [sp, #16]
    4230:	9903      	ldr	r1, [sp, #12]
    4232:	0022      	movs	r2, r4
    4234:	3330      	adds	r3, #48	@ 0x30
    4236:	3401      	adds	r4, #1
    4238:	54b3      	strb	r3, [r6, r2]
    423a:	2900      	cmp	r1, #0
    423c:	d1f4      	bne.n	4228 <io_put_fixed+0x78>
    423e:	9b13      	ldr	r3, [sp, #76]	@ 0x4c
    4240:	2b00      	cmp	r3, #0
    4242:	d002      	beq.n	424a <io_put_fixed+0x9a>
    4244:	232d      	movs	r3, #45	@ 0x2d
    4246:	5533      	strb	r3, [r6, r4]
    4248:	1c94      	adds	r4, r2, #2
    424a:	1c63      	adds	r3, r4, #1
    424c:	429d      	cmp	r5, r3
    424e:	d808      	bhi.n	4262 <io_put_fixed+0xb2>
    4250:	3c01      	subs	r4, #1
    4252:	5d31      	ldrb	r1, [r6, r4]
    4254:	9800      	ldr	r0, [sp, #0]
    4256:	f7ff ff37 	bl	40c8 <io_put_char>
    425a:	2c00      	cmp	r4, #0
    425c:	d1f8      	bne.n	4250 <io_put_fixed+0xa0>
    425e:	b00d      	add	sp, #52	@ 0x34
    4260:	bdf0      	pop	{r4, r5, r6, r7, pc}
    4262:	9912      	ldr	r1, [sp, #72]	@ 0x48
    4264:	9800      	ldr	r0, [sp, #0]
    4266:	f7ff ff2f 	bl	40c8 <io_put_char>
    426a:	3d01      	subs	r5, #1
    426c:	e7ed      	b.n	424a <io_put_fixed+0x9a>
	...

00004270 <io_printf>:
    4270:	b40e      	push	{r1, r2, r3}
    4272:	b5f0      	push	{r4, r5, r6, r7, lr}
    4274:	0007      	movs	r7, r0
    4276:	b08c      	sub	sp, #48	@ 0x30
    4278:	2803      	cmp	r0, #3
    427a:	d04e      	beq.n	431a <io_printf+0xaa>
    427c:	d903      	bls.n	4286 <io_printf+0x16>
    427e:	4a9d      	ldr	r2, [pc, #628]	@ (44f4 <io_printf+0x284>)
    4280:	2300      	movs	r3, #0
    4282:	7003      	strb	r3, [r0, #0]
    4284:	6013      	str	r3, [r2, #0]
    4286:	ab12      	add	r3, sp, #72	@ 0x48
    4288:	9305      	str	r3, [sp, #20]
    428a:	9b11      	ldr	r3, [sp, #68]	@ 0x44
    428c:	7819      	ldrb	r1, [r3, #0]
    428e:	2900      	cmp	r1, #0
    4290:	d043      	beq.n	431a <io_printf+0xaa>
    4292:	2925      	cmp	r1, #37	@ 0x25
    4294:	d005      	beq.n	42a2 <io_printf+0x32>
    4296:	3301      	adds	r3, #1
    4298:	9311      	str	r3, [sp, #68]	@ 0x44
    429a:	0038      	movs	r0, r7
    429c:	f7ff ff14 	bl	40c8 <io_put_char>
    42a0:	e7f3      	b.n	428a <io_printf+0x1a>
    42a2:	9b11      	ldr	r3, [sp, #68]	@ 0x44
    42a4:	7859      	ldrb	r1, [r3, #1]
    42a6:	1c9a      	adds	r2, r3, #2
    42a8:	2900      	cmp	r1, #0
    42aa:	d036      	beq.n	431a <io_printf+0xaa>
    42ac:	9103      	str	r1, [sp, #12]
    42ae:	2930      	cmp	r1, #48	@ 0x30
    42b0:	d001      	beq.n	42b6 <io_printf+0x46>
    42b2:	2320      	movs	r3, #32
    42b4:	9303      	str	r3, [sp, #12]
    42b6:	2400      	movs	r4, #0
    42b8:	000b      	movs	r3, r1
    42ba:	3b30      	subs	r3, #48	@ 0x30
    42bc:	0010      	movs	r0, r2
    42be:	3201      	adds	r2, #1
    42c0:	2b09      	cmp	r3, #9
    42c2:	d922      	bls.n	430a <io_printf+0x9a>
    42c4:	2306      	movs	r3, #6
    42c6:	9011      	str	r0, [sp, #68]	@ 0x44
    42c8:	292e      	cmp	r1, #46	@ 0x2e
    42ca:	d109      	bne.n	42e0 <io_printf+0x70>
    42cc:	7801      	ldrb	r1, [r0, #0]
    42ce:	2300      	movs	r3, #0
    42d0:	200a      	movs	r0, #10
    42d2:	000d      	movs	r5, r1
    42d4:	3d30      	subs	r5, #48	@ 0x30
    42d6:	9211      	str	r2, [sp, #68]	@ 0x44
    42d8:	2d09      	cmp	r5, #9
    42da:	d923      	bls.n	4324 <io_printf+0xb4>
    42dc:	2900      	cmp	r1, #0
    42de:	d01c      	beq.n	431a <io_printf+0xaa>
    42e0:	297a      	cmp	r1, #122	@ 0x7a
    42e2:	d8da      	bhi.n	429a <io_printf+0x2a>
    42e4:	2962      	cmp	r1, #98	@ 0x62
    42e6:	d823      	bhi.n	4330 <io_printf+0xc0>
    42e8:	294b      	cmp	r1, #75	@ 0x4b
    42ea:	d001      	beq.n	42f0 <io_printf+0x80>
    42ec:	2952      	cmp	r1, #82	@ 0x52
    42ee:	d1d4      	bne.n	429a <io_printf+0x2a>
    42f0:	9905      	ldr	r1, [sp, #20]
    42f2:	1d0a      	adds	r2, r1, #4
    42f4:	9205      	str	r2, [sp, #20]
    42f6:	2200      	movs	r2, #0
    42f8:	9201      	str	r2, [sp, #4]
    42fa:	9a03      	ldr	r2, [sp, #12]
    42fc:	9200      	str	r2, [sp, #0]
    42fe:	6809      	ldr	r1, [r1, #0]
    4300:	0022      	movs	r2, r4
    4302:	0038      	movs	r0, r7
    4304:	f7ff ff54 	bl	41b0 <io_put_fixed>
    4308:	e7bf      	b.n	428a <io_printf+0x1a>
    430a:	230a      	movs	r3, #10
    430c:	4363      	muls	r3, r4
    430e:	185c      	adds	r4, r3, r1
    4310:	1e53      	subs	r3, r2, #1
    4312:	7819      	ldrb	r1, [r3, #0]
    4314:	3c30      	subs	r4, #48	@ 0x30
    4316:	2900      	cmp	r1, #0
    4318:	d1ce      	bne.n	42b8 <io_printf+0x48>
    431a:	b00c      	add	sp, #48	@ 0x30
    431c:	bcf0      	pop	{r4, r5, r6, r7}
    431e:	bc08      	pop	{r3}
    4320:	b003      	add	sp, #12
    4322:	4718      	bx	r3
    4324:	4343      	muls	r3, r0
    4326:	185b      	adds	r3, r3, r1
    4328:	3b30      	subs	r3, #48	@ 0x30
    432a:	7811      	ldrb	r1, [r2, #0]
    432c:	3201      	adds	r2, #1
    432e:	e7d0      	b.n	42d2 <io_printf+0x62>
    4330:	0008      	movs	r0, r1
    4332:	3863      	subs	r0, #99	@ 0x63
    4334:	2817      	cmp	r0, #23
    4336:	d8b0      	bhi.n	429a <io_printf+0x2a>
    4338:	f000 ff80 	bl	523c <__gnu_thumb1_case_shi>
    433c:	00380018 	.word	0x00380018
    4340:	ffdaffaf 	.word	0xffdaffaf
    4344:	ffafffaf 	.word	0xffafffaf
    4348:	ffafffaf 	.word	0xffafffaf
    434c:	ffaf0091 	.word	0xffaf0091
    4350:	ffafffaf 	.word	0xffafffaf
    4354:	ffafffaf 	.word	0xffafffaf
    4358:	0091ffaf 	.word	0x0091ffaf
    435c:	ffaf001d 	.word	0xffaf001d
    4360:	ffaf006b 	.word	0xffaf006b
    4364:	009fffaf 	.word	0x009fffaf
    4368:	00c7ffaf 	.word	0x00c7ffaf
    436c:	9b05      	ldr	r3, [sp, #20]
    436e:	1d1a      	adds	r2, r3, #4
    4370:	6819      	ldr	r1, [r3, #0]
    4372:	9205      	str	r2, [sp, #20]
    4374:	e791      	b.n	429a <io_printf+0x2a>
    4376:	9b05      	ldr	r3, [sp, #20]
    4378:	2600      	movs	r6, #0
    437a:	681d      	ldr	r5, [r3, #0]
    437c:	1d1a      	adds	r2, r3, #4
    437e:	9205      	str	r2, [sp, #20]
    4380:	5dab      	ldrb	r3, [r5, r6]
    4382:	2b00      	cmp	r3, #0
    4384:	d10a      	bne.n	439c <io_printf+0x12c>
    4386:	42a6      	cmp	r6, r4
    4388:	db0a      	blt.n	43a0 <io_printf+0x130>
    438a:	7829      	ldrb	r1, [r5, #0]
    438c:	2900      	cmp	r1, #0
    438e:	d100      	bne.n	4392 <io_printf+0x122>
    4390:	e77b      	b.n	428a <io_printf+0x1a>
    4392:	0038      	movs	r0, r7
    4394:	3501      	adds	r5, #1
    4396:	f7ff fe97 	bl	40c8 <io_put_char>
    439a:	e7f6      	b.n	438a <io_printf+0x11a>
    439c:	3601      	adds	r6, #1
    439e:	e7ef      	b.n	4380 <io_printf+0x110>
    43a0:	2120      	movs	r1, #32
    43a2:	0038      	movs	r0, r7
    43a4:	f7ff fe90 	bl	40c8 <io_put_char>
    43a8:	3c01      	subs	r4, #1
    43aa:	e7ec      	b.n	4386 <io_printf+0x116>
    43ac:	9b05      	ldr	r3, [sp, #20]
    43ae:	6819      	ldr	r1, [r3, #0]
    43b0:	1d1a      	adds	r2, r3, #4
    43b2:	2300      	movs	r3, #0
    43b4:	9205      	str	r2, [sp, #20]
    43b6:	9303      	str	r3, [sp, #12]
    43b8:	4299      	cmp	r1, r3
    43ba:	da02      	bge.n	43c2 <io_printf+0x152>
    43bc:	332d      	adds	r3, #45	@ 0x2d
    43be:	4249      	negs	r1, r1
    43c0:	9303      	str	r3, [sp, #12]
    43c2:	2500      	movs	r5, #0
    43c4:	a806      	add	r0, sp, #24
    43c6:	f7fb ef7c 	blx	2c0 <sark_div10>
    43ca:	9a07      	ldr	r2, [sp, #28]
    43cc:	9906      	ldr	r1, [sp, #24]
    43ce:	ae08      	add	r6, sp, #32
    43d0:	3230      	adds	r2, #48	@ 0x30
    43d2:	55aa      	strb	r2, [r5, r6]
    43d4:	3501      	adds	r5, #1
    43d6:	2900      	cmp	r1, #0
    43d8:	d1f4      	bne.n	43c4 <io_printf+0x154>
    43da:	3d01      	subs	r5, #1
    43dc:	5d73      	ldrb	r3, [r6, r5]
    43de:	2b30      	cmp	r3, #48	@ 0x30
    43e0:	d101      	bne.n	43e6 <io_printf+0x176>
    43e2:	2d00      	cmp	r5, #0
    43e4:	d1f9      	bne.n	43da <io_printf+0x16a>
    43e6:	9b03      	ldr	r3, [sp, #12]
    43e8:	2b00      	cmp	r3, #0
    43ea:	d002      	beq.n	43f2 <io_printf+0x182>
    43ec:	3501      	adds	r5, #1
    43ee:	232d      	movs	r3, #45	@ 0x2d
    43f0:	5573      	strb	r3, [r6, r5]
    43f2:	1c6b      	adds	r3, r5, #1
    43f4:	42a3      	cmp	r3, r4
    43f6:	d306      	bcc.n	4406 <io_printf+0x196>
    43f8:	5d71      	ldrb	r1, [r6, r5]
    43fa:	0038      	movs	r0, r7
    43fc:	f7ff fe64 	bl	40c8 <io_put_char>
    4400:	3d01      	subs	r5, #1
    4402:	d2f9      	bcs.n	43f8 <io_printf+0x188>
    4404:	e741      	b.n	428a <io_printf+0x1a>
    4406:	2120      	movs	r1, #32
    4408:	0038      	movs	r0, r7
    440a:	f7ff fe5d 	bl	40c8 <io_put_char>
    440e:	3c01      	subs	r4, #1
    4410:	e7ef      	b.n	43f2 <io_printf+0x182>
    4412:	9b05      	ldr	r3, [sp, #20]
    4414:	2500      	movs	r5, #0
    4416:	6819      	ldr	r1, [r3, #0]
    4418:	1d1a      	adds	r2, r3, #4
    441a:	9205      	str	r2, [sp, #20]
    441c:	a806      	add	r0, sp, #24
    441e:	f7fb ef50 	blx	2c0 <sark_div10>
    4422:	9a07      	ldr	r2, [sp, #28]
    4424:	9906      	ldr	r1, [sp, #24]
    4426:	ae08      	add	r6, sp, #32
    4428:	3230      	adds	r2, #48	@ 0x30
    442a:	55aa      	strb	r2, [r5, r6]
    442c:	3501      	adds	r5, #1
    442e:	2900      	cmp	r1, #0
    4430:	d1f4      	bne.n	441c <io_printf+0x1ac>
    4432:	3d01      	subs	r5, #1
    4434:	5d73      	ldrb	r3, [r6, r5]
    4436:	2b30      	cmp	r3, #48	@ 0x30
    4438:	d101      	bne.n	443e <io_printf+0x1ce>
    443a:	2d00      	cmp	r5, #0
    443c:	d1f9      	bne.n	4432 <io_printf+0x1c2>
    443e:	1c6b      	adds	r3, r5, #1
    4440:	42a3      	cmp	r3, r4
    4442:	d306      	bcc.n	4452 <io_printf+0x1e2>
    4444:	5d71      	ldrb	r1, [r6, r5]
    4446:	0038      	movs	r0, r7
    4448:	f7ff fe3e 	bl	40c8 <io_put_char>
    444c:	3d01      	subs	r5, #1
    444e:	d2f9      	bcs.n	4444 <io_printf+0x1d4>
    4450:	e71b      	b.n	428a <io_printf+0x1a>
    4452:	9903      	ldr	r1, [sp, #12]
    4454:	0038      	movs	r0, r7
    4456:	f7ff fe37 	bl	40c8 <io_put_char>
    445a:	3c01      	subs	r4, #1
    445c:	e7ef      	b.n	443e <io_printf+0x1ce>
    445e:	9a05      	ldr	r2, [sp, #20]
    4460:	1d11      	adds	r1, r2, #4
    4462:	6812      	ldr	r2, [r2, #0]
    4464:	9105      	str	r1, [sp, #20]
    4466:	17d0      	asrs	r0, r2, #31
    4468:	1811      	adds	r1, r2, r0
    446a:	0fd2      	lsrs	r2, r2, #31
    446c:	4041      	eors	r1, r0
    446e:	9201      	str	r2, [sp, #4]
    4470:	9a03      	ldr	r2, [sp, #12]
    4472:	9200      	str	r2, [sp, #0]
    4474:	0049      	lsls	r1, r1, #1
    4476:	0022      	movs	r2, r4
    4478:	e743      	b.n	4302 <io_printf+0x92>
    447a:	9b05      	ldr	r3, [sp, #20]
    447c:	a902      	add	r1, sp, #8
    447e:	1d1a      	adds	r2, r3, #4
    4480:	9205      	str	r2, [sp, #20]
    4482:	681b      	ldr	r3, [r3, #0]
    4484:	2217      	movs	r2, #23
    4486:	481c      	ldr	r0, [pc, #112]	@ (44f8 <io_printf+0x288>)
    4488:	2500      	movs	r5, #0
    448a:	1852      	adds	r2, r2, r1
    448c:	260f      	movs	r6, #15
    448e:	0019      	movs	r1, r3
    4490:	4031      	ands	r1, r6
    4492:	5c41      	ldrb	r1, [r0, r1]
    4494:	3501      	adds	r5, #1
    4496:	091b      	lsrs	r3, r3, #4
    4498:	5551      	strb	r1, [r2, r5]
    449a:	d1f8      	bne.n	448e <io_printf+0x21e>
    449c:	ae08      	add	r6, sp, #32
    449e:	3d01      	subs	r5, #1
    44a0:	5dab      	ldrb	r3, [r5, r6]
    44a2:	2b30      	cmp	r3, #48	@ 0x30
    44a4:	d101      	bne.n	44aa <io_printf+0x23a>
    44a6:	2d00      	cmp	r5, #0
    44a8:	d1f9      	bne.n	449e <io_printf+0x22e>
    44aa:	1c6b      	adds	r3, r5, #1
    44ac:	42a3      	cmp	r3, r4
    44ae:	d306      	bcc.n	44be <io_printf+0x24e>
    44b0:	5d71      	ldrb	r1, [r6, r5]
    44b2:	0038      	movs	r0, r7
    44b4:	f7ff fe08 	bl	40c8 <io_put_char>
    44b8:	3d01      	subs	r5, #1
    44ba:	d2f9      	bcs.n	44b0 <io_printf+0x240>
    44bc:	e6e5      	b.n	428a <io_printf+0x1a>
    44be:	9903      	ldr	r1, [sp, #12]
    44c0:	0038      	movs	r0, r7
    44c2:	f7ff fe01 	bl	40c8 <io_put_char>
    44c6:	3c01      	subs	r4, #1
    44c8:	e7ef      	b.n	44aa <io_printf+0x23a>
    44ca:	9b05      	ldr	r3, [sp, #20]
    44cc:	3c01      	subs	r4, #1
    44ce:	681d      	ldr	r5, [r3, #0]
    44d0:	1d1a      	adds	r2, r3, #4
    44d2:	260f      	movs	r6, #15
    44d4:	9205      	str	r2, [sp, #20]
    44d6:	2c00      	cmp	r4, #0
    44d8:	da00      	bge.n	44dc <io_printf+0x26c>
    44da:	e6d6      	b.n	428a <io_printf+0x1a>
    44dc:	00a3      	lsls	r3, r4, #2
    44de:	0029      	movs	r1, r5
    44e0:	40d9      	lsrs	r1, r3
    44e2:	4a05      	ldr	r2, [pc, #20]	@ (44f8 <io_printf+0x288>)
    44e4:	000b      	movs	r3, r1
    44e6:	4033      	ands	r3, r6
    44e8:	5cd1      	ldrb	r1, [r2, r3]
    44ea:	0038      	movs	r0, r7
    44ec:	f7ff fdec 	bl	40c8 <io_put_char>
    44f0:	3c01      	subs	r4, #1
    44f2:	e7f0      	b.n	44d6 <io_printf+0x266>
    44f4:	00400a30 	.word	0x00400a30
    44f8:	0000560f 	.word	0x0000560f

000044fc <__aeabi_idiv0>:
    44fc:	e3a0000b 	mov	r0, #11
    4500:	e92d4010 	push	{r4, lr}
    4504:	ebffef08 	bl	12c <rt_error>

00004508 <configure_timer1>:
    4508:	b570      	push	{r4, r5, r6, lr}
    450a:	4c18      	ldr	r4, [pc, #96]	@ (456c <configure_timer1+0x64>)
    450c:	4a18      	ldr	r2, [pc, #96]	@ (4570 <configure_timer1+0x68>)
    450e:	6ba3      	ldr	r3, [r4, #56]	@ 0x38
    4510:	4d18      	ldr	r5, [pc, #96]	@ (4574 <configure_timer1+0x6c>)
    4512:	4343      	muls	r3, r0
    4514:	2601      	movs	r6, #1
    4516:	6013      	str	r3, [r2, #0]
    4518:	602e      	str	r6, [r5, #0]
    451a:	2b00      	cmp	r3, #0
    451c:	da04      	bge.n	4528 <configure_timer1+0x20>
    451e:	425b      	negs	r3, r3
    4520:	6013      	str	r3, [r2, #0]
    4522:	2301      	movs	r3, #1
    4524:	425b      	negs	r3, r3
    4526:	602b      	str	r3, [r5, #0]
    4528:	6812      	ldr	r2, [r2, #0]
    452a:	4e13      	ldr	r6, [pc, #76]	@ (4578 <configure_timer1+0x70>)
    452c:	0c53      	lsrs	r3, r2, #17
    452e:	045b      	lsls	r3, r3, #17
    4530:	1ad2      	subs	r2, r2, r3
    4532:	6032      	str	r2, [r6, #0]
    4534:	145a      	asrs	r2, r3, #17
    4536:	682b      	ldr	r3, [r5, #0]
    4538:	4d10      	ldr	r5, [pc, #64]	@ (457c <configure_timer1+0x74>)
    453a:	4353      	muls	r3, r2
    453c:	4a10      	ldr	r2, [pc, #64]	@ (4580 <configure_timer1+0x78>)
    453e:	6015      	str	r5, [r2, #0]
    4540:	8ca4      	ldrh	r4, [r4, #36]	@ 0x24
    4542:	4a10      	ldr	r2, [pc, #64]	@ (4584 <configure_timer1+0x7c>)
    4544:	4360      	muls	r0, r4
    4546:	6010      	str	r0, [r2, #0]
    4548:	480f      	ldr	r0, [pc, #60]	@ (4588 <configure_timer1+0x80>)
    454a:	2500      	movs	r5, #0
    454c:	6005      	str	r5, [r0, #0]
    454e:	480f      	ldr	r0, [pc, #60]	@ (458c <configure_timer1+0x84>)
    4550:	3501      	adds	r5, #1
    4552:	4361      	muls	r1, r4
    4554:	6005      	str	r5, [r0, #0]
    4556:	6810      	ldr	r0, [r2, #0]
    4558:	1809      	adds	r1, r1, r0
    455a:	2084      	movs	r0, #132	@ 0x84
    455c:	18c9      	adds	r1, r1, r3
    455e:	0580      	lsls	r0, r0, #22
    4560:	6001      	str	r1, [r0, #0]
    4562:	6812      	ldr	r2, [r2, #0]
    4564:	189b      	adds	r3, r3, r2
    4566:	4a0a      	ldr	r2, [pc, #40]	@ (4590 <configure_timer1+0x88>)
    4568:	6013      	str	r3, [r2, #0]
    456a:	bd70      	pop	{r4, r5, r6, pc}
    456c:	e5007f00 	.word	0xe5007f00
    4570:	0040103c 	.word	0x0040103c
    4574:	00401038 	.word	0x00401038
    4578:	00401034 	.word	0x00401034
    457c:	001e8480 	.word	0x001e8480
    4580:	00401030 	.word	0x00401030
    4584:	00401040 	.word	0x00401040
    4588:	21000008 	.word	0x21000008
    458c:	2100000c 	.word	0x2100000c
    4590:	21000018 	.word	0x21000018

00004594 <resume>:
    4594:	4a0d      	ldr	r2, [pc, #52]	@ (45cc <resume+0x38>)
    4596:	b510      	push	{r4, lr}
    4598:	6813      	ldr	r3, [r2, #0]
    459a:	2b01      	cmp	r3, #1
    459c:	d105      	bne.n	45aa <resume+0x16>
    459e:	2100      	movs	r1, #0
    45a0:	6011      	str	r1, [r2, #0]
    45a2:	4a0b      	ldr	r2, [pc, #44]	@ (45d0 <resume+0x3c>)
    45a4:	7e91      	ldrb	r1, [r2, #26]
    45a6:	404b      	eors	r3, r1
    45a8:	7693      	strb	r3, [r2, #26]
    45aa:	4b0a      	ldr	r3, [pc, #40]	@ (45d4 <resume+0x40>)
    45ac:	2200      	movs	r2, #0
    45ae:	2007      	movs	r0, #7
    45b0:	601a      	str	r2, [r3, #0]
    45b2:	f7fe ffdd 	bl	3570 <sark_cpu_state>
    45b6:	4b08      	ldr	r3, [pc, #32]	@ (45d8 <resume+0x44>)
    45b8:	691b      	ldr	r3, [r3, #16]
    45ba:	2b00      	cmp	r3, #0
    45bc:	d002      	beq.n	45c4 <resume+0x30>
    45be:	4b07      	ldr	r3, [pc, #28]	@ (45dc <resume+0x48>)
    45c0:	2210      	movs	r2, #16
    45c2:	601a      	str	r2, [r3, #0]
    45c4:	4b06      	ldr	r3, [pc, #24]	@ (45e0 <resume+0x4c>)
    45c6:	22e2      	movs	r2, #226	@ 0xe2
    45c8:	601a      	str	r2, [r3, #0]
    45ca:	bd10      	pop	{r4, pc}
    45cc:	0040104c 	.word	0x0040104c
    45d0:	00400970 	.word	0x00400970
    45d4:	00401050 	.word	0x00401050
    45d8:	00400a80 	.word	0x00400a80
    45dc:	1f000010 	.word	0x1f000010
    45e0:	21000008 	.word	0x21000008

000045e4 <clean_up>:
    45e4:	b510      	push	{r4, lr}
    45e6:	f7fb ede8 	blx	1b8 <cpu_int_disable>
    45ea:	4b10      	ldr	r3, [pc, #64]	@ (462c <clean_up+0x48>)
    45ec:	681a      	ldr	r2, [r3, #0]
    45ee:	2320      	movs	r3, #32
    45f0:	61da      	str	r2, [r3, #28]
    45f2:	4b0f      	ldr	r3, [pc, #60]	@ (4630 <clean_up+0x4c>)
    45f4:	681a      	ldr	r2, [r3, #0]
    45f6:	4b0f      	ldr	r3, [pc, #60]	@ (4634 <clean_up+0x50>)
    45f8:	601a      	str	r2, [r3, #0]
    45fa:	4b0f      	ldr	r3, [pc, #60]	@ (4638 <clean_up+0x54>)
    45fc:	681a      	ldr	r2, [r3, #0]
    45fe:	4b0f      	ldr	r3, [pc, #60]	@ (463c <clean_up+0x58>)
    4600:	601a      	str	r2, [r3, #0]
    4602:	2359      	movs	r3, #89	@ 0x59
    4604:	781b      	ldrb	r3, [r3, #0]
    4606:	4a0e      	ldr	r2, [pc, #56]	@ (4640 <clean_up+0x5c>)
    4608:	009b      	lsls	r3, r3, #2
    460a:	189b      	adds	r3, r3, r2
    460c:	2232      	movs	r2, #50	@ 0x32
    460e:	601a      	str	r2, [r3, #0]
    4610:	4b0c      	ldr	r3, [pc, #48]	@ (4644 <clean_up+0x60>)
    4612:	3a31      	subs	r2, #49	@ 0x31
    4614:	601a      	str	r2, [r3, #0]
    4616:	4b0c      	ldr	r3, [pc, #48]	@ (4648 <clean_up+0x64>)
    4618:	2200      	movs	r2, #0
    461a:	601a      	str	r2, [r3, #0]
    461c:	4b0b      	ldr	r3, [pc, #44]	@ (464c <clean_up+0x68>)
    461e:	323f      	adds	r2, #63	@ 0x3f
    4620:	601a      	str	r2, [r3, #0]
    4622:	3a32      	subs	r2, #50	@ 0x32
    4624:	601a      	str	r2, [r3, #0]
    4626:	f7fb edd0 	blx	1c8 <cpu_int_restore>
    462a:	bd10      	pop	{r4, pc}
    462c:	00401028 	.word	0x00401028
    4630:	00401024 	.word	0x00401024
    4634:	1f00000c 	.word	0x1f00000c
    4638:	00401020 	.word	0x00401020
    463c:	1f000010 	.word	0x1f000010
    4640:	2f000200 	.word	0x2f000200
    4644:	2100000c 	.word	0x2100000c
    4648:	40000018 	.word	0x40000018
    464c:	40000010 	.word	0x40000010

00004650 <resume_wait>:
    4650:	4b06      	ldr	r3, [pc, #24]	@ (466c <resume_wait+0x1c>)
    4652:	2001      	movs	r0, #1
    4654:	681b      	ldr	r3, [r3, #0]
    4656:	4098      	lsls	r0, r3
    4658:	4b05      	ldr	r3, [pc, #20]	@ (4670 <resume_wait+0x20>)
    465a:	7e9a      	ldrb	r2, [r3, #26]
    465c:	4b05      	ldr	r3, [pc, #20]	@ (4674 <resume_wait+0x24>)
    465e:	681b      	ldr	r3, [r3, #0]
    4660:	2a00      	cmp	r2, #0
    4662:	d001      	beq.n	4668 <resume_wait+0x18>
    4664:	4398      	bics	r0, r3
    4666:	4770      	bx	lr
    4668:	4018      	ands	r0, r3
    466a:	e7fc      	b.n	4666 <resume_wait+0x16>
    466c:	00400934 	.word	0x00400934
    4670:	00400970 	.word	0x00400970
    4674:	e2000058 	.word	0xe2000058

00004678 <start>:
    4678:	b5f0      	push	{r4, r5, r6, r7, lr}
    467a:	4fb6      	ldr	r7, [pc, #728]	@ (4954 <start+0x2dc>)
    467c:	b085      	sub	sp, #20
    467e:	6039      	str	r1, [r7, #0]
    4680:	683b      	ldr	r3, [r7, #0]
    4682:	9001      	str	r0, [sp, #4]
    4684:	200a      	movs	r0, #10
    4686:	2b00      	cmp	r3, #0
    4688:	d100      	bne.n	468c <start+0x14>
    468a:	2007      	movs	r0, #7
    468c:	f7fe ff70 	bl	3570 <sark_cpu_state>
    4690:	2380      	movs	r3, #128	@ 0x80
    4692:	059b      	lsls	r3, r3, #22
    4694:	2400      	movs	r4, #0
    4696:	601c      	str	r4, [r3, #0]
    4698:	4baf      	ldr	r3, [pc, #700]	@ (4958 <start+0x2e0>)
    469a:	223f      	movs	r2, #63	@ 0x3f
    469c:	601a      	str	r2, [r3, #0]
    469e:	3a32      	subs	r2, #50	@ 0x32
    46a0:	601a      	str	r2, [r3, #0]
    46a2:	4bae      	ldr	r3, [pc, #696]	@ (495c <start+0x2e4>)
    46a4:	22c0      	movs	r2, #192	@ 0xc0
    46a6:	0112      	lsls	r2, r2, #4
    46a8:	601a      	str	r2, [r3, #0]
    46aa:	4bad      	ldr	r3, [pc, #692]	@ (4960 <start+0x2e8>)
    46ac:	2203      	movs	r2, #3
    46ae:	601a      	str	r2, [r3, #0]
    46b0:	4dac      	ldr	r5, [pc, #688]	@ (4964 <start+0x2ec>)
    46b2:	4bad      	ldr	r3, [pc, #692]	@ (4968 <start+0x2f0>)
    46b4:	6828      	ldr	r0, [r5, #0]
    46b6:	6819      	ldr	r1, [r3, #0]
    46b8:	f7ff ff26 	bl	4508 <configure_timer1>
    46bc:	683b      	ldr	r3, [r7, #0]
    46be:	49ab      	ldr	r1, [pc, #684]	@ (496c <start+0x2f4>)
    46c0:	9300      	str	r3, [sp, #0]
    46c2:	4bab      	ldr	r3, [pc, #684]	@ (4970 <start+0x2f8>)
    46c4:	680a      	ldr	r2, [r1, #0]
    46c6:	601a      	str	r2, [r3, #0]
    46c8:	4aaa      	ldr	r2, [pc, #680]	@ (4974 <start+0x2fc>)
    46ca:	2320      	movs	r3, #32
    46cc:	69d8      	ldr	r0, [r3, #28]
    46ce:	4eaa      	ldr	r6, [pc, #680]	@ (4978 <start+0x300>)
    46d0:	6010      	str	r0, [r2, #0]
    46d2:	4aaa      	ldr	r2, [pc, #680]	@ (497c <start+0x304>)
    46d4:	6830      	ldr	r0, [r6, #0]
    46d6:	6010      	str	r0, [r2, #0]
    46d8:	4aa9      	ldr	r2, [pc, #676]	@ (4980 <start+0x308>)
    46da:	6810      	ldr	r0, [r2, #0]
    46dc:	4684      	mov	ip, r0
    46de:	48a9      	ldr	r0, [pc, #676]	@ (4984 <start+0x30c>)
    46e0:	4662      	mov	r2, ip
    46e2:	6002      	str	r2, [r0, #0]
    46e4:	48a8      	ldr	r0, [pc, #672]	@ (4988 <start+0x310>)
    46e6:	6800      	ldr	r0, [r0, #0]
    46e8:	2807      	cmp	r0, #7
    46ea:	d809      	bhi.n	4700 <start+0x88>
    46ec:	f7fb fe32 	bl	354 <__gnu_thumb1_case_uqi>
    46f0:	cfc7c204 	.word	0xcfc7c204
    46f4:	bdbd04cb 	.word	0xbdbd04cb
    46f8:	2480      	movs	r4, #128	@ 0x80
    46fa:	48a4      	ldr	r0, [pc, #656]	@ (498c <start+0x314>)
    46fc:	0464      	lsls	r4, r4, #17
    46fe:	61d8      	str	r0, [r3, #28]
    4700:	2359      	movs	r3, #89	@ 0x59
    4702:	781b      	ldrb	r3, [r3, #0]
    4704:	4aa2      	ldr	r2, [pc, #648]	@ (4990 <start+0x318>)
    4706:	009b      	lsls	r3, r3, #2
    4708:	189b      	adds	r3, r3, r2
    470a:	2000      	movs	r0, #0
    470c:	6018      	str	r0, [r3, #0]
    470e:	48a1      	ldr	r0, [pc, #644]	@ (4994 <start+0x31c>)
    4710:	4ba1      	ldr	r3, [pc, #644]	@ (4998 <start+0x320>)
    4712:	6003      	str	r3, [r0, #0]
    4714:	2032      	movs	r0, #50	@ 0x32
    4716:	6010      	str	r0, [r2, #0]
    4718:	48a0      	ldr	r0, [pc, #640]	@ (499c <start+0x324>)
    471a:	4ba1      	ldr	r3, [pc, #644]	@ (49a0 <start+0x328>)
    471c:	6003      	str	r3, [r0, #0]
    471e:	4ba1      	ldr	r3, [pc, #644]	@ (49a4 <start+0x32c>)
    4720:	2038      	movs	r0, #56	@ 0x38
    4722:	6018      	str	r0, [r3, #0]
    4724:	48a0      	ldr	r0, [pc, #640]	@ (49a8 <start+0x330>)
    4726:	4ba1      	ldr	r3, [pc, #644]	@ (49ac <start+0x334>)
    4728:	6003      	str	r3, [r0, #0]
    472a:	4ba1      	ldr	r3, [pc, #644]	@ (49b0 <start+0x338>)
    472c:	203b      	movs	r0, #59	@ 0x3b
    472e:	6018      	str	r0, [r3, #0]
    4730:	48a0      	ldr	r0, [pc, #640]	@ (49b4 <start+0x33c>)
    4732:	4ba1      	ldr	r3, [pc, #644]	@ (49b8 <start+0x340>)
    4734:	6003      	str	r3, [r0, #0]
    4736:	4ba1      	ldr	r3, [pc, #644]	@ (49bc <start+0x344>)
    4738:	202c      	movs	r0, #44	@ 0x2c
    473a:	6018      	str	r0, [r3, #0]
    473c:	48a0      	ldr	r0, [pc, #640]	@ (49c0 <start+0x348>)
    473e:	4ba1      	ldr	r3, [pc, #644]	@ (49c4 <start+0x34c>)
    4740:	6003      	str	r3, [r0, #0]
    4742:	4ba1      	ldr	r3, [pc, #644]	@ (49c8 <start+0x350>)
    4744:	2024      	movs	r0, #36	@ 0x24
    4746:	6018      	str	r0, [r3, #0]
    4748:	48a0      	ldr	r0, [pc, #640]	@ (49cc <start+0x354>)
    474a:	4ba1      	ldr	r3, [pc, #644]	@ (49d0 <start+0x358>)
    474c:	6003      	str	r3, [r0, #0]
    474e:	4ba1      	ldr	r3, [pc, #644]	@ (49d4 <start+0x35c>)
    4750:	202b      	movs	r0, #43	@ 0x2b
    4752:	6018      	str	r0, [r3, #0]
    4754:	48a0      	ldr	r0, [pc, #640]	@ (49d8 <start+0x360>)
    4756:	4ba1      	ldr	r3, [pc, #644]	@ (49dc <start+0x364>)
    4758:	6003      	str	r3, [r0, #0]
    475a:	9a00      	ldr	r2, [sp, #0]
    475c:	4ba0      	ldr	r3, [pc, #640]	@ (49e0 <start+0x368>)
    475e:	2021      	movs	r0, #33	@ 0x21
    4760:	6018      	str	r0, [r3, #0]
    4762:	6034      	str	r4, [r6, #0]
    4764:	680b      	ldr	r3, [r1, #0]
    4766:	2a00      	cmp	r2, #0
    4768:	d001      	beq.n	476e <start+0xf6>
    476a:	2110      	movs	r1, #16
    476c:	438b      	bics	r3, r1
    476e:	4a84      	ldr	r2, [pc, #528]	@ (4980 <start+0x308>)
    4770:	4c9c      	ldr	r4, [pc, #624]	@ (49e4 <start+0x36c>)
    4772:	6013      	str	r3, [r2, #0]
    4774:	2300      	movs	r3, #0
    4776:	6063      	str	r3, [r4, #4]
    4778:	61e3      	str	r3, [r4, #28]
    477a:	6223      	str	r3, [r4, #32]
    477c:	6263      	str	r3, [r4, #36]	@ 0x24
    477e:	6023      	str	r3, [r4, #0]
    4780:	63e3      	str	r3, [r4, #60]	@ 0x3c
    4782:	6423      	str	r3, [r4, #64]	@ 0x40
    4784:	64a3      	str	r3, [r4, #72]	@ 0x48
    4786:	6463      	str	r3, [r4, #68]	@ 0x44
    4788:	9b01      	ldr	r3, [sp, #4]
    478a:	2201      	movs	r2, #1
    478c:	6162      	str	r2, [r4, #20]
    478e:	4293      	cmp	r3, r2
    4790:	d101      	bne.n	4796 <start+0x11e>
    4792:	f7ff f99d 	bl	3ad0 <event_wait>
    4796:	682b      	ldr	r3, [r5, #0]
    4798:	2b00      	cmp	r3, #0
    479a:	d005      	beq.n	47a8 <start+0x130>
    479c:	683b      	ldr	r3, [r7, #0]
    479e:	2b00      	cmp	r3, #0
    47a0:	d102      	bne.n	47a8 <start+0x130>
    47a2:	4b91      	ldr	r3, [pc, #580]	@ (49e8 <start+0x370>)
    47a4:	22e2      	movs	r2, #226	@ 0xe2
    47a6:	601a      	str	r2, [r3, #0]
    47a8:	4b90      	ldr	r3, [pc, #576]	@ (49ec <start+0x374>)
    47aa:	2200      	movs	r2, #0
    47ac:	601a      	str	r2, [r3, #0]
    47ae:	4b90      	ldr	r3, [pc, #576]	@ (49f0 <start+0x378>)
    47b0:	2101      	movs	r1, #1
    47b2:	6019      	str	r1, [r3, #0]
    47b4:	4b8f      	ldr	r3, [pc, #572]	@ (49f4 <start+0x37c>)
    47b6:	601a      	str	r2, [r3, #0]
    47b8:	4b8d      	ldr	r3, [pc, #564]	@ (49f0 <start+0x378>)
    47ba:	681b      	ldr	r3, [r3, #0]
    47bc:	2b00      	cmp	r3, #0
    47be:	d000      	beq.n	47c2 <start+0x14a>
    47c0:	e08b      	b.n	48da <start+0x262>
    47c2:	f7ff ff0f 	bl	45e4 <clean_up>
    47c6:	f7fb ecf0 	blx	1a8 <cpu_int_enable>
    47ca:	4a8b      	ldr	r2, [pc, #556]	@ (49f8 <start+0x380>)
    47cc:	498b      	ldr	r1, [pc, #556]	@ (49fc <start+0x384>)
    47ce:	6813      	ldr	r3, [r2, #0]
    47d0:	6808      	ldr	r0, [r1, #0]
    47d2:	4e8b      	ldr	r6, [pc, #556]	@ (4a00 <start+0x388>)
    47d4:	181b      	adds	r3, r3, r0
    47d6:	4d8b      	ldr	r5, [pc, #556]	@ (4a04 <start+0x38c>)
    47d8:	60a3      	str	r3, [r4, #8]
    47da:	6833      	ldr	r3, [r6, #0]
    47dc:	60e3      	str	r3, [r4, #12]
    47de:	682b      	ldr	r3, [r5, #0]
    47e0:	61a3      	str	r3, [r4, #24]
    47e2:	4889      	ldr	r0, [pc, #548]	@ (4a08 <start+0x390>)
    47e4:	4b89      	ldr	r3, [pc, #548]	@ (4a0c <start+0x394>)
    47e6:	681b      	ldr	r3, [r3, #0]
    47e8:	6800      	ldr	r0, [r0, #0]
    47ea:	181b      	adds	r3, r3, r0
    47ec:	6323      	str	r3, [r4, #48]	@ 0x30
    47ee:	4b88      	ldr	r3, [pc, #544]	@ (4a10 <start+0x398>)
    47f0:	681b      	ldr	r3, [r3, #0]
    47f2:	6363      	str	r3, [r4, #52]	@ 0x34
    47f4:	4b87      	ldr	r3, [pc, #540]	@ (4a14 <start+0x39c>)
    47f6:	781b      	ldrb	r3, [r3, #0]
    47f8:	2b00      	cmp	r3, #0
    47fa:	d00b      	beq.n	4814 <start+0x19c>
    47fc:	6812      	ldr	r2, [r2, #0]
    47fe:	680b      	ldr	r3, [r1, #0]
    4800:	2002      	movs	r0, #2
    4802:	4985      	ldr	r1, [pc, #532]	@ (4a18 <start+0x3a0>)
    4804:	18d2      	adds	r2, r2, r3
    4806:	f7ff fd33 	bl	4270 <io_printf>
    480a:	6832      	ldr	r2, [r6, #0]
    480c:	4983      	ldr	r1, [pc, #524]	@ (4a1c <start+0x3a4>)
    480e:	2002      	movs	r0, #2
    4810:	f7ff fd2e 	bl	4270 <io_printf>
    4814:	6922      	ldr	r2, [r4, #16]
    4816:	4982      	ldr	r1, [pc, #520]	@ (4a20 <start+0x3a8>)
    4818:	2002      	movs	r0, #2
    481a:	f7ff fd29 	bl	4270 <io_printf>
    481e:	4981      	ldr	r1, [pc, #516]	@ (4a24 <start+0x3ac>)
    4820:	6ba2      	ldr	r2, [r4, #56]	@ 0x38
    4822:	2002      	movs	r0, #2
    4824:	f7ff fd24 	bl	4270 <io_printf>
    4828:	682a      	ldr	r2, [r5, #0]
    482a:	497f      	ldr	r1, [pc, #508]	@ (4a28 <start+0x3b0>)
    482c:	2002      	movs	r0, #2
    482e:	f7ff fd1f 	bl	4270 <io_printf>
    4832:	6863      	ldr	r3, [r4, #4]
    4834:	07db      	lsls	r3, r3, #31
    4836:	d504      	bpl.n	4842 <start+0x1ca>
    4838:	497c      	ldr	r1, [pc, #496]	@ (4a2c <start+0x3b4>)
    483a:	6a22      	ldr	r2, [r4, #32]
    483c:	2002      	movs	r0, #2
    483e:	f7ff fd17 	bl	4270 <io_printf>
    4842:	4c68      	ldr	r4, [pc, #416]	@ (49e4 <start+0x36c>)
    4844:	2002      	movs	r0, #2
    4846:	6863      	ldr	r3, [r4, #4]
    4848:	4203      	tst	r3, r0
    484a:	d003      	beq.n	4854 <start+0x1dc>
    484c:	4978      	ldr	r1, [pc, #480]	@ (4a30 <start+0x3b8>)
    484e:	69e2      	ldr	r2, [r4, #28]
    4850:	f7ff fd0e 	bl	4270 <io_printf>
    4854:	6863      	ldr	r3, [r4, #4]
    4856:	075b      	lsls	r3, r3, #29
    4858:	d504      	bpl.n	4864 <start+0x1ec>
    485a:	4976      	ldr	r1, [pc, #472]	@ (4a34 <start+0x3bc>)
    485c:	6a62      	ldr	r2, [r4, #36]	@ 0x24
    485e:	2002      	movs	r0, #2
    4860:	f7ff fd06 	bl	4270 <io_printf>
    4864:	6820      	ldr	r0, [r4, #0]
    4866:	b005      	add	sp, #20
    4868:	bdf0      	pop	{r4, r5, r6, r7, pc}
    486a:	4873      	ldr	r0, [pc, #460]	@ (4a38 <start+0x3c0>)
    486c:	2480      	movs	r4, #128	@ 0x80
    486e:	0524      	lsls	r4, r4, #20
    4870:	61d8      	str	r0, [r3, #28]
    4872:	e745      	b.n	4700 <start+0x88>
    4874:	4871      	ldr	r0, [pc, #452]	@ (4a3c <start+0x3c4>)
    4876:	2480      	movs	r4, #128	@ 0x80
    4878:	0164      	lsls	r4, r4, #5
    487a:	61d8      	str	r0, [r3, #28]
    487c:	e740      	b.n	4700 <start+0x88>
    487e:	4870      	ldr	r0, [pc, #448]	@ (4a40 <start+0x3c8>)
    4880:	2410      	movs	r4, #16
    4882:	61d8      	str	r0, [r3, #28]
    4884:	e73c      	b.n	4700 <start+0x88>
    4886:	486f      	ldr	r0, [pc, #444]	@ (4a44 <start+0x3cc>)
    4888:	2402      	movs	r4, #2
    488a:	61d8      	str	r0, [r3, #28]
    488c:	e738      	b.n	4700 <start+0x88>
    488e:	486e      	ldr	r0, [pc, #440]	@ (4a48 <start+0x3d0>)
    4890:	2480      	movs	r4, #128	@ 0x80
    4892:	02e4      	lsls	r4, r4, #11
    4894:	61d8      	str	r0, [r3, #28]
    4896:	e733      	b.n	4700 <start+0x88>
    4898:	0028      	movs	r0, r5
    489a:	f7fb ec96 	blx	1c8 <cpu_int_restore>
    489e:	4d6b      	ldr	r5, [pc, #428]	@ (4a4c <start+0x3d4>)
    48a0:	9b03      	ldr	r3, [sp, #12]
    48a2:	692a      	ldr	r2, [r5, #16]
    48a4:	429a      	cmp	r2, r3
    48a6:	d102      	bne.n	48ae <start+0x236>
    48a8:	4b4e      	ldr	r3, [pc, #312]	@ (49e4 <start+0x36c>)
    48aa:	2101      	movs	r1, #1
    48ac:	63d9      	str	r1, [r3, #60]	@ 0x3c
    48ae:	9b03      	ldr	r3, [sp, #12]
    48b0:	429a      	cmp	r2, r3
    48b2:	d102      	bne.n	48ba <start+0x242>
    48b4:	683b      	ldr	r3, [r7, #0]
    48b6:	2b00      	cmp	r3, #0
    48b8:	d103      	bne.n	48c2 <start+0x24a>
    48ba:	9b03      	ldr	r3, [sp, #12]
    48bc:	9900      	ldr	r1, [sp, #0]
    48be:	0030      	movs	r0, r6
    48c0:	4798      	blx	r3
    48c2:	9b03      	ldr	r3, [sp, #12]
    48c4:	692a      	ldr	r2, [r5, #16]
    48c6:	429a      	cmp	r2, r3
    48c8:	d107      	bne.n	48da <start+0x262>
    48ca:	4a46      	ldr	r2, [pc, #280]	@ (49e4 <start+0x36c>)
    48cc:	6c13      	ldr	r3, [r2, #64]	@ 0x40
    48ce:	2b00      	cmp	r3, #0
    48d0:	d001      	beq.n	48d6 <start+0x25e>
    48d2:	3b01      	subs	r3, #1
    48d4:	6413      	str	r3, [r2, #64]	@ 0x40
    48d6:	2300      	movs	r3, #0
    48d8:	63d3      	str	r3, [r2, #60]	@ 0x3c
    48da:	f7fb ec6e 	blx	1b8 <cpu_int_disable>
    48de:	2100      	movs	r1, #0
    48e0:	0005      	movs	r5, r0
    48e2:	e01f      	b.n	4924 <start+0x2ac>
    48e4:	4a5a      	ldr	r2, [pc, #360]	@ (4a50 <start+0x3d8>)
    48e6:	6812      	ldr	r2, [r2, #0]
    48e8:	4291      	cmp	r1, r2
    48ea:	d21f      	bcs.n	492c <start+0x2b4>
    48ec:	23c8      	movs	r3, #200	@ 0xc8
    48ee:	434b      	muls	r3, r1
    48f0:	4858      	ldr	r0, [pc, #352]	@ (4a54 <start+0x3dc>)
    48f2:	469c      	mov	ip, r3
    48f4:	4662      	mov	r2, ip
    48f6:	1882      	adds	r2, r0, r2
    48f8:	581b      	ldr	r3, [r3, r0]
    48fa:	6852      	ldr	r2, [r2, #4]
    48fc:	4293      	cmp	r3, r2
    48fe:	d010      	beq.n	4922 <start+0x2aa>
    4900:	220c      	movs	r2, #12
    4902:	435a      	muls	r2, r3
    4904:	4462      	add	r2, ip
    4906:	1882      	adds	r2, r0, r2
    4908:	6896      	ldr	r6, [r2, #8]
    490a:	9603      	str	r6, [sp, #12]
    490c:	68d6      	ldr	r6, [r2, #12]
    490e:	6912      	ldr	r2, [r2, #16]
    4910:	3301      	adds	r3, #1
    4912:	9200      	str	r2, [sp, #0]
    4914:	220f      	movs	r2, #15
    4916:	4013      	ands	r3, r2
    4918:	4662      	mov	r2, ip
    491a:	5013      	str	r3, [r2, r0]
    491c:	9b03      	ldr	r3, [sp, #12]
    491e:	2b00      	cmp	r3, #0
    4920:	d1ba      	bne.n	4898 <start+0x220>
    4922:	3101      	adds	r1, #1
    4924:	4b32      	ldr	r3, [pc, #200]	@ (49f0 <start+0x378>)
    4926:	681a      	ldr	r2, [r3, #0]
    4928:	2a00      	cmp	r2, #0
    492a:	d1db      	bne.n	48e4 <start+0x26c>
    492c:	681b      	ldr	r3, [r3, #0]
    492e:	2b00      	cmp	r3, #0
    4930:	d100      	bne.n	4934 <start+0x2bc>
    4932:	e741      	b.n	47b8 <start+0x140>
    4934:	f7fb ec4c 	blx	1d0 <cpu_wfi>
    4938:	4b2e      	ldr	r3, [pc, #184]	@ (49f4 <start+0x37c>)
    493a:	681b      	ldr	r3, [r3, #0]
    493c:	2b01      	cmp	r3, #1
    493e:	d105      	bne.n	494c <start+0x2d4>
    4940:	f7ff fe86 	bl	4650 <resume_wait>
    4944:	2800      	cmp	r0, #0
    4946:	d101      	bne.n	494c <start+0x2d4>
    4948:	f7ff fe24 	bl	4594 <resume>
    494c:	0028      	movs	r0, r5
    494e:	f7fb ec3c 	blx	1c8 <cpu_int_restore>
    4952:	e731      	b.n	47b8 <start+0x140>
    4954:	00401050 	.word	0x00401050
    4958:	40000010 	.word	0x40000010
    495c:	40000018 	.word	0x40000018
    4960:	40000028 	.word	0x40000028
    4964:	00401044 	.word	0x00401044
    4968:	0040102c 	.word	0x0040102c
    496c:	0040101c 	.word	0x0040101c
    4970:	1f000014 	.word	0x1f000014
    4974:	00401028 	.word	0x00401028
    4978:	1f00000c 	.word	0x1f00000c
    497c:	00401024 	.word	0x00401024
    4980:	1f000010 	.word	0x1f000010
    4984:	00401020 	.word	0x00401020
    4988:	0040000c 	.word	0x0040000c
    498c:	00004d54 	.word	0x00004d54
    4990:	2f000200 	.word	0x2f000200
    4994:	2f000100 	.word	0x2f000100
    4998:	000002f0 	.word	0x000002f0
    499c:	2f000110 	.word	0x2f000110
    49a0:	00004ce0 	.word	0x00004ce0
    49a4:	2f000210 	.word	0x2f000210
    49a8:	2f000114 	.word	0x2f000114
    49ac:	00004d8c 	.word	0x00004d8c
    49b0:	2f000214 	.word	0x2f000214
    49b4:	2f00010c 	.word	0x2f00010c
    49b8:	00004ecc 	.word	0x00004ecc
    49bc:	2f00020c 	.word	0x2f00020c
    49c0:	2f000108 	.word	0x2f000108
    49c4:	00004fd4 	.word	0x00004fd4
    49c8:	2f000208 	.word	0x2f000208
    49cc:	2f000118 	.word	0x2f000118
    49d0:	00004e38 	.word	0x00004e38
    49d4:	2f000218 	.word	0x2f000218
    49d8:	2f00011c 	.word	0x2f00011c
    49dc:	00005154 	.word	0x00005154
    49e0:	2f00021c 	.word	0x2f00021c
    49e4:	00400a34 	.word	0x00400a34
    49e8:	21000008 	.word	0x21000008
    49ec:	00401048 	.word	0x00401048
    49f0:	00401054 	.word	0x00401054
    49f4:	0040104c 	.word	0x0040104c
    49f8:	e1000300 	.word	0xe1000300
    49fc:	e1000304 	.word	0xe1000304
    4a00:	e1000320 	.word	0xe1000320
    4a04:	40000040 	.word	0x40000040
    4a08:	e100031c 	.word	0xe100031c
    4a0c:	e1000318 	.word	0xe1000318
    4a10:	e100032c 	.word	0xe100032c
    4a14:	00401058 	.word	0x00401058
    4a18:	000054d0 	.word	0x000054d0
    4a1c:	000054f6 	.word	0x000054f6
    4a20:	0000551c 	.word	0x0000551c
    4a24:	00005542 	.word	0x00005542
    4a28:	0000556b 	.word	0x0000556b
    4a2c:	0000558a 	.word	0x0000558a
    4a30:	000055b6 	.word	0x000055b6
    4a34:	000055e1 	.word	0x000055e1
    4a38:	00004e00 	.word	0x00004e00
    4a3c:	00004f5c 	.word	0x00004f5c
    4a40:	00005114 	.word	0x00005114
    4a44:	000051c0 	.word	0x000051c0
    4a48:	00005214 	.word	0x00005214
    4a4c:	00400a80 	.word	0x00400a80
    4a50:	00401018 	.word	0x00401018
    4a54:	00400ac0 	.word	0x00400ac0

00004a58 <spin1_callback_on>:
    4a58:	4b25      	ldr	r3, [pc, #148]	@ (4af0 <spin1_callback_on+0x98>)
    4a5a:	b510      	push	{r4, lr}
    4a5c:	00c4      	lsls	r4, r0, #3
    4a5e:	5119      	str	r1, [r3, r4]
    4a60:	191b      	adds	r3, r3, r4
    4a62:	605a      	str	r2, [r3, #4]
    4a64:	2a00      	cmp	r2, #0
    4a66:	da21      	bge.n	4aac <spin1_callback_on+0x54>
    4a68:	4b22      	ldr	r3, [pc, #136]	@ (4af4 <spin1_callback_on+0x9c>)
    4a6a:	6819      	ldr	r1, [r3, #0]
    4a6c:	1c4c      	adds	r4, r1, #1
    4a6e:	d01c      	beq.n	4aaa <spin1_callback_on+0x52>
    4a70:	2800      	cmp	r0, #0
    4a72:	d108      	bne.n	4a86 <spin1_callback_on+0x2e>
    4a74:	2905      	cmp	r1, #5
    4a76:	d10a      	bne.n	4a8e <spin1_callback_on+0x36>
    4a78:	6018      	str	r0, [r3, #0]
    4a7a:	491f      	ldr	r1, [pc, #124]	@ (4af8 <spin1_callback_on+0xa0>)
    4a7c:	680b      	ldr	r3, [r1, #0]
    4a7e:	1c9c      	adds	r4, r3, #2
    4a80:	d11d      	bne.n	4abe <spin1_callback_on+0x66>
    4a82:	600a      	str	r2, [r1, #0]
    4a84:	e01f      	b.n	4ac6 <spin1_callback_on+0x6e>
    4a86:	2805      	cmp	r0, #5
    4a88:	d104      	bne.n	4a94 <spin1_callback_on+0x3c>
    4a8a:	2900      	cmp	r1, #0
    4a8c:	d0f4      	beq.n	4a78 <spin1_callback_on+0x20>
    4a8e:	2013      	movs	r0, #19
    4a90:	f7fb eb4c 	blx	12c <rt_error>
    4a94:	2806      	cmp	r0, #6
    4a96:	d103      	bne.n	4aa0 <spin1_callback_on+0x48>
    4a98:	2907      	cmp	r1, #7
    4a9a:	d1f8      	bne.n	4a8e <spin1_callback_on+0x36>
    4a9c:	6018      	str	r0, [r3, #0]
    4a9e:	e00c      	b.n	4aba <spin1_callback_on+0x62>
    4aa0:	2807      	cmp	r0, #7
    4aa2:	d1f4      	bne.n	4a8e <spin1_callback_on+0x36>
    4aa4:	2906      	cmp	r1, #6
    4aa6:	d0f9      	beq.n	4a9c <spin1_callback_on+0x44>
    4aa8:	e7f1      	b.n	4a8e <spin1_callback_on+0x36>
    4aaa:	6018      	str	r0, [r3, #0]
    4aac:	2800      	cmp	r0, #0
    4aae:	d0e4      	beq.n	4a7a <spin1_callback_on+0x22>
    4ab0:	2805      	cmp	r0, #5
    4ab2:	d0e2      	beq.n	4a7a <spin1_callback_on+0x22>
    4ab4:	1f83      	subs	r3, r0, #6
    4ab6:	2b01      	cmp	r3, #1
    4ab8:	d805      	bhi.n	4ac6 <spin1_callback_on+0x6e>
    4aba:	4910      	ldr	r1, [pc, #64]	@ (4afc <spin1_callback_on+0xa4>)
    4abc:	e7de      	b.n	4a7c <spin1_callback_on+0x24>
    4abe:	3301      	adds	r3, #1
    4ac0:	d101      	bne.n	4ac6 <spin1_callback_on+0x6e>
    4ac2:	1c53      	adds	r3, r2, #1
    4ac4:	d1e3      	bne.n	4a8e <spin1_callback_on+0x36>
    4ac6:	4b0e      	ldr	r3, [pc, #56]	@ (4b00 <spin1_callback_on+0xa8>)
    4ac8:	0080      	lsls	r0, r0, #2
    4aca:	58c1      	ldr	r1, [r0, r3]
    4acc:	480d      	ldr	r0, [pc, #52]	@ (4b04 <spin1_callback_on+0xac>)
    4ace:	6803      	ldr	r3, [r0, #0]
    4ad0:	430b      	orrs	r3, r1
    4ad2:	6003      	str	r3, [r0, #0]
    4ad4:	4b0c      	ldr	r3, [pc, #48]	@ (4b08 <spin1_callback_on+0xb0>)
    4ad6:	681b      	ldr	r3, [r3, #0]
    4ad8:	2b00      	cmp	r3, #0
    4ada:	d001      	beq.n	4ae0 <spin1_callback_on+0x88>
    4adc:	4b0b      	ldr	r3, [pc, #44]	@ (4b0c <spin1_callback_on+0xb4>)
    4ade:	6019      	str	r1, [r3, #0]
    4ae0:	2a00      	cmp	r2, #0
    4ae2:	dd04      	ble.n	4aee <spin1_callback_on+0x96>
    4ae4:	4b0a      	ldr	r3, [pc, #40]	@ (4b10 <spin1_callback_on+0xb8>)
    4ae6:	6819      	ldr	r1, [r3, #0]
    4ae8:	4291      	cmp	r1, r2
    4aea:	d200      	bcs.n	4aee <spin1_callback_on+0x96>
    4aec:	601a      	str	r2, [r3, #0]
    4aee:	bd10      	pop	{r4, pc}
    4af0:	00400a80 	.word	0x00400a80
    4af4:	0040000c 	.word	0x0040000c
    4af8:	00400008 	.word	0x00400008
    4afc:	00400004 	.word	0x00400004
    4b00:	00005620 	.word	0x00005620
    4b04:	0040101c 	.word	0x0040101c
    4b08:	00401054 	.word	0x00401054
    4b0c:	1f000010 	.word	0x1f000010
    4b10:	00401018 	.word	0x00401018

00004b14 <spin1_set_timer_tick_and_phase>:
    4b14:	4b02      	ldr	r3, [pc, #8]	@ (4b20 <spin1_set_timer_tick_and_phase+0xc>)
    4b16:	6018      	str	r0, [r3, #0]
    4b18:	4b02      	ldr	r3, [pc, #8]	@ (4b24 <spin1_set_timer_tick_and_phase+0x10>)
    4b1a:	6019      	str	r1, [r3, #0]
    4b1c:	4770      	bx	lr
    4b1e:	46c0      	nop			@ (mov r8, r8)
    4b20:	00401044 	.word	0x00401044
    4b24:	0040102c 	.word	0x0040102c

00004b28 <spin1_start>:
    4b28:	b510      	push	{r4, lr}
    4b2a:	2100      	movs	r1, #0
    4b2c:	f7ff fda4 	bl	4678 <start>
    4b30:	bd10      	pop	{r4, pc}
	...

00004b34 <spin1_send_packet>:
    4b34:	b5f0      	push	{r4, r5, r6, r7, lr}
    4b36:	b085      	sub	sp, #20
    4b38:	000d      	movs	r5, r1
    4b3a:	0014      	movs	r4, r2
    4b3c:	0006      	movs	r6, r0
    4b3e:	f7fb eb3c 	blx	1b8 <cpu_int_disable>
    4b42:	2180      	movs	r1, #128	@ 0x80
    4b44:	0589      	lsls	r1, r1, #22
    4b46:	2300      	movs	r3, #0
    4b48:	9001      	str	r0, [sp, #4]
    4b4a:	600b      	str	r3, [r1, #0]
    4b4c:	680a      	ldr	r2, [r1, #0]
    4b4e:	680f      	ldr	r7, [r1, #0]
    4b50:	4a2f      	ldr	r2, [pc, #188]	@ (4c10 <spin1_send_packet+0xdc>)
    4b52:	007f      	lsls	r7, r7, #1
    4b54:	d524      	bpl.n	4ba0 <spin1_send_packet+0x6c>
    4b56:	6857      	ldr	r7, [r2, #4]
    4b58:	1c79      	adds	r1, r7, #1
    4b5a:	468c      	mov	ip, r1
    4b5c:	4660      	mov	r0, ip
    4b5e:	210f      	movs	r1, #15
    4b60:	4001      	ands	r1, r0
    4b62:	6810      	ldr	r0, [r2, #0]
    4b64:	4281      	cmp	r1, r0
    4b66:	d10e      	bne.n	4b86 <spin1_send_packet+0x52>
    4b68:	4a2a      	ldr	r2, [pc, #168]	@ (4c14 <spin1_send_packet+0xe0>)
    4b6a:	2104      	movs	r1, #4
    4b6c:	6854      	ldr	r4, [r2, #4]
    4b6e:	4321      	orrs	r1, r4
    4b70:	6051      	str	r1, [r2, #4]
    4b72:	6a51      	ldr	r1, [r2, #36]	@ 0x24
    4b74:	001c      	movs	r4, r3
    4b76:	3101      	adds	r1, #1
    4b78:	6251      	str	r1, [r2, #36]	@ 0x24
    4b7a:	9801      	ldr	r0, [sp, #4]
    4b7c:	f7fb eb24 	blx	1c8 <cpu_int_restore>
    4b80:	0020      	movs	r0, r4
    4b82:	b005      	add	sp, #20
    4b84:	bdf0      	pop	{r4, r5, r6, r7, pc}
    4b86:	230c      	movs	r3, #12
    4b88:	437b      	muls	r3, r7
    4b8a:	18d3      	adds	r3, r2, r3
    4b8c:	609e      	str	r6, [r3, #8]
    4b8e:	60dd      	str	r5, [r3, #12]
    4b90:	611c      	str	r4, [r3, #16]
    4b92:	4b21      	ldr	r3, [pc, #132]	@ (4c18 <spin1_send_packet+0xe4>)
    4b94:	6051      	str	r1, [r2, #4]
    4b96:	2280      	movs	r2, #128	@ 0x80
    4b98:	0112      	lsls	r2, r2, #4
    4b9a:	601a      	str	r2, [r3, #0]
    4b9c:	2401      	movs	r4, #1
    4b9e:	e7ec      	b.n	4b7a <spin1_send_packet+0x46>
    4ba0:	6853      	ldr	r3, [r2, #4]
    4ba2:	6817      	ldr	r7, [r2, #0]
    4ba4:	200f      	movs	r0, #15
    4ba6:	3301      	adds	r3, #1
    4ba8:	4684      	mov	ip, r0
    4baa:	4003      	ands	r3, r0
    4bac:	42bb      	cmp	r3, r7
    4bae:	d114      	bne.n	4bda <spin1_send_packet+0xa6>
    4bb0:	270c      	movs	r7, #12
    4bb2:	435f      	muls	r7, r3
    4bb4:	19d7      	adds	r7, r2, r7
    4bb6:	68b8      	ldr	r0, [r7, #8]
    4bb8:	9002      	str	r0, [sp, #8]
    4bba:	68f8      	ldr	r0, [r7, #12]
    4bbc:	9003      	str	r0, [sp, #12]
    4bbe:	693f      	ldr	r7, [r7, #16]
    4bc0:	3301      	adds	r3, #1
    4bc2:	4660      	mov	r0, ip
    4bc4:	4003      	ands	r3, r0
    4bc6:	6013      	str	r3, [r2, #0]
    4bc8:	600f      	str	r7, [r1, #0]
    4bca:	03bf      	lsls	r7, r7, #14
    4bcc:	d502      	bpl.n	4bd4 <spin1_send_packet+0xa0>
    4bce:	4b13      	ldr	r3, [pc, #76]	@ (4c1c <spin1_send_packet+0xe8>)
    4bd0:	9a03      	ldr	r2, [sp, #12]
    4bd2:	601a      	str	r2, [r3, #0]
    4bd4:	4b12      	ldr	r3, [pc, #72]	@ (4c20 <spin1_send_packet+0xec>)
    4bd6:	9a02      	ldr	r2, [sp, #8]
    4bd8:	601a      	str	r2, [r3, #0]
    4bda:	490d      	ldr	r1, [pc, #52]	@ (4c10 <spin1_send_packet+0xdc>)
    4bdc:	684b      	ldr	r3, [r1, #4]
    4bde:	680a      	ldr	r2, [r1, #0]
    4be0:	429a      	cmp	r2, r3
    4be2:	d10a      	bne.n	4bfa <spin1_send_packet+0xc6>
    4be4:	2380      	movs	r3, #128	@ 0x80
    4be6:	059b      	lsls	r3, r3, #22
    4be8:	601c      	str	r4, [r3, #0]
    4bea:	03a4      	lsls	r4, r4, #14
    4bec:	d501      	bpl.n	4bf2 <spin1_send_packet+0xbe>
    4bee:	4b0b      	ldr	r3, [pc, #44]	@ (4c1c <spin1_send_packet+0xe8>)
    4bf0:	601d      	str	r5, [r3, #0]
    4bf2:	4b0b      	ldr	r3, [pc, #44]	@ (4c20 <spin1_send_packet+0xec>)
    4bf4:	601e      	str	r6, [r3, #0]
    4bf6:	4b0b      	ldr	r3, [pc, #44]	@ (4c24 <spin1_send_packet+0xf0>)
    4bf8:	e7cd      	b.n	4b96 <spin1_send_packet+0x62>
    4bfa:	220c      	movs	r2, #12
    4bfc:	435a      	muls	r2, r3
    4bfe:	188a      	adds	r2, r1, r2
    4c00:	3301      	adds	r3, #1
    4c02:	6096      	str	r6, [r2, #8]
    4c04:	60d5      	str	r5, [r2, #12]
    4c06:	6114      	str	r4, [r2, #16]
    4c08:	220f      	movs	r2, #15
    4c0a:	4013      	ands	r3, r2
    4c0c:	604b      	str	r3, [r1, #4]
    4c0e:	e7c5      	b.n	4b9c <spin1_send_packet+0x68>
    4c10:	00400e08 	.word	0x00400e08
    4c14:	00400a34 	.word	0x00400a34
    4c18:	1f000010 	.word	0x1f000010
    4c1c:	20000004 	.word	0x20000004
    4c20:	20000008 	.word	0x20000008
    4c24:	1f000014 	.word	0x1f000014

00004c28 <schedule_sysmode>:
    4c28:	b5f7      	push	{r0, r1, r2, r4, r5, r6, r7, lr}
    4c2a:	9000      	str	r0, [sp, #0]
    4c2c:	9b00      	ldr	r3, [sp, #0]
    4c2e:	9201      	str	r2, [sp, #4]
    4c30:	4a19      	ldr	r2, [pc, #100]	@ (4c98 <schedule_sysmode+0x70>)
    4c32:	00df      	lsls	r7, r3, #3
    4c34:	19d3      	adds	r3, r2, r7
    4c36:	685c      	ldr	r4, [r3, #4]
    4c38:	0008      	movs	r0, r1
    4c3a:	2c00      	cmp	r4, #0
    4c3c:	dc03      	bgt.n	4c46 <schedule_sysmode+0x1e>
    4c3e:	58bb      	ldr	r3, [r7, r2]
    4c40:	9901      	ldr	r1, [sp, #4]
    4c42:	4798      	blx	r3
    4c44:	bdf7      	pop	{r0, r1, r2, r4, r5, r6, r7, pc}
    4c46:	3c01      	subs	r4, #1
    4c48:	25c8      	movs	r5, #200	@ 0xc8
    4c4a:	4365      	muls	r5, r4
    4c4c:	4b13      	ldr	r3, [pc, #76]	@ (4c9c <schedule_sysmode+0x74>)
    4c4e:	240f      	movs	r4, #15
    4c50:	1959      	adds	r1, r3, r5
    4c52:	468c      	mov	ip, r1
    4c54:	6849      	ldr	r1, [r1, #4]
    4c56:	1c4e      	adds	r6, r1, #1
    4c58:	4026      	ands	r6, r4
    4c5a:	58ec      	ldr	r4, [r5, r3]
    4c5c:	42a6      	cmp	r6, r4
    4c5e:	d012      	beq.n	4c86 <schedule_sysmode+0x5e>
    4c60:	240c      	movs	r4, #12
    4c62:	4361      	muls	r1, r4
    4c64:	194c      	adds	r4, r1, r5
    4c66:	191b      	adds	r3, r3, r4
    4c68:	58ba      	ldr	r2, [r7, r2]
    4c6a:	609a      	str	r2, [r3, #8]
    4c6c:	9a01      	ldr	r2, [sp, #4]
    4c6e:	60d8      	str	r0, [r3, #12]
    4c70:	611a      	str	r2, [r3, #16]
    4c72:	4663      	mov	r3, ip
    4c74:	605e      	str	r6, [r3, #4]
    4c76:	9b00      	ldr	r3, [sp, #0]
    4c78:	2b02      	cmp	r3, #2
    4c7a:	d1e3      	bne.n	4c44 <schedule_sysmode+0x1c>
    4c7c:	4a08      	ldr	r2, [pc, #32]	@ (4ca0 <schedule_sysmode+0x78>)
    4c7e:	6c13      	ldr	r3, [r2, #64]	@ 0x40
    4c80:	3301      	adds	r3, #1
    4c82:	6413      	str	r3, [r2, #64]	@ 0x40
    4c84:	e7de      	b.n	4c44 <schedule_sysmode+0x1c>
    4c86:	4b06      	ldr	r3, [pc, #24]	@ (4ca0 <schedule_sysmode+0x78>)
    4c88:	2201      	movs	r2, #1
    4c8a:	6859      	ldr	r1, [r3, #4]
    4c8c:	430a      	orrs	r2, r1
    4c8e:	605a      	str	r2, [r3, #4]
    4c90:	6a1a      	ldr	r2, [r3, #32]
    4c92:	3201      	adds	r2, #1
    4c94:	621a      	str	r2, [r3, #32]
    4c96:	e7d5      	b.n	4c44 <schedule_sysmode+0x1c>
    4c98:	00400a80 	.word	0x00400a80
    4c9c:	00400ac0 	.word	0x00400ac0
    4ca0:	00400a34 	.word	0x00400a34

00004ca4 <sark_pre_main>:
    4ca4:	b510      	push	{r4, lr}
    4ca6:	f7fe fcd9 	bl	365c <sark_call_cpp_constructors>
    4caa:	2006      	movs	r0, #6
    4cac:	f7fe fc60 	bl	3570 <sark_cpu_state>
    4cb0:	235b      	movs	r3, #91	@ 0x5b
    4cb2:	2201      	movs	r2, #1
    4cb4:	701a      	strb	r2, [r3, #0]
    4cb6:	f7fe fc63 	bl	3580 <sark_app_lead>
    4cba:	4b04      	ldr	r3, [pc, #16]	@ (4ccc <sark_pre_main+0x28>)
    4cbc:	4a04      	ldr	r2, [pc, #16]	@ (4cd0 <sark_pre_main+0x2c>)
    4cbe:	681b      	ldr	r3, [r3, #0]
    4cc0:	1a1b      	subs	r3, r3, r0
    4cc2:	4259      	negs	r1, r3
    4cc4:	414b      	adcs	r3, r1
    4cc6:	7013      	strb	r3, [r2, #0]
    4cc8:	bd10      	pop	{r4, pc}
    4cca:	46c0      	nop			@ (mov r8, r8)
    4ccc:	00400934 	.word	0x00400934
    4cd0:	00401058 	.word	0x00401058

00004cd4 <sark_post_main>:
    4cd4:	b510      	push	{r4, lr}
    4cd6:	200b      	movs	r0, #11
    4cd8:	f7fe fc4a 	bl	3570 <sark_cpu_state>
    4cdc:	bd10      	pop	{r4, pc}
	...

00004ce0 <cc_rx_ready_isr>:
    4ce0:	e24ee004 	sub	lr, lr, #4
    4ce4:	e92d500f 	push	{r0, r1, r2, r3, ip, lr}
    4ce8:	e3a03202 	mov	r3, #536870912	@ 0x20000000
    4cec:	e593200c 	ldr	r2, [r3, #12]
    4cf0:	e59f0054 	ldr	r0, [pc, #84]	@ 4d4c <cc_rx_ready_isr+0x6c>
    4cf4:	e2122802 	ands	r2, r2, #131072	@ 0x20000
    4cf8:	0a00000a 	beq	4d28 <cc_rx_ready_isr+0x48>
    4cfc:	e5932010 	ldr	r2, [r3, #16]
    4d00:	e5931014 	ldr	r1, [r3, #20]
    4d04:	e5903028 	ldr	r3, [r0, #40]	@ 0x28
    4d08:	e3530000 	cmp	r3, #0
    4d0c:	13a00005 	movne	r0, #5
    4d10:	1a000009 	bne	4d3c <cc_rx_ready_isr+0x5c>
    4d14:	e59f2034 	ldr	r2, [pc, #52]	@ 4d50 <cc_rx_ready_isr+0x70>
    4d18:	e5923010 	ldr	r3, [r2, #16]
    4d1c:	e2833001 	add	r3, r3, #1
    4d20:	e5823010 	str	r3, [r2, #16]
    4d24:	ea000005 	b	4d40 <cc_rx_ready_isr+0x60>
    4d28:	e5931014 	ldr	r1, [r3, #20]
    4d2c:	e5903000 	ldr	r3, [r0]
    4d30:	e3530000 	cmp	r3, #0
    4d34:	0afffff6 	beq	4d14 <cc_rx_ready_isr+0x34>
    4d38:	e1a00002 	mov	r0, r2
    4d3c:	ebffed78 	bl	324 <schedule>
    4d40:	e3a0341f 	mov	r3, #520093696	@ 0x1f000000
    4d44:	e5833030 	str	r3, [r3, #48]	@ 0x30
    4d48:	e8fd900f 	ldm	sp!, {r0, r1, r2, r3, ip, pc}^
    4d4c:	00400a80 	.word	0x00400a80
    4d50:	00400a34 	.word	0x00400a34

00004d54 <cc_rx_ready_fiqsr>:
    4d54:	e24ee004 	sub	lr, lr, #4
    4d58:	e92d500f 	push	{r0, r1, r2, r3, ip, lr}
    4d5c:	e3a03202 	mov	r3, #536870912	@ 0x20000000
    4d60:	e593100c 	ldr	r1, [r3, #12]
    4d64:	e59f201c 	ldr	r2, [pc, #28]	@ 4d88 <cc_rx_ready_fiqsr+0x34>
    4d68:	e2111802 	ands	r1, r1, #131072	@ 0x20000
    4d6c:	15931010 	ldrne	r1, [r3, #16]
    4d70:	05930014 	ldreq	r0, [r3, #20]
    4d74:	15930014 	ldrne	r0, [r3, #20]
    4d78:	05923000 	ldreq	r3, [r2]
    4d7c:	15923028 	ldrne	r3, [r2, #40]	@ 0x28
    4d80:	e12fff33 	blx	r3
    4d84:	e8fd900f 	ldm	sp!, {r0, r1, r2, r3, ip, pc}^
    4d88:	00400a80 	.word	0x00400a80

00004d8c <cc_fr_ready_isr>:
    4d8c:	e24ee004 	sub	lr, lr, #4
    4d90:	e92d500f 	push	{r0, r1, r2, r3, ip, lr}
    4d94:	e3a03202 	mov	r3, #536870912	@ 0x20000000
    4d98:	e593200c 	ldr	r2, [r3, #12]
    4d9c:	e59f0054 	ldr	r0, [pc, #84]	@ 4df8 <cc_fr_ready_isr+0x6c>
    4da0:	e2122802 	ands	r2, r2, #131072	@ 0x20000
    4da4:	0a00000c 	beq	4ddc <cc_fr_ready_isr+0x50>
    4da8:	e5932010 	ldr	r2, [r3, #16]
    4dac:	e5931014 	ldr	r1, [r3, #20]
    4db0:	e5903038 	ldr	r3, [r0, #56]	@ 0x38
    4db4:	e3530000 	cmp	r3, #0
    4db8:	13a00007 	movne	r0, #7
    4dbc:	1a00000b 	bne	4df0 <cc_fr_ready_isr+0x64>
    4dc0:	e59f2034 	ldr	r2, [pc, #52]	@ 4dfc <cc_fr_ready_isr+0x70>
    4dc4:	e5923038 	ldr	r3, [r2, #56]	@ 0x38
    4dc8:	e2833001 	add	r3, r3, #1
    4dcc:	e5823038 	str	r3, [r2, #56]	@ 0x38
    4dd0:	e3a0341f 	mov	r3, #520093696	@ 0x1f000000
    4dd4:	e5833030 	str	r3, [r3, #48]	@ 0x30
    4dd8:	e8fd900f 	ldm	sp!, {r0, r1, r2, r3, ip, pc}^
    4ddc:	e5931014 	ldr	r1, [r3, #20]
    4de0:	e5903030 	ldr	r3, [r0, #48]	@ 0x30
    4de4:	e3530000 	cmp	r3, #0
    4de8:	0afffff4 	beq	4dc0 <cc_fr_ready_isr+0x34>
    4dec:	e3a00006 	mov	r0, #6
    4df0:	ebffed4b 	bl	324 <schedule>
    4df4:	eafffff5 	b	4dd0 <cc_fr_ready_isr+0x44>
    4df8:	00400a80 	.word	0x00400a80
    4dfc:	00400a34 	.word	0x00400a34

00004e00 <cc_fr_ready_fiqsr>:
    4e00:	e24ee004 	sub	lr, lr, #4
    4e04:	e92d500f 	push	{r0, r1, r2, r3, ip, lr}
    4e08:	e3a03202 	mov	r3, #536870912	@ 0x20000000
    4e0c:	e593100c 	ldr	r1, [r3, #12]
    4e10:	e59f201c 	ldr	r2, [pc, #28]	@ 4e34 <cc_fr_ready_fiqsr+0x34>
    4e14:	e2111802 	ands	r1, r1, #131072	@ 0x20000
    4e18:	15931010 	ldrne	r1, [r3, #16]
    4e1c:	05930014 	ldreq	r0, [r3, #20]
    4e20:	15930014 	ldrne	r0, [r3, #20]
    4e24:	05923030 	ldreq	r3, [r2, #48]	@ 0x30
    4e28:	15923038 	ldrne	r3, [r2, #56]	@ 0x38
    4e2c:	e12fff33 	blx	r3
    4e30:	e8fd900f 	ldm	sp!, {r0, r1, r2, r3, ip, pc}^
    4e34:	00400a80 	.word	0x00400a80

00004e38 <cc_tx_empty_isr>:
    4e38:	e24ee004 	sub	lr, lr, #4
    4e3c:	e92d501f 	push	{r0, r1, r2, r3, r4, ip, lr}
    4e40:	e3a03202 	mov	r3, #536870912	@ 0x20000000
    4e44:	e3a02000 	mov	r2, #0
    4e48:	e5832000 	str	r2, [r3]
    4e4c:	e59f1074 	ldr	r1, [pc, #116]	@ 4ec8 <cc_tx_empty_isr+0x90>
    4e50:	e5932000 	ldr	r2, [r3]
    4e54:	e3a0c00c 	mov	ip, #12
    4e58:	e5912000 	ldr	r2, [r1]
    4e5c:	e5910004 	ldr	r0, [r1, #4]
    4e60:	e1520000 	cmp	r2, r0
    4e64:	0a000013 	beq	4eb8 <cc_tx_empty_isr+0x80>
    4e68:	e5930000 	ldr	r0, [r3]
    4e6c:	e3100101 	tst	r0, #1073741824	@ 0x40000000
    4e70:	0a000003 	beq	4e84 <cc_tx_empty_isr+0x4c>
    4e74:	e3a0341f 	mov	r3, #520093696	@ 0x1f000000
    4e78:	e3a02001 	mov	r2, #1
    4e7c:	e5832030 	str	r2, [r3, #48]	@ 0x30
    4e80:	e8fd901f 	ldm	sp!, {r0, r1, r2, r3, r4, ip, pc}^
    4e84:	e020129c 	mla	r0, ip, r2, r1
    4e88:	e2822001 	add	r2, r2, #1
    4e8c:	e590e008 	ldr	lr, [r0, #8]
    4e90:	e590400c 	ldr	r4, [r0, #12]
    4e94:	e5900010 	ldr	r0, [r0, #16]
    4e98:	e202200f 	and	r2, r2, #15
    4e9c:	e3100802 	tst	r0, #131072	@ 0x20000
    4ea0:	e5812000 	str	r2, [r1]
    4ea4:	e5830000 	str	r0, [r3]
    4ea8:	15834004 	strne	r4, [r3, #4]
    4eac:	e583e008 	str	lr, [r3, #8]
    4eb0:	e5932000 	ldr	r2, [r3]
    4eb4:	eaffffe7 	b	4e58 <cc_tx_empty_isr+0x20>
    4eb8:	e3a0341f 	mov	r3, #520093696	@ 0x1f000000
    4ebc:	e3a02b02 	mov	r2, #2048	@ 0x800
    4ec0:	e5832014 	str	r2, [r3, #20]
    4ec4:	eaffffea 	b	4e74 <cc_tx_empty_isr+0x3c>
    4ec8:	00400e08 	.word	0x00400e08

00004ecc <dma_done_isr>:
    4ecc:	e24ee004 	sub	lr, lr, #4
    4ed0:	e92d503f 	push	{r0, r1, r2, r3, r4, r5, ip, lr}
    4ed4:	e3a03008 	mov	r3, #8
    4ed8:	e3a0c101 	mov	ip, #1073741824	@ 0x40000000
    4edc:	e58c3010 	str	r3, [ip, #16]
    4ee0:	e59f306c 	ldr	r3, [pc, #108]	@ 4f54 <dma_done_isr+0x88>
    4ee4:	e3a0e014 	mov	lr, #20
    4ee8:	e5930000 	ldr	r0, [r3]
    4eec:	e5934004 	ldr	r4, [r3, #4]
    4ef0:	e022309e 	mla	r2, lr, r0, r3
    4ef4:	e2800001 	add	r0, r0, #1
    4ef8:	e200000f 	and	r0, r0, #15
    4efc:	e1500004 	cmp	r0, r4
    4f00:	e5921008 	ldr	r1, [r2, #8]
    4f04:	e5830000 	str	r0, [r3]
    4f08:	e592200c 	ldr	r2, [r2, #12]
    4f0c:	0a000006 	beq	4f2c <dma_done_isr+0x60>
    4f10:	e023309e 	mla	r3, lr, r0, r3
    4f14:	e593e014 	ldr	lr, [r3, #20]
    4f18:	e5930018 	ldr	r0, [r3, #24]
    4f1c:	e5933010 	ldr	r3, [r3, #16]
    4f20:	e58c3004 	str	r3, [ip, #4]
    4f24:	e58ce008 	str	lr, [ip, #8]
    4f28:	e58c000c 	str	r0, [ip, #12]
    4f2c:	e59f3024 	ldr	r3, [pc, #36]	@ 4f58 <dma_done_isr+0x8c>
    4f30:	e5933008 	ldr	r3, [r3, #8]
    4f34:	e3530000 	cmp	r3, #0
    4f38:	0a000001 	beq	4f44 <dma_done_isr+0x78>
    4f3c:	e3a00001 	mov	r0, #1
    4f40:	ebffecf7 	bl	324 <schedule>
    4f44:	e3a0341f 	mov	r3, #520093696	@ 0x1f000000
    4f48:	e3a02001 	mov	r2, #1
    4f4c:	e5832030 	str	r2, [r3, #48]	@ 0x30
    4f50:	e8fd903f 	ldm	sp!, {r0, r1, r2, r3, r4, r5, ip, pc}^
    4f54:	00400ed0 	.word	0x00400ed0
    4f58:	00400a80 	.word	0x00400a80

00004f5c <dma_done_fiqsr>:
    4f5c:	e24ee004 	sub	lr, lr, #4
    4f60:	e92d503f 	push	{r0, r1, r2, r3, r4, r5, ip, lr}
    4f64:	e3a03008 	mov	r3, #8
    4f68:	e3a0c101 	mov	ip, #1073741824	@ 0x40000000
    4f6c:	e58c3010 	str	r3, [ip, #16]
    4f70:	e59f3054 	ldr	r3, [pc, #84]	@ 4fcc <dma_done_fiqsr+0x70>
    4f74:	e3a0e014 	mov	lr, #20
    4f78:	e5932000 	ldr	r2, [r3]
    4f7c:	e5934004 	ldr	r4, [r3, #4]
    4f80:	e021329e 	mla	r1, lr, r2, r3
    4f84:	e2822001 	add	r2, r2, #1
    4f88:	e202200f 	and	r2, r2, #15
    4f8c:	e1520004 	cmp	r2, r4
    4f90:	e5910008 	ldr	r0, [r1, #8]
    4f94:	e5832000 	str	r2, [r3]
    4f98:	e591100c 	ldr	r1, [r1, #12]
    4f9c:	0a000006 	beq	4fbc <dma_done_fiqsr+0x60>
    4fa0:	e023329e 	mla	r3, lr, r2, r3
    4fa4:	e593e014 	ldr	lr, [r3, #20]
    4fa8:	e5932018 	ldr	r2, [r3, #24]
    4fac:	e5933010 	ldr	r3, [r3, #16]
    4fb0:	e58c3004 	str	r3, [ip, #4]
    4fb4:	e58ce008 	str	lr, [ip, #8]
    4fb8:	e58c200c 	str	r2, [ip, #12]
    4fbc:	e59f300c 	ldr	r3, [pc, #12]	@ 4fd0 <dma_done_fiqsr+0x74>
    4fc0:	e5933008 	ldr	r3, [r3, #8]
    4fc4:	e12fff33 	blx	r3
    4fc8:	e8fd903f 	ldm	sp!, {r0, r1, r2, r3, r4, r5, ip, pc}^
    4fcc:	00400ed0 	.word	0x00400ed0
    4fd0:	00400a80 	.word	0x00400a80

00004fd4 <timer1_isr>:
    4fd4:	e24ee004 	sub	lr, lr, #4
    4fd8:	e92d503f 	push	{r0, r1, r2, r3, r4, r5, ip, lr}
    4fdc:	e59f1108 	ldr	r1, [pc, #264]	@ 50ec <timer1_isr+0x118>
    4fe0:	e3a04001 	mov	r4, #1
    4fe4:	e3a03421 	mov	r3, #553648128	@ 0x21000000
    4fe8:	e583400c 	str	r4, [r3, #12]
    4fec:	e5913000 	ldr	r3, [r1]
    4ff0:	e59fe0f8 	ldr	lr, [pc, #248]	@ 50f0 <timer1_isr+0x11c>
    4ff4:	e0833004 	add	r3, r3, r4
    4ff8:	e5813000 	str	r3, [r1]
    4ffc:	e59f30f0 	ldr	r3, [pc, #240]	@ 50f4 <timer1_isr+0x120>
    5000:	e59fc0f0 	ldr	ip, [pc, #240]	@ 50f8 <timer1_isr+0x124>
    5004:	e5932000 	ldr	r2, [r3]
    5008:	e59e3000 	ldr	r3, [lr]
    500c:	e59f00e8 	ldr	r0, [pc, #232]	@ 50fc <timer1_isr+0x128>
    5010:	e0433002 	sub	r3, r3, r2
    5014:	e3530000 	cmp	r3, #0
    5018:	e58e3000 	str	r3, [lr]
    501c:	ca00000c 	bgt	5054 <timer1_isr+0x80>
    5020:	e59f50d8 	ldr	r5, [pc, #216]	@ 5100 <timer1_isr+0x12c>
    5024:	e283397a 	add	r3, r3, #1998848	@ 0x1e8000
    5028:	e5955038 	ldr	r5, [r5, #56]	@ 0x38
    502c:	e2833d12 	add	r3, r3, #1152	@ 0x480
    5030:	e0020295 	mul	r2, r5, r2
    5034:	e5804000 	str	r4, [r0]
    5038:	e3520000 	cmp	r2, #0
    503c:	e58c2000 	str	r2, [ip]
    5040:	b2622000 	rsblt	r2, r2, #0
    5044:	b58c2000 	strlt	r2, [ip]
    5048:	b3e02000 	mvnlt	r2, #0
    504c:	b5802000 	strlt	r2, [r0]
    5050:	e58e3000 	str	r3, [lr]
    5054:	e59fe0a8 	ldr	lr, [pc, #168]	@ 5104 <timer1_isr+0x130>
    5058:	e59c3000 	ldr	r3, [ip]
    505c:	e59e2000 	ldr	r2, [lr]
    5060:	e5900000 	ldr	r0, [r0]
    5064:	e0822003 	add	r2, r2, r3
    5068:	e1a038a2 	lsr	r3, r2, #17
    506c:	e1a03883 	lsl	r3, r3, #17
    5070:	e0422003 	sub	r2, r2, r3
    5074:	e58e2000 	str	r2, [lr]
    5078:	e59f2088 	ldr	r2, [pc, #136]	@ 5108 <timer1_isr+0x134>
    507c:	e1a038c3 	asr	r3, r3, #17
    5080:	e5922000 	ldr	r2, [r2]
    5084:	e0232390 	mla	r3, r0, r3, r2
    5088:	e3a02421 	mov	r2, #553648128	@ 0x21000000
    508c:	e5823018 	str	r3, [r2, #24]
    5090:	e59f3074 	ldr	r3, [pc, #116]	@ 510c <timer1_isr+0x138>
    5094:	e5933010 	ldr	r3, [r3, #16]
    5098:	e3530000 	cmp	r3, #0
    509c:	0a00000e 	beq	50dc <timer1_isr+0x108>
    50a0:	e59f3068 	ldr	r3, [pc, #104]	@ 5110 <timer1_isr+0x13c>
    50a4:	e593203c 	ldr	r2, [r3, #60]	@ 0x3c
    50a8:	e3520000 	cmp	r2, #0
    50ac:	0a000006 	beq	50cc <timer1_isr+0xf8>
    50b0:	e5932048 	ldr	r2, [r3, #72]	@ 0x48
    50b4:	e5930044 	ldr	r0, [r3, #68]	@ 0x44
    50b8:	e2822001 	add	r2, r2, #1
    50bc:	e5832048 	str	r2, [r3, #72]	@ 0x48
    50c0:	e5932040 	ldr	r2, [r3, #64]	@ 0x40
    50c4:	e1520000 	cmp	r2, r0
    50c8:	85832044 	strhi	r2, [r3, #68]	@ 0x44
    50cc:	e5911000 	ldr	r1, [r1]
    50d0:	e3a02000 	mov	r2, #0
    50d4:	e3a00002 	mov	r0, #2
    50d8:	ebffec91 	bl	324 <schedule>
    50dc:	e3a0341f 	mov	r3, #520093696	@ 0x1f000000
    50e0:	e3a02001 	mov	r2, #1
    50e4:	e5832030 	str	r2, [r3, #48]	@ 0x30
    50e8:	e8fd903f 	ldm	sp!, {r0, r1, r2, r3, r4, r5, ip, pc}^
    50ec:	00401048 	.word	0x00401048
    50f0:	00401030 	.word	0x00401030
    50f4:	00401044 	.word	0x00401044
    50f8:	0040103c 	.word	0x0040103c
    50fc:	00401038 	.word	0x00401038
    5100:	e5007f00 	.word	0xe5007f00
    5104:	00401034 	.word	0x00401034
    5108:	00401040 	.word	0x00401040
    510c:	00400a80 	.word	0x00400a80
    5110:	00400a34 	.word	0x00400a34

00005114 <timer1_fiqsr>:
    5114:	e24ee004 	sub	lr, lr, #4
    5118:	e92d500f 	push	{r0, r1, r2, r3, ip, lr}
    511c:	e3a02001 	mov	r2, #1
    5120:	e3a03421 	mov	r3, #553648128	@ 0x21000000
    5124:	e583200c 	str	r2, [r3, #12]
    5128:	e59f301c 	ldr	r3, [pc, #28]	@ 514c <timer1_fiqsr+0x38>
    512c:	e3a01000 	mov	r1, #0
    5130:	e5930000 	ldr	r0, [r3]
    5134:	e0800002 	add	r0, r0, r2
    5138:	e5830000 	str	r0, [r3]
    513c:	e59f300c 	ldr	r3, [pc, #12]	@ 5150 <timer1_fiqsr+0x3c>
    5140:	e5933010 	ldr	r3, [r3, #16]
    5144:	e12fff33 	blx	r3
    5148:	e8fd900f 	ldm	sp!, {r0, r1, r2, r3, ip, pc}^
    514c:	00401048 	.word	0x00401048
    5150:	00400a80 	.word	0x00400a80

00005154 <soft_int_isr>:
    5154:	e24ee004 	sub	lr, lr, #4
    5158:	e92d500f 	push	{r0, r1, r2, r3, ip, lr}
    515c:	e59f0054 	ldr	r0, [pc, #84]	@ 51b8 <soft_int_isr+0x64>
    5160:	e5903000 	ldr	r3, [r0]
    5164:	e2833001 	add	r3, r3, #1
    5168:	e7901183 	ldr	r1, [r0, r3, lsl #3]
    516c:	e0802183 	add	r2, r0, r3, lsl #3
    5170:	e2033003 	and	r3, r3, #3
    5174:	e5803000 	str	r3, [r0]
    5178:	e5900004 	ldr	r0, [r0, #4]
    517c:	e5922004 	ldr	r2, [r2, #4]
    5180:	e1530000 	cmp	r3, r0
    5184:	03a0341f 	moveq	r3, #520093696	@ 0x1f000000
    5188:	03a00002 	moveq	r0, #2
    518c:	0583001c 	streq	r0, [r3, #28]
    5190:	e59f3024 	ldr	r3, [pc, #36]	@ 51bc <soft_int_isr+0x68>
    5194:	e5933020 	ldr	r3, [r3, #32]
    5198:	e3530000 	cmp	r3, #0
    519c:	0a000001 	beq	51a8 <soft_int_isr+0x54>
    51a0:	e3a00004 	mov	r0, #4
    51a4:	ebffec5e 	bl	324 <schedule>
    51a8:	e3a0341f 	mov	r3, #520093696	@ 0x1f000000
    51ac:	e3a02001 	mov	r2, #1
    51b0:	e5832030 	str	r2, [r3, #48]	@ 0x30
    51b4:	e8fd900f 	ldm	sp!, {r0, r1, r2, r3, ip, pc}^
    51b8:	00400de0 	.word	0x00400de0
    51bc:	00400a80 	.word	0x00400a80

000051c0 <soft_int_fiqsr>:
    51c0:	e24ee004 	sub	lr, lr, #4
    51c4:	e92d500f 	push	{r0, r1, r2, r3, ip, lr}
    51c8:	e59f203c 	ldr	r2, [pc, #60]	@ 520c <soft_int_fiqsr+0x4c>
    51cc:	e5923000 	ldr	r3, [r2]
    51d0:	e2833001 	add	r3, r3, #1
    51d4:	e7920183 	ldr	r0, [r2, r3, lsl #3]
    51d8:	e0821183 	add	r1, r2, r3, lsl #3
    51dc:	e2033003 	and	r3, r3, #3
    51e0:	e5823000 	str	r3, [r2]
    51e4:	e5922004 	ldr	r2, [r2, #4]
    51e8:	e5911004 	ldr	r1, [r1, #4]
    51ec:	e1530002 	cmp	r3, r2
    51f0:	03a0341f 	moveq	r3, #520093696	@ 0x1f000000
    51f4:	03a02002 	moveq	r2, #2
    51f8:	0583201c 	streq	r2, [r3, #28]
    51fc:	e59f300c 	ldr	r3, [pc, #12]	@ 5210 <soft_int_fiqsr+0x50>
    5200:	e5933020 	ldr	r3, [r3, #32]
    5204:	e12fff33 	blx	r3
    5208:	e8fd900f 	ldm	sp!, {r0, r1, r2, r3, ip, pc}^
    520c:	00400de0 	.word	0x00400de0
    5210:	00400a80 	.word	0x00400a80

00005214 <sark_fiqsr>:
    5214:	e24ee004 	sub	lr, lr, #4
    5218:	e92d500f 	push	{r0, r1, r2, r3, ip, lr}
    521c:	e3a00000 	mov	r0, #0
    5220:	fafff9cf 	blx	3964 <sark_int>
    5224:	e8fd900f 	ldm	sp!, {r0, r1, r2, r3, ip, pc}^

00005228 <__gnu_thumb1_case_sqi>:
    5228:	b402      	push	{r1}
    522a:	4671      	mov	r1, lr
    522c:	0849      	lsrs	r1, r1, #1
    522e:	0049      	lsls	r1, r1, #1
    5230:	5609      	ldrsb	r1, [r1, r0]
    5232:	0049      	lsls	r1, r1, #1
    5234:	448e      	add	lr, r1
    5236:	bc02      	pop	{r1}
    5238:	4770      	bx	lr
    523a:	46c0      	nop			@ (mov r8, r8)

0000523c <__gnu_thumb1_case_shi>:
    523c:	b403      	push	{r0, r1}
    523e:	4671      	mov	r1, lr
    5240:	0849      	lsrs	r1, r1, #1
    5242:	0040      	lsls	r0, r0, #1
    5244:	0049      	lsls	r1, r1, #1
    5246:	5e09      	ldrsh	r1, [r1, r0]
    5248:	0049      	lsls	r1, r1, #1
    524a:	448e      	add	lr, r1
    524c:	bc03      	pop	{r0, r1}
    524e:	4770      	bx	lr

00005250 <__divsi3>:
    5250:	e3510000 	cmp	r1, #0
    5254:	0a000043 	beq	5368 <.divsi3_skip_div0_test+0x110>

00005258 <.divsi3_skip_div0_test>:
    5258:	e020c001 	eor	ip, r0, r1
    525c:	42611000 	rsbmi	r1, r1, #0
    5260:	e2512001 	subs	r2, r1, #1
    5264:	0a000027 	beq	5308 <.divsi3_skip_div0_test+0xb0>
    5268:	e1b03000 	movs	r3, r0
    526c:	42603000 	rsbmi	r3, r0, #0
    5270:	e1530001 	cmp	r3, r1
    5274:	9a000026 	bls	5314 <.divsi3_skip_div0_test+0xbc>
    5278:	e1110002 	tst	r1, r2
    527c:	0a000028 	beq	5324 <.divsi3_skip_div0_test+0xcc>
    5280:	e311020e 	tst	r1, #-536870912	@ 0xe0000000
    5284:	01a01181 	lsleq	r1, r1, #3
    5288:	03a02008 	moveq	r2, #8
    528c:	13a02001 	movne	r2, #1
    5290:	e3510201 	cmp	r1, #268435456	@ 0x10000000
    5294:	31510003 	cmpcc	r1, r3
    5298:	31a01201 	lslcc	r1, r1, #4
    529c:	31a02202 	lslcc	r2, r2, #4
    52a0:	3afffffa 	bcc	5290 <.divsi3_skip_div0_test+0x38>
    52a4:	e3510102 	cmp	r1, #-2147483648	@ 0x80000000
    52a8:	31510003 	cmpcc	r1, r3
    52ac:	31a01081 	lslcc	r1, r1, #1
    52b0:	31a02082 	lslcc	r2, r2, #1
    52b4:	3afffffa 	bcc	52a4 <.divsi3_skip_div0_test+0x4c>
    52b8:	e3a00000 	mov	r0, #0
    52bc:	e1530001 	cmp	r3, r1
    52c0:	20433001 	subcs	r3, r3, r1
    52c4:	21800002 	orrcs	r0, r0, r2
    52c8:	e15300a1 	cmp	r3, r1, lsr #1
    52cc:	204330a1 	subcs	r3, r3, r1, lsr #1
    52d0:	218000a2 	orrcs	r0, r0, r2, lsr #1
    52d4:	e1530121 	cmp	r3, r1, lsr #2
    52d8:	20433121 	subcs	r3, r3, r1, lsr #2
    52dc:	21800122 	orrcs	r0, r0, r2, lsr #2
    52e0:	e15301a1 	cmp	r3, r1, lsr #3
    52e4:	204331a1 	subcs	r3, r3, r1, lsr #3
    52e8:	218001a2 	orrcs	r0, r0, r2, lsr #3
    52ec:	e3530000 	cmp	r3, #0
    52f0:	11b02222 	lsrsne	r2, r2, #4
    52f4:	11a01221 	lsrne	r1, r1, #4
    52f8:	1affffef 	bne	52bc <.divsi3_skip_div0_test+0x64>
    52fc:	e35c0000 	cmp	ip, #0
    5300:	42600000 	rsbmi	r0, r0, #0
    5304:	e12fff1e 	bx	lr
    5308:	e13c0000 	teq	ip, r0
    530c:	42600000 	rsbmi	r0, r0, #0
    5310:	e12fff1e 	bx	lr
    5314:	33a00000 	movcc	r0, #0
    5318:	01a00fcc 	asreq	r0, ip, #31
    531c:	03800001 	orreq	r0, r0, #1
    5320:	e12fff1e 	bx	lr
    5324:	e3510801 	cmp	r1, #65536	@ 0x10000
    5328:	21a01821 	lsrcs	r1, r1, #16
    532c:	23a02010 	movcs	r2, #16
    5330:	33a02000 	movcc	r2, #0
    5334:	e3510c01 	cmp	r1, #256	@ 0x100
    5338:	21a01421 	lsrcs	r1, r1, #8
    533c:	22822008 	addcs	r2, r2, #8
    5340:	e3510010 	cmp	r1, #16
    5344:	21a01221 	lsrcs	r1, r1, #4
    5348:	22822004 	addcs	r2, r2, #4
    534c:	e3510004 	cmp	r1, #4
    5350:	82822003 	addhi	r2, r2, #3
    5354:	908220a1 	addls	r2, r2, r1, lsr #1
    5358:	e35c0000 	cmp	ip, #0
    535c:	e1a00233 	lsr	r0, r3, r2
    5360:	42600000 	rsbmi	r0, r0, #0
    5364:	e12fff1e 	bx	lr
    5368:	e3500000 	cmp	r0, #0
    536c:	c3e00102 	mvngt	r0, #-2147483648	@ 0x80000000
    5370:	b3a00102 	movlt	r0, #-2147483648	@ 0x80000000
    5374:	eafffc60 	b	44fc <__aeabi_idiv0>

00005378 <__aeabi_idivmod>:
    5378:	e3510000 	cmp	r1, #0
    537c:	0afffff9 	beq	5368 <.divsi3_skip_div0_test+0x110>
    5380:	e92d4003 	push	{r0, r1, lr}
    5384:	ebffffb3 	bl	5258 <.divsi3_skip_div0_test>
    5388:	e8bd4006 	pop	{r1, r2, lr}
    538c:	e0030092 	mul	r3, r2, r0
    5390:	e0411003 	sub	r1, r1, r3
    5394:	e12fff1e 	bx	lr

00005398 <memcpy>:
    5398:	e352000f 	cmp	r2, #15
    539c:	9a00000c 	bls	53d4 <memcpy+0x3c>
    53a0:	e1803001 	orr	r3, r0, r1
    53a4:	e3130003 	tst	r3, #3
    53a8:	11a03000 	movne	r3, r0
    53ac:	12422001 	subne	r2, r2, #1
    53b0:	0a00000c 	beq	53e8 <memcpy+0x50>
    53b4:	e2822001 	add	r2, r2, #1
    53b8:	e2433001 	sub	r3, r3, #1
    53bc:	e0812002 	add	r2, r1, r2
    53c0:	e4d1c001 	ldrb	ip, [r1], #1
    53c4:	e1510002 	cmp	r1, r2
    53c8:	e5e3c001 	strb	ip, [r3, #1]!
    53cc:	1afffffb 	bne	53c0 <memcpy+0x28>
    53d0:	e12fff1e 	bx	lr
    53d4:	e3520000 	cmp	r2, #0
    53d8:	e1a03000 	mov	r3, r0
    53dc:	e2422001 	sub	r2, r2, #1
    53e0:	1afffff3 	bne	53b4 <memcpy+0x1c>
    53e4:	e12fff1e 	bx	lr
    53e8:	e1a0c000 	mov	ip, r0
    53ec:	e92d41f0 	push	{r4, r5, r6, r7, r8, lr}
    53f0:	e2427010 	sub	r7, r2, #16
    53f4:	e3c7700f 	bic	r7, r7, #15
    53f8:	e2877010 	add	r7, r7, #16
    53fc:	e281e010 	add	lr, r1, #16
    5400:	e0803007 	add	r3, r0, r7
    5404:	e51e8010 	ldr	r8, [lr, #-16]
    5408:	e48c8010 	str	r8, [ip], #16
    540c:	e51e600c 	ldr	r6, [lr, #-12]
    5410:	e51e5008 	ldr	r5, [lr, #-8]
    5414:	e51e4004 	ldr	r4, [lr, #-4]
    5418:	e15c0003 	cmp	ip, r3
    541c:	e50c600c 	str	r6, [ip, #-12]
    5420:	e50c5008 	str	r5, [ip, #-8]
    5424:	e50c4004 	str	r4, [ip, #-4]
    5428:	e28ee010 	add	lr, lr, #16
    542c:	1afffff4 	bne	5404 <memcpy+0x6c>
    5430:	e312000c 	tst	r2, #12
    5434:	e202c00f 	and	ip, r2, #15
    5438:	01a0200c 	moveq	r2, ip
    543c:	e0811007 	add	r1, r1, r7
    5440:	0a00000d 	beq	547c <memcpy+0xe4>
    5444:	e1a04001 	mov	r4, r1
    5448:	e24cc004 	sub	ip, ip, #4
    544c:	e3cc6003 	bic	r6, ip, #3
    5450:	e1a0e12c 	lsr	lr, ip, #2
    5454:	e0836006 	add	r6, r3, r6
    5458:	e243c004 	sub	ip, r3, #4
    545c:	e4945004 	ldr	r5, [r4], #4
    5460:	e5ac5004 	str	r5, [ip, #4]!
    5464:	e15c0006 	cmp	ip, r6
    5468:	1afffffb 	bne	545c <memcpy+0xc4>
    546c:	e28ec001 	add	ip, lr, #1
    5470:	e2022003 	and	r2, r2, #3
    5474:	e083310c 	add	r3, r3, ip, lsl #2
    5478:	e081110c 	add	r1, r1, ip, lsl #2
    547c:	e3520000 	cmp	r2, #0
    5480:	e2422001 	sub	r2, r2, #1
    5484:	12822001 	addne	r2, r2, #1
    5488:	12433001 	subne	r3, r3, #1
    548c:	10812002 	addne	r2, r1, r2
    5490:	0a000003 	beq	54a4 <memcpy+0x10c>
    5494:	e4d1c001 	ldrb	ip, [r1], #1
    5498:	e1510002 	cmp	r1, r2
    549c:	e5e3c001 	strb	ip, [r3, #1]!
    54a0:	1afffffb 	bne	5494 <memcpy+0xfc>
    54a4:	e8bd41f0 	pop	{r4, r5, r6, r7, r8, lr}
    54a8:	e12fff1e 	bx	lr

000054ac <build_date>:
    54ac:	69f3f950                                P..i

000054b0 <build_name>:
    54b0:	61726f63 65725f6c 53006665 2f4b5241     coral_reef.SARK/
    54c0:	4e697053 656b614e 2e340072 00302e30     SpiNNaker.4.0.0.
    54d0:	615b0909 645f6970 67756265 5452205d     ..[api_debug] RT
    54e0:	636d2052 20202020 63617020 7374656b     R mc     packets
    54f0:	6425203a 0909000a 6970615b 6265645f     : %d....[api_deb
    5500:	205d6775 20525452 20647064 7020636d     ug] RTR dpd mc p
    5510:	656b6361 203a7374 000a6425 615b0909     ackets: %d....[a
    5520:	645f6970 67756265 5349205d 68742052     pi_debug] ISR th
    5530:	6e776f72 63617020 7374656b 6425203a     rown packets: %d
    5540:	0909000a 6970615b 6265645f 205d6775     ....[api_debug] 
    5550:	20525349 6f726874 46206e77 61702052     ISR thrown FR pa
    5560:	74656b63 25203a73 09000a64 70615b09     ckets: %d....[ap
    5570:	65645f69 5d677562 414d4420 72756220     i_debug] DMA bur
    5580:	3a737473 64252020 0909000a 6970615b     sts:  %d....[api
    5590:	7261775f 77205d6e 696e7261 203a676e     _warn] warning: 
    55a0:	6b736174 65757120 66206575 206c6c75     task queue full 
    55b0:	29752528 0909000a 6970615b 7261775f     (%u)....[api_war
    55c0:	77205d6e 696e7261 203a676e 20414d44     n] warning: DMA 
    55d0:	75657571 75662065 28206c6c 0a297525     queue full (%u).
    55e0:	5b090900 5f697061 6e726177 6177205d     ...[api_warn] wa
    55f0:	6e696e72 70203a67 656b6361 75712074     rning: packet qu
    5600:	20657565 6c6c7566 75252820               eue full (%u)..

0000560f <hex>:
    560f:	33323130 37363534 62613938 66656463     0123456789abcdef
	...

00005620 <VIC_EVENTS>:
    5620:	01000000 00001000 00000010 00000000     ................
    5630:	00000002 01000000 08000000 08000000     ................
